(dp0
S'MIL'
p1
(dp2
I1
S'OCT 29, 2014'
p3
sI2
S'OCT 31, 2014'
p4
sI3
S'NOV 01, 2014'
p5
sI4
S'NOV 04, 2014'
p6
sI5
S'NOV 05, 2014'
p7
sI6
S'NOV 07, 2014'
p8
sI7
S'NOV 08, 2014'
p9
sI8
S'NOV 11, 2014'
p10
sI9
S'NOV 14, 2014'
p11
sI10
S'NOV 16, 2014'
p12
sI11
S'NOV 18, 2014'
p13
sI12
S'NOV 19, 2014'
p14
sI13
S'NOV 21, 2014'
p15
sI14
S'NOV 22, 2014'
p16
sI15
S'NOV 25, 2014'
p17
sI16
S'NOV 26, 2014'
p18
sI17
S'NOV 28, 2014'
p19
sI18
S'NOV 29, 2014'
p20
sI19
S'DEC 02, 2014'
p21
sI20
S'DEC 03, 2014'
p22
sI21
S'DEC 05, 2014'
p23
sI22
S'DEC 07, 2014'
p24
sI23
S'DEC 09, 2014'
p25
sI24
S'DEC 13, 2014'
p26
sI25
S'DEC 15, 2014'
p27
sI26
S'DEC 17, 2014'
p28
sI27
S'DEC 18, 2014'
p29
sI28
S'DEC 20, 2014'
p30
sI29
S'DEC 23, 2014'
p31
sI30
S'DEC 26, 2014'
p32
sI31
S'DEC 27, 2014'
p33
sI32
S'DEC 29, 2014'
p34
sI33
S'DEC 31, 2014'
p35
sI34
S'JAN 02, 2015'
p36
sI35
S'JAN 04, 2015'
p37
sI36
S'JAN 06, 2015'
p38
sI37
S'JAN 07, 2015'
p39
sI38
S'JAN 09, 2015'
p40
sI39
S'JAN 10, 2015'
p41
sI40
S'JAN 15, 2015'
p42
sI41
S'JAN 19, 2015'
p43
sI42
S'JAN 22, 2015'
p44
sI43
S'JAN 24, 2015'
p45
sI44
S'JAN 25, 2015'
p46
sI45
S'JAN 27, 2015'
p47
sI46
S'JAN 29, 2015'
p48
sI47
S'JAN 31, 2015'
p49
sI48
S'FEB 02, 2015'
p50
sI49
S'FEB 04, 2015'
p51
sI50
S'FEB 06, 2015'
p52
sI51
S'FEB 07, 2015'
p53
sI52
S'FEB 09, 2015'
p54
sI53
S'FEB 11, 2015'
p55
sI54
S'FEB 20, 2015'
p56
sI55
S'FEB 22, 2015'
p57
sI56
S'FEB 23, 2015'
p58
sI57
S'FEB 25, 2015'
p59
sI58
S'FEB 27, 2015'
p60
sI59
S'FEB 28, 2015'
p61
sI60
S'MAR 03, 2015'
p62
sI61
S'MAR 04, 2015'
p63
sI62
S'MAR 07, 2015'
p64
sI63
S'MAR 09, 2015'
p65
sI64
S'MAR 11, 2015'
p66
sI65
S'MAR 12, 2015'
p67
sI66
S'MAR 14, 2015'
p68
sI67
S'MAR 17, 2015'
p69
sI68
S'MAR 18, 2015'
p70
sI69
S'MAR 20, 2015'
p71
sI70
S'MAR 22, 2015'
p72
sI71
S'MAR 24, 2015'
p73
sI72
S'MAR 26, 2015'
p74
sI73
S'MAR 28, 2015'
p75
sI74
S'MAR 30, 2015'
p76
sI75
S'APR 01, 2015'
p77
sI76
S'APR 03, 2015'
p78
sI77
S'APR 04, 2015'
p79
sI78
S'APR 08, 2015'
p80
sI79
S'APR 10, 2015'
p81
sI80
S'APR 12, 2015'
p82
sI81
S'APR 13, 2015'
p83
sI82
S'APR 15, 2015'
p84
ssS'GSW'
p85
(dp86
I1
S'OCT 29, 2014'
p87
sI2
S'NOV 01, 2014'
p88
sI3
S'NOV 02, 2014'
p89
sI4
S'NOV 05, 2014'
p90
sI5
S'NOV 08, 2014'
p91
sI6
S'NOV 09, 2014'
p92
sI7
S'NOV 11, 2014'
p93
sI8
S'NOV 13, 2014'
p94
sI9
S'NOV 15, 2014'
p95
sI10
S'NOV 16, 2014'
p96
sI11
S'NOV 21, 2014'
p97
sI12
S'NOV 23, 2014'
p98
sI13
S'NOV 25, 2014'
p99
sI14
S'NOV 26, 2014'
p100
sI15
S'NOV 28, 2014'
p101
sI16
S'NOV 30, 2014'
p102
sI17
S'DEC 02, 2014'
p103
sI18
S'DEC 04, 2014'
p104
sI19
S'DEC 06, 2014'
p105
sI20
S'DEC 08, 2014'
p106
sI21
S'DEC 10, 2014'
p107
sI22
S'DEC 13, 2014'
p108
sI23
S'DEC 14, 2014'
p109
sI24
S'DEC 16, 2014'
p110
sI25
S'DEC 18, 2014'
p111
sI26
S'DEC 22, 2014'
p112
sI27
S'DEC 23, 2014'
p113
sI28
S'DEC 25, 2014'
p114
sI29
S'DEC 27, 2014'
p115
sI30
S'DEC 30, 2014'
p116
sI31
S'JAN 02, 2015'
p117
sI32
S'JAN 05, 2015'
p118
sI33
S'JAN 07, 2015'
p119
sI34
S'JAN 09, 2015'
p120
sI35
S'JAN 13, 2015'
p121
sI36
S'JAN 14, 2015'
p122
sI37
S'JAN 16, 2015'
p123
sI38
S'JAN 17, 2015'
p124
sI39
S'JAN 19, 2015'
p125
sI40
S'JAN 21, 2015'
p126
sI41
S'JAN 23, 2015'
p127
sI42
S'JAN 25, 2015'
p128
sI43
S'JAN 27, 2015'
p129
sI44
S'JAN 30, 2015'
p130
sI45
S'JAN 31, 2015'
p131
sI46
S'FEB 03, 2015'
p132
sI47
S'FEB 04, 2015'
p133
sI48
S'FEB 06, 2015'
p134
sI49
S'FEB 07, 2015'
p135
sI50
S'FEB 09, 2015'
p136
sI51
S'FEB 11, 2015'
p137
sI52
S'FEB 20, 2015'
p138
sI53
S'FEB 22, 2015'
p139
sI54
S'FEB 24, 2015'
p140
sI55
S'FEB 26, 2015'
p141
sI56
S'FEB 27, 2015'
p142
sI57
S'MAR 01, 2015'
p143
sI58
S'MAR 02, 2015'
p144
sI59
S'MAR 04, 2015'
p145
sI60
S'MAR 06, 2015'
p146
sI61
S'MAR 08, 2015'
p147
sI62
S'MAR 09, 2015'
p148
sI63
S'MAR 11, 2015'
p149
sI64
S'MAR 13, 2015'
p150
sI65
S'MAR 14, 2015'
p151
sI66
S'MAR 16, 2015'
p152
sI67
S'MAR 18, 2015'
p153
sI68
S'MAR 20, 2015'
p154
sI69
S'MAR 21, 2015'
p155
sI70
S'MAR 23, 2015'
p156
sI71
S'MAR 24, 2015'
p157
sI72
S'MAR 27, 2015'
p158
sI73
S'MAR 28, 2015'
p159
sI74
S'MAR 31, 2015'
p160
sI75
S'APR 02, 2015'
p161
sI76
S'APR 04, 2015'
p162
sI77
S'APR 05, 2015'
p163
sI78
S'APR 07, 2015'
p164
sI79
S'APR 09, 2015'
p165
sI80
S'APR 11, 2015'
p166
sI81
S'APR 13, 2015'
p167
sI82
S'APR 15, 2015'
p168
ssS'MIN'
p169
(dp170
I1
S'OCT 29, 2014'
p171
sI2
S'OCT 30, 2014'
p172
sI3
S'NOV 01, 2014'
p173
sI4
S'NOV 05, 2014'
p174
sI5
S'NOV 07, 2014'
p175
sI6
S'NOV 08, 2014'
p176
sI7
S'NOV 12, 2014'
p177
sI8
S'NOV 14, 2014'
p178
sI9
S'NOV 15, 2014'
p179
sI10
S'NOV 19, 2014'
p180
sI11
S'NOV 21, 2014'
p181
sI12
S'NOV 22, 2014'
p182
sI13
S'NOV 26, 2014'
p183
sI14
S'NOV 28, 2014'
p184
sI15
S'NOV 30, 2014'
p185
sI16
S'DEC 01, 2014'
p186
sI17
S'DEC 03, 2014'
p187
sI18
S'DEC 05, 2014'
p188
sI19
S'DEC 06, 2014'
p189
sI20
S'DEC 08, 2014'
p190
sI21
S'DEC 10, 2014'
p191
sI22
S'DEC 12, 2014'
p192
sI23
S'DEC 14, 2014'
p193
sI24
S'DEC 16, 2014'
p194
sI25
S'DEC 19, 2014'
p195
sI26
S'DEC 21, 2014'
p196
sI27
S'DEC 23, 2014'
p197
sI28
S'DEC 26, 2014'
p198
sI29
S'DEC 27, 2014'
p199
sI30
S'DEC 30, 2014'
p200
sI31
S'JAN 01, 2015'
p201
sI32
S'JAN 03, 2015'
p202
sI33
S'JAN 05, 2015'
p203
sI34
S'JAN 07, 2015'
p204
sI35
S'JAN 09, 2015'
p205
sI36
S'JAN 10, 2015'
p206
sI37
S'JAN 13, 2015'
p207
sI38
S'JAN 16, 2015'
p208
sI39
S'JAN 17, 2015'
p209
sI40
S'JAN 19, 2015'
p210
sI41
S'JAN 21, 2015'
p211
sI42
S'JAN 23, 2015'
p212
sI43
S'JAN 25, 2015'
p213
sI44
S'JAN 26, 2015'
p214
sI45
S'JAN 28, 2015'
p215
sI46
S'JAN 30, 2015'
p216
sI47
S'JAN 31, 2015'
p217
sI48
S'FEB 02, 2015'
p218
sI49
S'FEB 04, 2015'
p219
sI50
S'FEB 06, 2015'
p220
sI51
S'FEB 08, 2015'
p221
sI52
S'FEB 09, 2015'
p222
sI53
S'FEB 11, 2015'
p223
sI54
S'FEB 20, 2015'
p224
sI55
S'FEB 23, 2015'
p225
sI56
S'FEB 25, 2015'
p226
sI57
S'FEB 27, 2015'
p227
sI58
S'FEB 28, 2015'
p228
sI59
S'MAR 02, 2015'
p229
sI60
S'MAR 04, 2015'
p230
sI61
S'MAR 07, 2015'
p231
sI62
S'MAR 09, 2015'
p232
sI63
S'MAR 11, 2015'
p233
sI64
S'MAR 13, 2015'
p234
sI65
S'MAR 15, 2015'
p235
sI66
S'MAR 16, 2015'
p236
sI67
S'MAR 18, 2015'
p237
sI68
S'MAR 19, 2015'
p238
sI69
S'MAR 22, 2015'
p239
sI70
S'MAR 23, 2015'
p240
sI71
S'MAR 25, 2015'
p241
sI72
S'MAR 27, 2015'
p242
sI73
S'MAR 29, 2015'
p243
sI74
S'MAR 30, 2015'
p244
sI75
S'APR 01, 2015'
p245
sI76
S'APR 03, 2015'
p246
sI77
S'APR 07, 2015'
p247
sI78
S'APR 08, 2015'
p248
sI79
S'APR 10, 2015'
p249
sI80
S'APR 11, 2015'
p250
sI81
S'APR 13, 2015'
p251
sI82
S'APR 15, 2015'
p252
ssS'MIA'
p253
(dp254
I1
S'OCT 29, 2014'
p255
sI2
S'NOV 01, 2014'
p256
sI3
S'NOV 02, 2014'
p257
sI4
S'NOV 04, 2014'
p258
sI5
S'NOV 05, 2014'
p259
sI6
S'NOV 08, 2014'
p260
sI7
S'NOV 09, 2014'
p261
sI8
S'NOV 12, 2014'
p262
sI9
S'NOV 14, 2014'
p263
sI10
S'NOV 16, 2014'
p264
sI11
S'NOV 17, 2014'
p265
sI12
S'NOV 20, 2014'
p266
sI13
S'NOV 22, 2014'
p267
sI14
S'NOV 23, 2014'
p268
sI15
S'NOV 25, 2014'
p269
sI16
S'NOV 30, 2014'
p270
sI17
S'DEC 01, 2014'
p271
sI18
S'DEC 03, 2014'
p272
sI19
S'DEC 05, 2014'
p273
sI20
S'DEC 07, 2014'
p274
sI21
S'DEC 09, 2014'
p275
sI22
S'DEC 10, 2014'
p276
sI23
S'DEC 12, 2014'
p277
sI24
S'DEC 14, 2014'
p278
sI25
S'DEC 16, 2014'
p279
sI26
S'DEC 17, 2014'
p280
sI27
S'DEC 19, 2014'
p281
sI28
S'DEC 21, 2014'
p282
sI29
S'DEC 23, 2014'
p283
sI30
S'DEC 25, 2014'
p284
sI31
S'DEC 27, 2014'
p285
sI32
S'DEC 29, 2014'
p286
sI33
S'DEC 31, 2014'
p287
sI34
S'JAN 03, 2015'
p288
sI35
S'JAN 04, 2015'
p289
sI36
S'JAN 08, 2015'
p290
sI37
S'JAN 11, 2015'
p291
sI38
S'JAN 13, 2015'
p292
sI39
S'JAN 14, 2015'
p293
sI40
S'JAN 16, 2015'
p294
sI41
S'JAN 20, 2015'
p295
sI42
S'JAN 21, 2015'
p296
sI43
S'JAN 23, 2015'
p297
sI44
S'JAN 25, 2015'
p298
sI45
S'JAN 27, 2015'
p299
sI46
S'JAN 30, 2015'
p300
sI47
S'FEB 01, 2015'
p301
sI48
S'FEB 03, 2015'
p302
sI49
S'FEB 04, 2015'
p303
sI50
S'FEB 06, 2015'
p304
sI51
S'FEB 09, 2015'
p305
sI52
S'FEB 11, 2015'
p306
sI53
S'FEB 20, 2015'
p307
sI54
S'FEB 21, 2015'
p308
sI55
S'FEB 23, 2015'
p309
sI56
S'FEB 25, 2015'
p310
sI57
S'FEB 27, 2015'
p311
sI58
S'FEB 28, 2015'
p312
sI59
S'MAR 02, 2015'
p313
sI60
S'MAR 04, 2015'
p314
sI61
S'MAR 06, 2015'
p315
sI62
S'MAR 07, 2015'
p316
sI63
S'MAR 09, 2015'
p317
sI64
S'MAR 11, 2015'
p318
sI65
S'MAR 13, 2015'
p319
sI66
S'MAR 16, 2015'
p320
sI67
S'MAR 18, 2015'
p321
sI68
S'MAR 20, 2015'
p322
sI69
S'MAR 22, 2015'
p323
sI70
S'MAR 24, 2015'
p324
sI71
S'MAR 25, 2015'
p325
sI72
S'MAR 27, 2015'
p326
sI73
S'MAR 29, 2015'
p327
sI74
S'MAR 31, 2015'
p328
sI75
S'APR 02, 2015'
p329
sI76
S'APR 04, 2015'
p330
sI77
S'APR 05, 2015'
p331
sI78
S'APR 07, 2015'
p332
sI79
S'APR 09, 2015'
p333
sI80
S'APR 11, 2015'
p334
sI81
S'APR 13, 2015'
p335
sI82
S'APR 15, 2015'
p336
ssS'ATL'
p337
(dp338
I1
S'OCT 29, 2014'
p339
sI2
S'NOV 01, 2014'
p340
sI3
S'NOV 05, 2014'
p341
sI4
S'NOV 07, 2014'
p342
sI5
S'NOV 08, 2014'
p343
sI6
S'NOV 10, 2014'
p344
sI7
S'NOV 12, 2014'
p345
sI8
S'NOV 14, 2014'
p346
sI9
S'NOV 15, 2014'
p347
sI10
S'NOV 18, 2014'
p348
sI11
S'NOV 21, 2014'
p349
sI12
S'NOV 25, 2014'
p350
sI13
S'NOV 26, 2014'
p351
sI14
S'NOV 28, 2014'
p352
sI15
S'NOV 29, 2014'
p353
sI16
S'DEC 02, 2014'
p354
sI17
S'DEC 03, 2014'
p355
sI18
S'DEC 05, 2014'
p356
sI19
S'DEC 07, 2014'
p357
sI20
S'DEC 08, 2014'
p358
sI21
S'DEC 10, 2014'
p359
sI22
S'DEC 12, 2014'
p360
sI23
S'DEC 13, 2014'
p361
sI24
S'DEC 15, 2014'
p362
sI25
S'DEC 17, 2014'
p363
sI26
S'DEC 20, 2014'
p364
sI27
S'DEC 22, 2014'
p365
sI28
S'DEC 23, 2014'
p366
sI29
S'DEC 26, 2014'
p367
sI30
S'DEC 27, 2014'
p368
sI31
S'DEC 30, 2014'
p369
sI32
S'JAN 02, 2015'
p370
sI33
S'JAN 03, 2015'
p371
sI34
S'JAN 05, 2015'
p372
sI35
S'JAN 07, 2015'
p373
sI36
S'JAN 09, 2015'
p374
sI37
S'JAN 11, 2015'
p375
sI38
S'JAN 13, 2015'
p376
sI39
S'JAN 14, 2015'
p377
sI40
S'JAN 16, 2015'
p378
sI41
S'JAN 17, 2015'
p379
sI42
S'JAN 19, 2015'
p380
sI43
S'JAN 21, 2015'
p381
sI44
S'JAN 23, 2015'
p382
sI45
S'JAN 25, 2015'
p383
sI46
S'JAN 28, 2015'
p384
sI47
S'JAN 30, 2015'
p385
sI48
S'JAN 31, 2015'
p386
sI49
S'FEB 02, 2015'
p387
sI50
S'FEB 04, 2015'
p388
sI51
S'FEB 06, 2015'
p389
sI52
S'FEB 08, 2015'
p390
sI53
S'FEB 09, 2015'
p391
sI54
S'FEB 11, 2015'
p392
sI55
S'FEB 20, 2015'
p393
sI56
S'FEB 22, 2015'
p394
sI57
S'FEB 25, 2015'
p395
sI58
S'FEB 27, 2015'
p396
sI59
S'FEB 28, 2015'
p397
sI60
S'MAR 03, 2015'
p398
sI61
S'MAR 06, 2015'
p399
sI62
S'MAR 07, 2015'
p400
sI63
S'MAR 09, 2015'
p401
sI64
S'MAR 11, 2015'
p402
sI65
S'MAR 13, 2015'
p403
sI66
S'MAR 15, 2015'
p404
sI67
S'MAR 16, 2015'
p405
sI68
S'MAR 18, 2015'
p406
sI69
S'MAR 20, 2015'
p407
sI70
S'MAR 22, 2015'
p408
sI71
S'MAR 25, 2015'
p409
sI72
S'MAR 27, 2015'
p410
sI73
S'MAR 28, 2015'
p411
sI74
S'MAR 30, 2015'
p412
sI75
S'MAR 31, 2015'
p413
sI76
S'APR 04, 2015'
p414
sI77
S'APR 07, 2015'
p415
sI78
S'APR 08, 2015'
p416
sI79
S'APR 10, 2015'
p417
sI80
S'APR 12, 2015'
p418
sI81
S'APR 13, 2015'
p419
sI82
S'APR 15, 2015'
p420
ssS'BOS'
p421
(dp422
I1
S'OCT 29, 2014'
p423
sI2
S'NOV 01, 2014'
p424
sI3
S'NOV 03, 2014'
p425
sI4
S'NOV 05, 2014'
p426
sI5
S'NOV 07, 2014'
p427
sI6
S'NOV 08, 2014'
p428
sI7
S'NOV 12, 2014'
p429
sI8
S'NOV 14, 2014'
p430
sI9
S'NOV 17, 2014'
p431
sI10
S'NOV 19, 2014'
p432
sI11
S'NOV 21, 2014'
p433
sI12
S'NOV 23, 2014'
p434
sI13
S'NOV 28, 2014'
p435
sI14
S'NOV 30, 2014'
p436
sI15
S'DEC 02, 2014'
p437
sI16
S'DEC 03, 2014'
p438
sI17
S'DEC 05, 2014'
p439
sI18
S'DEC 07, 2014'
p440
sI19
S'DEC 08, 2014'
p441
sI20
S'DEC 10, 2014'
p442
sI21
S'DEC 12, 2014'
p443
sI22
S'DEC 15, 2014'
p444
sI23
S'DEC 17, 2014'
p445
sI24
S'DEC 19, 2014'
p446
sI25
S'DEC 21, 2014'
p447
sI26
S'DEC 23, 2014'
p448
sI27
S'DEC 26, 2014'
p449
sI28
S'DEC 27, 2014'
p450
sI29
S'DEC 31, 2014'
p451
sI30
S'JAN 02, 2015'
p452
sI31
S'JAN 03, 2015'
p453
sI32
S'JAN 05, 2015'
p454
sI33
S'JAN 07, 2015'
p455
sI34
S'JAN 09, 2015'
p456
sI35
S'JAN 10, 2015'
p457
sI36
S'JAN 12, 2015'
p458
sI37
S'JAN 14, 2015'
p459
sI38
S'JAN 16, 2015'
p460
sI39
S'JAN 19, 2015'
p461
sI40
S'JAN 22, 2015'
p462
sI41
S'JAN 23, 2015'
p463
sI42
S'JAN 25, 2015'
p464
sI43
S'JAN 26, 2015'
p465
sI44
S'JAN 28, 2015'
p466
sI45
S'JAN 30, 2015'
p467
sI46
S'FEB 01, 2015'
p468
sI47
S'FEB 03, 2015'
p469
sI48
S'FEB 04, 2015'
p470
sI49
S'FEB 06, 2015'
p471
sI50
S'FEB 07, 2015'
p472
sI51
S'FEB 11, 2015'
p473
sI52
S'FEB 20, 2015'
p474
sI53
S'FEB 22, 2015'
p475
sI54
S'FEB 23, 2015'
p476
sI55
S'FEB 25, 2015'
p477
sI56
S'FEB 27, 2015'
p478
sI57
S'MAR 01, 2015'
p479
sI58
S'MAR 03, 2015'
p480
sI59
S'MAR 04, 2015'
p481
sI60
S'MAR 06, 2015'
p482
sI61
S'MAR 08, 2015'
p483
sI62
S'MAR 09, 2015'
p484
sI63
S'MAR 11, 2015'
p485
sI64
S'MAR 13, 2015'
p486
sI65
S'MAR 14, 2015'
p487
sI66
S'MAR 16, 2015'
p488
sI67
S'MAR 18, 2015'
p489
sI68
S'MAR 20, 2015'
p490
sI69
S'MAR 22, 2015'
p491
sI70
S'MAR 23, 2015'
p492
sI71
S'MAR 25, 2015'
p493
sI72
S'MAR 27, 2015'
p494
sI73
S'MAR 29, 2015'
p495
sI74
S'MAR 30, 2015'
p496
sI75
S'APR 01, 2015'
p497
sI76
S'APR 03, 2015'
p498
sI77
S'APR 04, 2015'
p499
sI78
S'APR 08, 2015'
p500
sI79
S'APR 10, 2015'
p501
sI80
S'APR 12, 2015'
p502
sI81
S'APR 14, 2015'
p503
sI82
S'APR 15, 2015'
p504
ssS'DET'
p505
(dp506
I1
S'OCT 29, 2014'
p507
sI2
S'OCT 30, 2014'
p508
sI3
S'NOV 01, 2014'
p509
sI4
S'NOV 05, 2014'
p510
sI5
S'NOV 07, 2014'
p511
sI6
S'NOV 09, 2014'
p512
sI7
S'NOV 10, 2014'
p513
sI8
S'NOV 12, 2014'
p514
sI9
S'NOV 14, 2014'
p515
sI10
S'NOV 15, 2014'
p516
sI11
S'NOV 17, 2014'
p517
sI12
S'NOV 19, 2014'
p518
sI13
S'NOV 21, 2014'
p519
sI14
S'NOV 25, 2014'
p520
sI15
S'NOV 26, 2014'
p521
sI16
S'NOV 28, 2014'
p522
sI17
S'NOV 30, 2014'
p523
sI18
S'DEC 02, 2014'
p524
sI19
S'DEC 03, 2014'
p525
sI20
S'DEC 06, 2014'
p526
sI21
S'DEC 07, 2014'
p527
sI22
S'DEC 09, 2014'
p528
sI23
S'DEC 12, 2014'
p529
sI24
S'DEC 13, 2014'
p530
sI25
S'DEC 15, 2014'
p531
sI26
S'DEC 17, 2014'
p532
sI27
S'DEC 19, 2014'
p533
sI28
S'DEC 21, 2014'
p534
sI29
S'DEC 26, 2014'
p535
sI30
S'DEC 28, 2014'
p536
sI31
S'DEC 30, 2014'
p537
sI32
S'JAN 02, 2015'
p538
sI33
S'JAN 04, 2015'
p539
sI34
S'JAN 06, 2015'
p540
sI35
S'JAN 07, 2015'
p541
sI36
S'JAN 09, 2015'
p542
sI37
S'JAN 10, 2015'
p543
sI38
S'JAN 12, 2015'
p544
sI39
S'JAN 14, 2015'
p545
sI40
S'JAN 16, 2015'
p546
sI41
S'JAN 17, 2015'
p547
sI42
S'JAN 19, 2015'
p548
sI43
S'JAN 21, 2015'
p549
sI44
S'JAN 24, 2015'
p550
sI45
S'JAN 25, 2015'
p551
sI46
S'JAN 27, 2015'
p552
sI47
S'JAN 28, 2015'
p553
sI48
S'JAN 31, 2015'
p554
sI49
S'FEB 03, 2015'
p555
sI50
S'FEB 04, 2015'
p556
sI51
S'FEB 06, 2015'
p557
sI52
S'FEB 08, 2015'
p558
sI53
S'FEB 10, 2015'
p559
sI54
S'FEB 11, 2015'
p560
sI55
S'FEB 20, 2015'
p561
sI56
S'FEB 22, 2015'
p562
sI57
S'FEB 24, 2015'
p563
sI58
S'FEB 27, 2015'
p564
sI59
S'FEB 28, 2015'
p565
sI60
S'MAR 04, 2015'
p566
sI61
S'MAR 06, 2015'
p567
sI62
S'MAR 08, 2015'
p568
sI63
S'MAR 10, 2015'
p569
sI64
S'MAR 11, 2015'
p570
sI65
S'MAR 13, 2015'
p571
sI66
S'MAR 14, 2015'
p572
sI67
S'MAR 17, 2015'
p573
sI68
S'MAR 18, 2015'
p574
sI69
S'MAR 21, 2015'
p575
sI70
S'MAR 22, 2015'
p576
sI71
S'MAR 24, 2015'
p577
sI72
S'MAR 27, 2015'
p578
sI73
S'MAR 29, 2015'
p579
sI74
S'MAR 31, 2015'
p580
sI75
S'APR 01, 2015'
p581
sI76
S'APR 03, 2015'
p582
sI77
S'APR 04, 2015'
p583
sI78
S'APR 08, 2015'
p584
sI79
S'APR 10, 2015'
p585
sI80
S'APR 12, 2015'
p586
sI81
S'APR 13, 2015'
p587
sI82
S'APR 15, 2015'
p588
ssS'NYK'
p589
(dp590
I1
S'OCT 29, 2014'
p591
sI2
S'OCT 30, 2014'
p592
sI3
S'NOV 02, 2014'
p593
sI4
S'NOV 04, 2014'
p594
sI5
S'NOV 05, 2014'
p595
sI6
S'NOV 07, 2014'
p596
sI7
S'NOV 08, 2014'
p597
sI8
S'NOV 10, 2014'
p598
sI9
S'NOV 12, 2014'
p599
sI10
S'NOV 14, 2014'
p600
sI11
S'NOV 16, 2014'
p601
sI12
S'NOV 18, 2014'
p602
sI13
S'NOV 19, 2014'
p603
sI14
S'NOV 22, 2014'
p604
sI15
S'NOV 24, 2014'
p605
sI16
S'NOV 26, 2014'
p606
sI17
S'NOV 28, 2014'
p607
sI18
S'NOV 30, 2014'
p608
sI19
S'DEC 02, 2014'
p609
sI20
S'DEC 04, 2014'
p610
sI21
S'DEC 05, 2014'
p611
sI22
S'DEC 07, 2014'
p612
sI23
S'DEC 09, 2014'
p613
sI24
S'DEC 10, 2014'
p614
sI25
S'DEC 12, 2014'
p615
sI26
S'DEC 14, 2014'
p616
sI27
S'DEC 16, 2014'
p617
sI28
S'DEC 18, 2014'
p618
sI29
S'DEC 20, 2014'
p619
sI30
S'DEC 21, 2014'
p620
sI31
S'DEC 25, 2014'
p621
sI32
S'DEC 27, 2014'
p622
sI33
S'DEC 28, 2014'
p623
sI34
S'DEC 31, 2014'
p624
sI35
S'JAN 02, 2015'
p625
sI36
S'JAN 04, 2015'
p626
sI37
S'JAN 05, 2015'
p627
sI38
S'JAN 07, 2015'
p628
sI39
S'JAN 08, 2015'
p629
sI40
S'JAN 10, 2015'
p630
sI41
S'JAN 15, 2015'
p631
sI42
S'JAN 19, 2015'
p632
sI43
S'JAN 21, 2015'
p633
sI44
S'JAN 23, 2015'
p634
sI45
S'JAN 24, 2015'
p635
sI46
S'JAN 28, 2015'
p636
sI47
S'JAN 29, 2015'
p637
sI48
S'FEB 01, 2015'
p638
sI49
S'FEB 03, 2015'
p639
sI50
S'FEB 06, 2015'
p640
sI51
S'FEB 07, 2015'
p641
sI52
S'FEB 09, 2015'
p642
sI53
S'FEB 11, 2015'
p643
sI54
S'FEB 20, 2015'
p644
sI55
S'FEB 22, 2015'
p645
sI56
S'FEB 25, 2015'
p646
sI57
S'FEB 27, 2015'
p647
sI58
S'FEB 28, 2015'
p648
sI59
S'MAR 03, 2015'
p649
sI60
S'MAR 04, 2015'
p650
sI61
S'MAR 07, 2015'
p651
sI62
S'MAR 09, 2015'
p652
sI63
S'MAR 10, 2015'
p653
sI64
S'MAR 12, 2015'
p654
sI65
S'MAR 14, 2015'
p655
sI66
S'MAR 15, 2015'
p656
sI67
S'MAR 17, 2015'
p657
sI68
S'MAR 19, 2015'
p658
sI69
S'MAR 20, 2015'
p659
sI70
S'MAR 22, 2015'
p660
sI71
S'MAR 23, 2015'
p661
sI72
S'MAR 25, 2015'
p662
sI73
S'MAR 27, 2015'
p663
sI74
S'MAR 28, 2015'
p664
sI75
S'APR 01, 2015'
p665
sI76
S'APR 03, 2015'
p666
sI77
S'APR 05, 2015'
p667
sI78
S'APR 08, 2015'
p668
sI79
S'APR 10, 2015'
p669
sI80
S'APR 11, 2015'
p670
sI81
S'APR 13, 2015'
p671
sI82
S'APR 15, 2015'
p672
ssS'DEN'
p673
(dp674
I1
S'OCT 29, 2014'
p675
sI2
S'NOV 01, 2014'
p676
sI3
S'NOV 03, 2014'
p677
sI4
S'NOV 05, 2014'
p678
sI5
S'NOV 07, 2014'
p679
sI6
S'NOV 09, 2014'
p680
sI7
S'NOV 12, 2014'
p681
sI8
S'NOV 14, 2014'
p682
sI9
S'NOV 16, 2014'
p683
sI10
S'NOV 17, 2014'
p684
sI11
S'NOV 19, 2014'
p685
sI12
S'NOV 21, 2014'
p686
sI13
S'NOV 23, 2014'
p687
sI14
S'NOV 25, 2014'
p688
sI15
S'NOV 26, 2014'
p689
sI16
S'NOV 28, 2014'
p690
sI17
S'DEC 01, 2014'
p691
sI18
S'DEC 02, 2014'
p692
sI19
S'DEC 05, 2014'
p693
sI20
S'DEC 07, 2014'
p694
sI21
S'DEC 08, 2014'
p695
sI22
S'DEC 10, 2014'
p696
sI23
S'DEC 13, 2014'
p697
sI24
S'DEC 14, 2014'
p698
sI25
S'DEC 17, 2014'
p699
sI26
S'DEC 19, 2014'
p700
sI27
S'DEC 20, 2014'
p701
sI28
S'DEC 22, 2014'
p702
sI29
S'DEC 23, 2014'
p703
sI30
S'DEC 26, 2014'
p704
sI31
S'DEC 28, 2014'
p705
sI32
S'DEC 30, 2014'
p706
sI33
S'JAN 01, 2015'
p707
sI34
S'JAN 03, 2015'
p708
sI35
S'JAN 05, 2015'
p709
sI36
S'JAN 07, 2015'
p710
sI37
S'JAN 09, 2015'
p711
sI38
S'JAN 14, 2015'
p712
sI39
S'JAN 16, 2015'
p713
sI40
S'JAN 17, 2015'
p714
sI41
S'JAN 19, 2015'
p715
sI42
S'JAN 20, 2015'
p716
sI43
S'JAN 23, 2015'
p717
sI44
S'JAN 25, 2015'
p718
sI45
S'JAN 26, 2015'
p719
sI46
S'JAN 28, 2015'
p720
sI47
S'JAN 29, 2015'
p721
sI48
S'JAN 31, 2015'
p722
sI49
S'FEB 03, 2015'
p723
sI50
S'FEB 04, 2015'
p724
sI51
S'FEB 06, 2015'
p725
sI52
S'FEB 09, 2015'
p726
sI53
S'FEB 10, 2015'
p727
sI54
S'FEB 20, 2015'
p728
sI55
S'FEB 22, 2015'
p729
sI56
S'FEB 23, 2015'
p730
sI57
S'FEB 25, 2015'
p731
sI58
S'FEB 27, 2015'
p732
sI59
S'MAR 01, 2015'
p733
sI60
S'MAR 03, 2015'
p734
sI61
S'MAR 04, 2015'
p735
sI62
S'MAR 06, 2015'
p736
sI63
S'MAR 07, 2015'
p737
sI64
S'MAR 09, 2015'
p738
sI65
S'MAR 11, 2015'
p739
sI66
S'MAR 13, 2015'
p740
sI67
S'MAR 15, 2015'
p741
sI68
S'MAR 16, 2015'
p742
sI69
S'MAR 19, 2015'
p743
sI70
S'MAR 20, 2015'
p744
sI71
S'MAR 22, 2015'
p745
sI72
S'MAR 25, 2015'
p746
sI73
S'MAR 27, 2015'
p747
sI74
S'MAR 28, 2015'
p748
sI75
S'APR 01, 2015'
p749
sI76
S'APR 03, 2015'
p750
sI77
S'APR 04, 2015'
p751
sI78
S'APR 08, 2015'
p752
sI79
S'APR 10, 2015'
p753
sI80
S'APR 12, 2015'
p754
sI81
S'APR 13, 2015'
p755
sI82
S'APR 15, 2015'
p756
ssS'DAL'
p757
(dp758
I1
S'OCT 28, 2014'
p759
sI2
S'OCT 30, 2014'
p760
sI3
S'NOV 01, 2014'
p761
sI4
S'NOV 03, 2014'
p762
sI5
S'NOV 06, 2014'
p763
sI6
S'NOV 07, 2014'
p764
sI7
S'NOV 09, 2014'
p765
sI8
S'NOV 11, 2014'
p766
sI9
S'NOV 13, 2014'
p767
sI10
S'NOV 15, 2014'
p768
sI11
S'NOV 17, 2014'
p769
sI12
S'NOV 19, 2014'
p770
sI13
S'NOV 21, 2014'
p771
sI14
S'NOV 22, 2014'
p772
sI15
S'NOV 24, 2014'
p773
sI16
S'NOV 26, 2014'
p774
sI17
S'NOV 28, 2014'
p775
sI18
S'NOV 29, 2014'
p776
sI19
S'DEC 02, 2014'
p777
sI20
S'DEC 03, 2014'
p778
sI21
S'DEC 05, 2014'
p779
sI22
S'DEC 07, 2014'
p780
sI23
S'DEC 09, 2014'
p781
sI24
S'DEC 10, 2014'
p782
sI25
S'DEC 13, 2014'
p783
sI26
S'DEC 16, 2014'
p784
sI27
S'DEC 17, 2014'
p785
sI28
S'DEC 20, 2014'
p786
sI29
S'DEC 22, 2014'
p787
sI30
S'DEC 23, 2014'
p788
sI31
S'DEC 26, 2014'
p789
sI32
S'DEC 28, 2014'
p790
sI33
S'DEC 30, 2014'
p791
sI34
S'JAN 02, 2015'
p792
sI35
S'JAN 04, 2015'
p793
sI36
S'JAN 05, 2015'
p794
sI37
S'JAN 07, 2015'
p795
sI38
S'JAN 10, 2015'
p796
sI39
S'JAN 13, 2015'
p797
sI40
S'JAN 14, 2015'
p798
sI41
S'JAN 16, 2015'
p799
sI42
S'JAN 19, 2015'
p800
sI43
S'JAN 21, 2015'
p801
sI44
S'JAN 23, 2015'
p802
sI45
S'JAN 25, 2015'
p803
sI46
S'JAN 27, 2015'
p804
sI47
S'JAN 28, 2015'
p805
sI48
S'JAN 30, 2015'
p806
sI49
S'JAN 31, 2015'
p807
sI50
S'FEB 02, 2015'
p808
sI51
S'FEB 04, 2015'
p809
sI52
S'FEB 05, 2015'
p810
sI53
S'FEB 07, 2015'
p811
sI54
S'FEB 09, 2015'
p812
sI55
S'FEB 11, 2015'
p813
sI56
S'FEB 19, 2015'
p814
sI57
S'FEB 20, 2015'
p815
sI58
S'FEB 22, 2015'
p816
sI59
S'FEB 24, 2015'
p817
sI60
S'FEB 25, 2015'
p818
sI61
S'FEB 28, 2015'
p819
sI62
S'MAR 02, 2015'
p820
sI63
S'MAR 05, 2015'
p821
sI64
S'MAR 06, 2015'
p822
sI65
S'MAR 08, 2015'
p823
sI66
S'MAR 10, 2015'
p824
sI67
S'MAR 13, 2015'
p825
sI68
S'MAR 16, 2015'
p826
sI69
S'MAR 18, 2015'
p827
sI70
S'MAR 20, 2015'
p828
sI71
S'MAR 22, 2015'
p829
sI72
S'MAR 24, 2015'
p830
sI73
S'MAR 27, 2015'
p831
sI74
S'MAR 29, 2015'
p832
sI75
S'APR 01, 2015'
p833
sI76
S'APR 02, 2015'
p834
sI77
S'APR 04, 2015'
p835
sI78
S'APR 08, 2015'
p836
sI79
S'APR 10, 2015'
p837
sI80
S'APR 12, 2015'
p838
sI81
S'APR 13, 2015'
p839
sI82
S'APR 15, 2015'
p840
ssS'BKN'
p841
(dp842
I1
S'OCT 29, 2014'
p843
sI2
S'NOV 01, 2014'
p844
sI3
S'NOV 03, 2014'
p845
sI4
S'NOV 05, 2014'
p846
sI5
S'NOV 07, 2014'
p847
sI6
S'NOV 09, 2014'
p848
sI7
S'NOV 12, 2014'
p849
sI8
S'NOV 13, 2014'
p850
sI9
S'NOV 15, 2014'
p851
sI10
S'NOV 17, 2014'
p852
sI11
S'NOV 19, 2014'
p853
sI12
S'NOV 21, 2014'
p854
sI13
S'NOV 22, 2014'
p855
sI14
S'NOV 26, 2014'
p856
sI15
S'NOV 30, 2014'
p857
sI16
S'DEC 02, 2014'
p858
sI17
S'DEC 03, 2014'
p859
sI18
S'DEC 05, 2014'
p860
sI19
S'DEC 08, 2014'
p861
sI20
S'DEC 10, 2014'
p862
sI21
S'DEC 12, 2014'
p863
sI22
S'DEC 13, 2014'
p864
sI23
S'DEC 16, 2014'
p865
sI24
S'DEC 17, 2014'
p866
sI25
S'DEC 19, 2014'
p867
sI26
S'DEC 21, 2014'
p868
sI27
S'DEC 23, 2014'
p869
sI28
S'DEC 26, 2014'
p870
sI29
S'DEC 27, 2014'
p871
sI30
S'DEC 29, 2014'
p872
sI31
S'DEC 30, 2014'
p873
sI32
S'JAN 02, 2015'
p874
sI33
S'JAN 04, 2015'
p875
sI34
S'JAN 05, 2015'
p876
sI35
S'JAN 07, 2015'
p877
sI36
S'JAN 09, 2015'
p878
sI37
S'JAN 10, 2015'
p879
sI38
S'JAN 12, 2015'
p880
sI39
S'JAN 14, 2015'
p881
sI40
S'JAN 16, 2015'
p882
sI41
S'JAN 17, 2015'
p883
sI42
S'JAN 21, 2015'
p884
sI43
S'JAN 22, 2015'
p885
sI44
S'JAN 24, 2015'
p886
sI45
S'JAN 28, 2015'
p887
sI46
S'JAN 30, 2015'
p888
sI47
S'FEB 02, 2015'
p889
sI48
S'FEB 04, 2015'
p890
sI49
S'FEB 06, 2015'
p891
sI50
S'FEB 07, 2015'
p892
sI51
S'FEB 09, 2015'
p893
sI52
S'FEB 10, 2015'
p894
sI53
S'FEB 20, 2015'
p895
sI54
S'FEB 23, 2015'
p896
sI55
S'FEB 25, 2015'
p897
sI56
S'FEB 27, 2015'
p898
sI57
S'FEB 28, 2015'
p899
sI58
S'MAR 02, 2015'
p900
sI59
S'MAR 04, 2015'
p901
sI60
S'MAR 06, 2015'
p902
sI61
S'MAR 08, 2015'
p903
sI62
S'MAR 10, 2015'
p904
sI63
S'MAR 11, 2015'
p905
sI64
S'MAR 14, 2015'
p906
sI65
S'MAR 16, 2015'
p907
sI66
S'MAR 18, 2015'
p908
sI67
S'MAR 20, 2015'
p909
sI68
S'MAR 21, 2015'
p910
sI69
S'MAR 23, 2015'
p911
sI70
S'MAR 25, 2015'
p912
sI71
S'MAR 27, 2015'
p913
sI72
S'MAR 29, 2015'
p914
sI73
S'MAR 31, 2015'
p915
sI74
S'APR 01, 2015'
p916
sI75
S'APR 03, 2015'
p917
sI76
S'APR 04, 2015'
p918
sI77
S'APR 06, 2015'
p919
sI78
S'APR 08, 2015'
p920
sI79
S'APR 10, 2015'
p921
sI80
S'APR 12, 2015'
p922
sI81
S'APR 13, 2015'
p923
sI82
S'APR 15, 2015'
p924
ssS'POR'
p925
(dp926
I1
S'OCT 29, 2014'
p927
sI2
S'OCT 31, 2014'
p928
sI3
S'NOV 02, 2014'
p929
sI4
S'NOV 04, 2014'
p930
sI5
S'NOV 06, 2014'
p931
sI6
S'NOV 08, 2014'
p932
sI7
S'NOV 09, 2014'
p933
sI8
S'NOV 11, 2014'
p934
sI9
S'NOV 12, 2014'
p935
sI10
S'NOV 15, 2014'
p936
sI11
S'NOV 17, 2014'
p937
sI12
S'NOV 21, 2014'
p938
sI13
S'NOV 23, 2014'
p939
sI14
S'NOV 24, 2014'
p940
sI15
S'NOV 26, 2014'
p941
sI16
S'NOV 28, 2014'
p942
sI17
S'NOV 30, 2014'
p943
sI18
S'DEC 02, 2014'
p944
sI19
S'DEC 04, 2014'
p945
sI20
S'DEC 07, 2014'
p946
sI21
S'DEC 09, 2014'
p947
sI22
S'DEC 10, 2014'
p948
sI23
S'DEC 12, 2014'
p949
sI24
S'DEC 13, 2014'
p950
sI25
S'DEC 15, 2014'
p951
sI26
S'DEC 17, 2014'
p952
sI27
S'DEC 19, 2014'
p953
sI28
S'DEC 20, 2014'
p954
sI29
S'DEC 22, 2014'
p955
sI30
S'DEC 23, 2014'
p956
sI31
S'DEC 26, 2014'
p957
sI32
S'DEC 28, 2014'
p958
sI33
S'DEC 30, 2014'
p959
sI34
S'JAN 03, 2015'
p960
sI35
S'JAN 05, 2015'
p961
sI36
S'JAN 08, 2015'
p962
sI37
S'JAN 10, 2015'
p963
sI38
S'JAN 11, 2015'
p964
sI39
S'JAN 14, 2015'
p965
sI40
S'JAN 16, 2015'
p966
sI41
S'JAN 17, 2015'
p967
sI42
S'JAN 19, 2015'
p968
sI43
S'JAN 21, 2015'
p969
sI44
S'JAN 22, 2015'
p970
sI45
S'JAN 24, 2015'
p971
sI46
S'JAN 28, 2015'
p972
sI47
S'JAN 30, 2015'
p973
sI48
S'JAN 31, 2015'
p974
sI49
S'FEB 03, 2015'
p975
sI50
S'FEB 05, 2015'
p976
sI51
S'FEB 07, 2015'
p977
sI52
S'FEB 08, 2015'
p978
sI53
S'FEB 11, 2015'
p979
sI54
S'FEB 20, 2015'
p980
sI55
S'FEB 22, 2015'
p981
sI56
S'FEB 25, 2015'
p982
sI57
S'FEB 27, 2015'
p983
sI58
S'MAR 01, 2015'
p984
sI59
S'MAR 04, 2015'
p985
sI60
S'MAR 05, 2015'
p986
sI61
S'MAR 07, 2015'
p987
sI62
S'MAR 11, 2015'
p988
sI63
S'MAR 13, 2015'
p989
sI64
S'MAR 15, 2015'
p990
sI65
S'MAR 16, 2015'
p991
sI66
S'MAR 18, 2015'
p992
sI67
S'MAR 20, 2015'
p993
sI68
S'MAR 21, 2015'
p994
sI69
S'MAR 24, 2015'
p995
sI70
S'MAR 25, 2015'
p996
sI71
S'MAR 27, 2015'
p997
sI72
S'MAR 28, 2015'
p998
sI73
S'MAR 30, 2015'
p999
sI74
S'APR 01, 2015'
p1000
sI75
S'APR 03, 2015'
p1001
sI76
S'APR 04, 2015'
p1002
sI77
S'APR 06, 2015'
p1003
sI78
S'APR 08, 2015'
p1004
sI79
S'APR 09, 2015'
p1005
sI80
S'APR 11, 2015'
p1006
sI81
S'APR 13, 2015'
p1007
sI82
S'APR 15, 2015'
p1008
ssS'OKC'
p1009
(dp1010
I1
S'OCT 29, 2014'
p1011
sI2
S'OCT 30, 2014'
p1012
sI3
S'NOV 01, 2014'
p1013
sI4
S'NOV 03, 2014'
p1014
sI5
S'NOV 04, 2014'
p1015
sI6
S'NOV 07, 2014'
p1016
sI7
S'NOV 09, 2014'
p1017
sI8
S'NOV 11, 2014'
p1018
sI9
S'NOV 12, 2014'
p1019
sI10
S'NOV 14, 2014'
p1020
sI11
S'NOV 16, 2014'
p1021
sI12
S'NOV 18, 2014'
p1022
sI13
S'NOV 19, 2014'
p1023
sI14
S'NOV 21, 2014'
p1024
sI15
S'NOV 23, 2014'
p1025
sI16
S'NOV 26, 2014'
p1026
sI17
S'NOV 28, 2014'
p1027
sI18
S'DEC 02, 2014'
p1028
sI19
S'DEC 05, 2014'
p1029
sI20
S'DEC 07, 2014'
p1030
sI21
S'DEC 09, 2014'
p1031
sI22
S'DEC 11, 2014'
p1032
sI23
S'DEC 12, 2014'
p1033
sI24
S'DEC 14, 2014'
p1034
sI25
S'DEC 16, 2014'
p1035
sI26
S'DEC 18, 2014'
p1036
sI27
S'DEC 19, 2014'
p1037
sI28
S'DEC 21, 2014'
p1038
sI29
S'DEC 23, 2014'
p1039
sI30
S'DEC 25, 2014'
p1040
sI31
S'DEC 26, 2014'
p1041
sI32
S'DEC 28, 2014'
p1042
sI33
S'DEC 31, 2014'
p1043
sI34
S'JAN 02, 2015'
p1044
sI35
S'JAN 05, 2015'
p1045
sI36
S'JAN 07, 2015'
p1046
sI37
S'JAN 09, 2015'
p1047
sI38
S'JAN 15, 2015'
p1048
sI39
S'JAN 16, 2015'
p1049
sI40
S'JAN 18, 2015'
p1050
sI41
S'JAN 20, 2015'
p1051
sI42
S'JAN 21, 2015'
p1052
sI43
S'JAN 23, 2015'
p1053
sI44
S'JAN 25, 2015'
p1054
sI45
S'JAN 26, 2015'
p1055
sI46
S'JAN 28, 2015'
p1056
sI47
S'JAN 31, 2015'
p1057
sI48
S'FEB 02, 2015'
p1058
sI49
S'FEB 04, 2015'
p1059
sI50
S'FEB 06, 2015'
p1060
sI51
S'FEB 08, 2015'
p1061
sI52
S'FEB 09, 2015'
p1062
sI53
S'FEB 11, 2015'
p1063
sI54
S'FEB 19, 2015'
p1064
sI55
S'FEB 21, 2015'
p1065
sI56
S'FEB 22, 2015'
p1066
sI57
S'FEB 24, 2015'
p1067
sI58
S'FEB 26, 2015'
p1068
sI59
S'FEB 27, 2015'
p1069
sI60
S'MAR 01, 2015'
p1070
sI61
S'MAR 04, 2015'
p1071
sI62
S'MAR 05, 2015'
p1072
sI63
S'MAR 08, 2015'
p1073
sI64
S'MAR 11, 2015'
p1074
sI65
S'MAR 13, 2015'
p1075
sI66
S'MAR 15, 2015'
p1076
sI67
S'MAR 16, 2015'
p1077
sI68
S'MAR 18, 2015'
p1078
sI69
S'MAR 20, 2015'
p1079
sI70
S'MAR 22, 2015'
p1080
sI71
S'MAR 24, 2015'
p1081
sI72
S'MAR 25, 2015'
p1082
sI73
S'MAR 28, 2015'
p1083
sI74
S'MAR 29, 2015'
p1084
sI75
S'APR 01, 2015'
p1085
sI76
S'APR 03, 2015'
p1086
sI77
S'APR 05, 2015'
p1087
sI78
S'APR 07, 2015'
p1088
sI79
S'APR 10, 2015'
p1089
sI80
S'APR 12, 2015'
p1090
sI81
S'APR 13, 2015'
p1091
sI82
S'APR 15, 2015'
p1092
ssS'TOR'
p1093
(dp1094
I1
S'OCT 29, 2014'
p1095
sI2
S'NOV 01, 2014'
p1096
sI3
S'NOV 02, 2014'
p1097
sI4
S'NOV 04, 2014'
p1098
sI5
S'NOV 05, 2014'
p1099
sI6
S'NOV 07, 2014'
p1100
sI7
S'NOV 09, 2014'
p1101
sI8
S'NOV 11, 2014'
p1102
sI9
S'NOV 13, 2014'
p1103
sI10
S'NOV 15, 2014'
p1104
sI11
S'NOV 19, 2014'
p1105
sI12
S'NOV 21, 2014'
p1106
sI13
S'NOV 22, 2014'
p1107
sI14
S'NOV 24, 2014'
p1108
sI15
S'NOV 26, 2014'
p1109
sI16
S'NOV 28, 2014'
p1110
sI17
S'NOV 30, 2014'
p1111
sI18
S'DEC 02, 2014'
p1112
sI19
S'DEC 03, 2014'
p1113
sI20
S'DEC 05, 2014'
p1114
sI21
S'DEC 08, 2014'
p1115
sI22
S'DEC 09, 2014'
p1116
sI23
S'DEC 12, 2014'
p1117
sI24
S'DEC 14, 2014'
p1118
sI25
S'DEC 15, 2014'
p1119
sI26
S'DEC 17, 2014'
p1120
sI27
S'DEC 19, 2014'
p1121
sI28
S'DEC 21, 2014'
p1122
sI29
S'DEC 22, 2014'
p1123
sI30
S'DEC 27, 2014'
p1124
sI31
S'DEC 28, 2014'
p1125
sI32
S'DEC 30, 2014'
p1126
sI33
S'JAN 02, 2015'
p1127
sI34
S'JAN 04, 2015'
p1128
sI35
S'JAN 08, 2015'
p1129
sI36
S'JAN 10, 2015'
p1130
sI37
S'JAN 12, 2015'
p1131
sI38
S'JAN 14, 2015'
p1132
sI39
S'JAN 16, 2015'
p1133
sI40
S'JAN 18, 2015'
p1134
sI41
S'JAN 19, 2015'
p1135
sI42
S'JAN 21, 2015'
p1136
sI43
S'JAN 23, 2015'
p1137
sI44
S'JAN 25, 2015'
p1138
sI45
S'JAN 27, 2015'
p1139
sI46
S'JAN 28, 2015'
p1140
sI47
S'JAN 30, 2015'
p1141
sI48
S'JAN 31, 2015'
p1142
sI49
S'FEB 02, 2015'
p1143
sI50
S'FEB 04, 2015'
p1144
sI51
S'FEB 06, 2015'
p1145
sI52
S'FEB 08, 2015'
p1146
sI53
S'FEB 11, 2015'
p1147
sI54
S'FEB 20, 2015'
p1148
sI55
S'FEB 21, 2015'
p1149
sI56
S'FEB 23, 2015'
p1150
sI57
S'FEB 24, 2015'
p1151
sI58
S'FEB 27, 2015'
p1152
sI59
S'FEB 28, 2015'
p1153
sI60
S'MAR 02, 2015'
p1154
sI61
S'MAR 04, 2015'
p1155
sI62
S'MAR 06, 2015'
p1156
sI63
S'MAR 08, 2015'
p1157
sI64
S'MAR 10, 2015'
p1158
sI65
S'MAR 13, 2015'
p1159
sI66
S'MAR 15, 2015'
p1160
sI67
S'MAR 16, 2015'
p1161
sI68
S'MAR 18, 2015'
p1162
sI69
S'MAR 20, 2015'
p1163
sI70
S'MAR 22, 2015'
p1164
sI71
S'MAR 24, 2015'
p1165
sI72
S'MAR 25, 2015'
p1166
sI73
S'MAR 27, 2015'
p1167
sI74
S'MAR 30, 2015'
p1168
sI75
S'APR 01, 2015'
p1169
sI76
S'APR 03, 2015'
p1170
sI77
S'APR 04, 2015'
p1171
sI78
S'APR 08, 2015'
p1172
sI79
S'APR 10, 2015'
p1173
sI80
S'APR 11, 2015'
p1174
sI81
S'APR 14, 2015'
p1175
sI82
S'APR 15, 2015'
p1176
ssS'CHI'
p1177
(dp1178
I1
S'OCT 29, 2014'
p1179
sI2
S'OCT 31, 2014'
p1180
sI3
S'NOV 01, 2014'
p1181
sI4
S'NOV 04, 2014'
p1182
sI5
S'NOV 05, 2014'
p1183
sI6
S'NOV 07, 2014'
p1184
sI7
S'NOV 08, 2014'
p1185
sI8
S'NOV 10, 2014'
p1186
sI9
S'NOV 13, 2014'
p1187
sI10
S'NOV 15, 2014'
p1188
sI11
S'NOV 17, 2014'
p1189
sI12
S'NOV 20, 2014'
p1190
sI13
S'NOV 21, 2014'
p1191
sI14
S'NOV 24, 2014'
p1192
sI15
S'NOV 25, 2014'
p1193
sI16
S'NOV 28, 2014'
p1194
sI17
S'NOV 30, 2014'
p1195
sI18
S'DEC 02, 2014'
p1196
sI19
S'DEC 03, 2014'
p1197
sI20
S'DEC 06, 2014'
p1198
sI21
S'DEC 10, 2014'
p1199
sI22
S'DEC 12, 2014'
p1200
sI23
S'DEC 14, 2014'
p1201
sI24
S'DEC 15, 2014'
p1202
sI25
S'DEC 18, 2014'
p1203
sI26
S'DEC 19, 2014'
p1204
sI27
S'DEC 22, 2014'
p1205
sI28
S'DEC 23, 2014'
p1206
sI29
S'DEC 25, 2014'
p1207
sI30
S'DEC 27, 2014'
p1208
sI31
S'DEC 29, 2014'
p1209
sI32
S'DEC 30, 2014'
p1210
sI33
S'JAN 01, 2015'
p1211
sI34
S'JAN 03, 2015'
p1212
sI35
S'JAN 05, 2015'
p1213
sI36
S'JAN 07, 2015'
p1214
sI37
S'JAN 09, 2015'
p1215
sI38
S'JAN 10, 2015'
p1216
sI39
S'JAN 12, 2015'
p1217
sI40
S'JAN 14, 2015'
p1218
sI41
S'JAN 16, 2015'
p1219
sI42
S'JAN 17, 2015'
p1220
sI43
S'JAN 19, 2015'
p1221
sI44
S'JAN 22, 2015'
p1222
sI45
S'JAN 23, 2015'
p1223
sI46
S'JAN 25, 2015'
p1224
sI47
S'JAN 27, 2015'
p1225
sI48
S'JAN 29, 2015'
p1226
sI49
S'JAN 30, 2015'
p1227
sI50
S'FEB 04, 2015'
p1228
sI51
S'FEB 07, 2015'
p1229
sI52
S'FEB 08, 2015'
p1230
sI53
S'FEB 10, 2015'
p1231
sI54
S'FEB 12, 2015'
p1232
sI55
S'FEB 20, 2015'
p1233
sI56
S'FEB 21, 2015'
p1234
sI57
S'FEB 23, 2015'
p1235
sI58
S'FEB 25, 2015'
p1236
sI59
S'FEB 27, 2015'
p1237
sI60
S'MAR 01, 2015'
p1238
sI61
S'MAR 03, 2015'
p1239
sI62
S'MAR 05, 2015'
p1240
sI63
S'MAR 06, 2015'
p1241
sI64
S'MAR 08, 2015'
p1242
sI65
S'MAR 09, 2015'
p1243
sI66
S'MAR 11, 2015'
p1244
sI67
S'MAR 13, 2015'
p1245
sI68
S'MAR 15, 2015'
p1246
sI69
S'MAR 18, 2015'
p1247
sI70
S'MAR 20, 2015'
p1248
sI71
S'MAR 21, 2015'
p1249
sI72
S'MAR 23, 2015'
p1250
sI73
S'MAR 25, 2015'
p1251
sI74
S'MAR 28, 2015'
p1252
sI75
S'APR 01, 2015'
p1253
sI76
S'APR 03, 2015'
p1254
sI77
S'APR 05, 2015'
p1255
sI78
S'APR 08, 2015'
p1256
sI79
S'APR 09, 2015'
p1257
sI80
S'APR 11, 2015'
p1258
sI81
S'APR 13, 2015'
p1259
sI82
S'APR 15, 2015'
p1260
ssS'SAS'
p1261
(dp1262
I1
S'OCT 28, 2014'
p1263
sI2
S'OCT 31, 2014'
p1264
sI3
S'NOV 05, 2014'
p1265
sI4
S'NOV 06, 2014'
p1266
sI5
S'NOV 08, 2014'
p1267
sI6
S'NOV 10, 2014'
p1268
sI7
S'NOV 11, 2014'
p1269
sI8
S'NOV 14, 2014'
p1270
sI9
S'NOV 15, 2014'
p1271
sI10
S'NOV 17, 2014'
p1272
sI11
S'NOV 19, 2014'
p1273
sI12
S'NOV 21, 2014'
p1274
sI13
S'NOV 22, 2014'
p1275
sI14
S'NOV 26, 2014'
p1276
sI15
S'NOV 28, 2014'
p1277
sI16
S'NOV 30, 2014'
p1278
sI17
S'DEC 01, 2014'
p1279
sI18
S'DEC 03, 2014'
p1280
sI19
S'DEC 05, 2014'
p1281
sI20
S'DEC 06, 2014'
p1282
sI21
S'DEC 09, 2014'
p1283
sI22
S'DEC 10, 2014'
p1284
sI23
S'DEC 12, 2014'
p1285
sI24
S'DEC 14, 2014'
p1286
sI25
S'DEC 15, 2014'
p1287
sI26
S'DEC 17, 2014'
p1288
sI27
S'DEC 19, 2014'
p1289
sI28
S'DEC 20, 2014'
p1290
sI29
S'DEC 22, 2014'
p1291
sI30
S'DEC 25, 2014'
p1292
sI31
S'DEC 26, 2014'
p1293
sI32
S'DEC 28, 2014'
p1294
sI33
S'DEC 30, 2014'
p1295
sI34
S'DEC 31, 2014'
p1296
sI35
S'JAN 03, 2015'
p1297
sI36
S'JAN 06, 2015'
p1298
sI37
S'JAN 09, 2015'
p1299
sI38
S'JAN 10, 2015'
p1300
sI39
S'JAN 13, 2015'
p1301
sI40
S'JAN 14, 2015'
p1302
sI41
S'JAN 16, 2015'
p1303
sI42
S'JAN 18, 2015'
p1304
sI43
S'JAN 20, 2015'
p1305
sI44
S'JAN 22, 2015'
p1306
sI45
S'JAN 23, 2015'
p1307
sI46
S'JAN 25, 2015'
p1308
sI47
S'JAN 28, 2015'
p1309
sI48
S'JAN 31, 2015'
p1310
sI49
S'FEB 04, 2015'
p1311
sI50
S'FEB 06, 2015'
p1312
sI51
S'FEB 08, 2015'
p1313
sI52
S'FEB 09, 2015'
p1314
sI53
S'FEB 11, 2015'
p1315
sI54
S'FEB 19, 2015'
p1316
sI55
S'FEB 20, 2015'
p1317
sI56
S'FEB 23, 2015'
p1318
sI57
S'FEB 25, 2015'
p1319
sI58
S'FEB 27, 2015'
p1320
sI59
S'FEB 28, 2015'
p1321
sI60
S'MAR 04, 2015'
p1322
sI61
S'MAR 06, 2015'
p1323
sI62
S'MAR 08, 2015'
p1324
sI63
S'MAR 10, 2015'
p1325
sI64
S'MAR 12, 2015'
p1326
sI65
S'MAR 15, 2015'
p1327
sI66
S'MAR 17, 2015'
p1328
sI67
S'MAR 18, 2015'
p1329
sI68
S'MAR 20, 2015'
p1330
sI69
S'MAR 22, 2015'
p1331
sI70
S'MAR 24, 2015'
p1332
sI71
S'MAR 25, 2015'
p1333
sI72
S'MAR 27, 2015'
p1334
sI73
S'MAR 29, 2015'
p1335
sI74
S'MAR 31, 2015'
p1336
sI75
S'APR 01, 2015'
p1337
sI76
S'APR 03, 2015'
p1338
sI77
S'APR 05, 2015'
p1339
sI78
S'APR 07, 2015'
p1340
sI79
S'APR 08, 2015'
p1341
sI80
S'APR 10, 2015'
p1342
sI81
S'APR 12, 2015'
p1343
sI82
S'APR 15, 2015'
p1344
ssS'CHA'
p1345
(dp1346
I1
S'OCT 29, 2014'
p1347
sI2
S'NOV 01, 2014'
p1348
sI3
S'NOV 02, 2014'
p1349
sI4
S'NOV 04, 2014'
p1350
sI5
S'NOV 05, 2014'
p1351
sI6
S'NOV 07, 2014'
p1352
sI7
S'NOV 09, 2014'
p1353
sI8
S'NOV 11, 2014'
p1354
sI9
S'NOV 14, 2014'
p1355
sI10
S'NOV 15, 2014'
p1356
sI11
S'NOV 17, 2014'
p1357
sI12
S'NOV 19, 2014'
p1358
sI13
S'NOV 21, 2014'
p1359
sI14
S'NOV 23, 2014'
p1360
sI15
S'NOV 24, 2014'
p1361
sI16
S'NOV 26, 2014'
p1362
sI17
S'NOV 28, 2014'
p1363
sI18
S'NOV 29, 2014'
p1364
sI19
S'DEC 03, 2014'
p1365
sI20
S'DEC 05, 2014'
p1366
sI21
S'DEC 10, 2014'
p1367
sI22
S'DEC 12, 2014'
p1368
sI23
S'DEC 13, 2014'
p1369
sI24
S'DEC 15, 2014'
p1370
sI25
S'DEC 17, 2014'
p1371
sI26
S'DEC 19, 2014'
p1372
sI27
S'DEC 20, 2014'
p1373
sI28
S'DEC 22, 2014'
p1374
sI29
S'DEC 23, 2014'
p1375
sI30
S'DEC 26, 2014'
p1376
sI31
S'DEC 27, 2014'
p1377
sI32
S'DEC 29, 2014'
p1378
sI33
S'DEC 31, 2014'
p1379
sI34
S'JAN 02, 2015'
p1380
sI35
S'JAN 03, 2015'
p1381
sI36
S'JAN 05, 2015'
p1382
sI37
S'JAN 07, 2015'
p1383
sI38
S'JAN 08, 2015'
p1384
sI39
S'JAN 10, 2015'
p1385
sI40
S'JAN 14, 2015'
p1386
sI41
S'JAN 17, 2015'
p1387
sI42
S'JAN 19, 2015'
p1388
sI43
S'JAN 21, 2015'
p1389
sI44
S'JAN 23, 2015'
p1390
sI45
S'JAN 24, 2015'
p1391
sI46
S'JAN 28, 2015'
p1392
sI47
S'JAN 31, 2015'
p1393
sI48
S'FEB 02, 2015'
p1394
sI49
S'FEB 05, 2015'
p1395
sI50
S'FEB 07, 2015'
p1396
sI51
S'FEB 08, 2015'
p1397
sI52
S'FEB 10, 2015'
p1398
sI53
S'FEB 21, 2015'
p1399
sI54
S'FEB 22, 2015'
p1400
sI55
S'FEB 25, 2015'
p1401
sI56
S'FEB 27, 2015'
p1402
sI57
S'MAR 01, 2015'
p1403
sI58
S'MAR 03, 2015'
p1404
sI59
S'MAR 04, 2015'
p1405
sI60
S'MAR 06, 2015'
p1406
sI61
S'MAR 08, 2015'
p1407
sI62
S'MAR 09, 2015'
p1408
sI63
S'MAR 11, 2015'
p1409
sI64
S'MAR 13, 2015'
p1410
sI65
S'MAR 16, 2015'
p1411
sI66
S'MAR 17, 2015'
p1412
sI67
S'MAR 20, 2015'
p1413
sI68
S'MAR 22, 2015'
p1414
sI69
S'MAR 23, 2015'
p1415
sI70
S'MAR 25, 2015'
p1416
sI71
S'MAR 27, 2015'
p1417
sI72
S'MAR 28, 2015'
p1418
sI73
S'MAR 30, 2015'
p1419
sI74
S'APR 01, 2015'
p1420
sI75
S'APR 03, 2015'
p1421
sI76
S'APR 04, 2015'
p1422
sI77
S'APR 07, 2015'
p1423
sI78
S'APR 08, 2015'
p1424
sI79
S'APR 10, 2015'
p1425
sI80
S'APR 12, 2015'
p1426
sI81
S'APR 13, 2015'
p1427
sI82
S'APR 15, 2015'
p1428
ssS'UTA'
p1429
(dp1430
I1
S'OCT 29, 2014'
p1431
sI2
S'OCT 30, 2014'
p1432
sI3
S'NOV 01, 2014'
p1433
sI4
S'NOV 03, 2014'
p1434
sI5
S'NOV 05, 2014'
p1435
sI6
S'NOV 07, 2014'
p1436
sI7
S'NOV 09, 2014'
p1437
sI8
S'NOV 10, 2014'
p1438
sI9
S'NOV 12, 2014'
p1439
sI10
S'NOV 14, 2014'
p1440
sI11
S'NOV 15, 2014'
p1441
sI12
S'NOV 18, 2014'
p1442
sI13
S'NOV 21, 2014'
p1443
sI14
S'NOV 22, 2014'
p1444
sI15
S'NOV 24, 2014'
p1445
sI16
S'NOV 26, 2014'
p1446
sI17
S'NOV 29, 2014'
p1447
sI18
S'DEC 01, 2014'
p1448
sI19
S'DEC 03, 2014'
p1449
sI20
S'DEC 05, 2014'
p1450
sI21
S'DEC 08, 2014'
p1451
sI22
S'DEC 09, 2014'
p1452
sI23
S'DEC 12, 2014'
p1453
sI24
S'DEC 14, 2014'
p1454
sI25
S'DEC 16, 2014'
p1455
sI26
S'DEC 17, 2014'
p1456
sI27
S'DEC 19, 2014'
p1457
sI28
S'DEC 20, 2014'
p1458
sI29
S'DEC 22, 2014'
p1459
sI30
S'DEC 27, 2014'
p1460
sI31
S'DEC 29, 2014'
p1461
sI32
S'DEC 30, 2014'
p1462
sI33
S'JAN 02, 2015'
p1463
sI34
S'JAN 03, 2015'
p1464
sI35
S'JAN 05, 2015'
p1465
sI36
S'JAN 07, 2015'
p1466
sI37
S'JAN 09, 2015'
p1467
sI38
S'JAN 10, 2015'
p1468
sI39
S'JAN 13, 2015'
p1469
sI40
S'JAN 16, 2015'
p1470
sI41
S'JAN 18, 2015'
p1471
sI42
S'JAN 21, 2015'
p1472
sI43
S'JAN 22, 2015'
p1473
sI44
S'JAN 24, 2015'
p1474
sI45
S'JAN 26, 2015'
p1475
sI46
S'JAN 28, 2015'
p1476
sI47
S'JAN 30, 2015'
p1477
sI48
S'FEB 03, 2015'
p1478
sI49
S'FEB 04, 2015'
p1479
sI50
S'FEB 06, 2015'
p1480
sI51
S'FEB 07, 2015'
p1481
sI52
S'FEB 09, 2015'
p1482
sI53
S'FEB 11, 2015'
p1483
sI54
S'FEB 20, 2015'
p1484
sI55
S'FEB 23, 2015'
p1485
sI56
S'FEB 25, 2015'
p1486
sI57
S'FEB 27, 2015'
p1487
sI58
S'FEB 28, 2015'
p1488
sI59
S'MAR 03, 2015'
p1489
sI60
S'MAR 04, 2015'
p1490
sI61
S'MAR 06, 2015'
p1491
sI62
S'MAR 08, 2015'
p1492
sI63
S'MAR 10, 2015'
p1493
sI64
S'MAR 12, 2015'
p1494
sI65
S'MAR 14, 2015'
p1495
sI66
S'MAR 16, 2015'
p1496
sI67
S'MAR 18, 2015'
p1497
sI68
S'MAR 19, 2015'
p1498
sI69
S'MAR 21, 2015'
p1499
sI70
S'MAR 23, 2015'
p1500
sI71
S'MAR 25, 2015'
p1501
sI72
S'MAR 27, 2015'
p1502
sI73
S'MAR 28, 2015'
p1503
sI74
S'MAR 30, 2015'
p1504
sI75
S'APR 01, 2015'
p1505
sI76
S'APR 04, 2015'
p1506
sI77
S'APR 05, 2015'
p1507
sI78
S'APR 08, 2015'
p1508
sI79
S'APR 10, 2015'
p1509
sI80
S'APR 11, 2015'
p1510
sI81
S'APR 13, 2015'
p1511
sI82
S'APR 15, 2015'
p1512
ssS'CLE'
p1513
(dp1514
I1
S'OCT 30, 2014'
p1515
sI2
S'OCT 31, 2014'
p1516
sI3
S'NOV 04, 2014'
p1517
sI4
S'NOV 05, 2014'
p1518
sI5
S'NOV 07, 2014'
p1519
sI6
S'NOV 10, 2014'
p1520
sI7
S'NOV 14, 2014'
p1521
sI8
S'NOV 15, 2014'
p1522
sI9
S'NOV 17, 2014'
p1523
sI10
S'NOV 19, 2014'
p1524
sI11
S'NOV 21, 2014'
p1525
sI12
S'NOV 22, 2014'
p1526
sI13
S'NOV 24, 2014'
p1527
sI14
S'NOV 26, 2014'
p1528
sI15
S'NOV 29, 2014'
p1529
sI16
S'DEC 02, 2014'
p1530
sI17
S'DEC 04, 2014'
p1531
sI18
S'DEC 05, 2014'
p1532
sI19
S'DEC 08, 2014'
p1533
sI20
S'DEC 09, 2014'
p1534
sI21
S'DEC 11, 2014'
p1535
sI22
S'DEC 12, 2014'
p1536
sI23
S'DEC 15, 2014'
p1537
sI24
S'DEC 17, 2014'
p1538
sI25
S'DEC 19, 2014'
p1539
sI26
S'DEC 21, 2014'
p1540
sI27
S'DEC 23, 2014'
p1541
sI28
S'DEC 25, 2014'
p1542
sI29
S'DEC 26, 2014'
p1543
sI30
S'DEC 28, 2014'
p1544
sI31
S'DEC 30, 2014'
p1545
sI32
S'DEC 31, 2014'
p1546
sI33
S'JAN 02, 2015'
p1547
sI34
S'JAN 04, 2015'
p1548
sI35
S'JAN 05, 2015'
p1549
sI36
S'JAN 07, 2015'
p1550
sI37
S'JAN 09, 2015'
p1551
sI38
S'JAN 11, 2015'
p1552
sI39
S'JAN 13, 2015'
p1553
sI40
S'JAN 15, 2015'
p1554
sI41
S'JAN 16, 2015'
p1555
sI42
S'JAN 19, 2015'
p1556
sI43
S'JAN 21, 2015'
p1557
sI44
S'JAN 23, 2015'
p1558
sI45
S'JAN 25, 2015'
p1559
sI46
S'JAN 27, 2015'
p1560
sI47
S'JAN 28, 2015'
p1561
sI48
S'JAN 30, 2015'
p1562
sI49
S'JAN 31, 2015'
p1563
sI50
S'FEB 02, 2015'
p1564
sI51
S'FEB 05, 2015'
p1565
sI52
S'FEB 06, 2015'
p1566
sI53
S'FEB 08, 2015'
p1567
sI54
S'FEB 11, 2015'
p1568
sI55
S'FEB 12, 2015'
p1569
sI56
S'FEB 20, 2015'
p1570
sI57
S'FEB 22, 2015'
p1571
sI58
S'FEB 24, 2015'
p1572
sI59
S'FEB 26, 2015'
p1573
sI60
S'FEB 27, 2015'
p1574
sI61
S'MAR 01, 2015'
p1575
sI62
S'MAR 03, 2015'
p1576
sI63
S'MAR 04, 2015'
p1577
sI64
S'MAR 06, 2015'
p1578
sI65
S'MAR 07, 2015'
p1579
sI66
S'MAR 10, 2015'
p1580
sI67
S'MAR 12, 2015'
p1581
sI68
S'MAR 15, 2015'
p1582
sI69
S'MAR 16, 2015'
p1583
sI70
S'MAR 18, 2015'
p1584
sI71
S'MAR 20, 2015'
p1585
sI72
S'MAR 22, 2015'
p1586
sI73
S'MAR 25, 2015'
p1587
sI74
S'MAR 27, 2015'
p1588
sI75
S'MAR 29, 2015'
p1589
sI76
S'APR 02, 2015'
p1590
sI77
S'APR 05, 2015'
p1591
sI78
S'APR 08, 2015'
p1592
sI79
S'APR 10, 2015'
p1593
sI80
S'APR 12, 2015'
p1594
sI81
S'APR 13, 2015'
p1595
sI82
S'APR 15, 2015'
p1596
ssS'HOU'
p1597
(dp1598
I1
S'OCT 28, 2014'
p1599
sI2
S'OCT 29, 2014'
p1600
sI3
S'NOV 01, 2014'
p1601
sI4
S'NOV 03, 2014'
p1602
sI5
S'NOV 04, 2014'
p1603
sI6
S'NOV 06, 2014'
p1604
sI7
S'NOV 08, 2014'
p1605
sI8
S'NOV 12, 2014'
p1606
sI9
S'NOV 14, 2014'
p1607
sI10
S'NOV 16, 2014'
p1608
sI11
S'NOV 17, 2014'
p1609
sI12
S'NOV 19, 2014'
p1610
sI13
S'NOV 22, 2014'
p1611
sI14
S'NOV 24, 2014'
p1612
sI15
S'NOV 26, 2014'
p1613
sI16
S'NOV 28, 2014'
p1614
sI17
S'NOV 29, 2014'
p1615
sI18
S'DEC 03, 2014'
p1616
sI19
S'DEC 05, 2014'
p1617
sI20
S'DEC 06, 2014'
p1618
sI21
S'DEC 10, 2014'
p1619
sI22
S'DEC 11, 2014'
p1620
sI23
S'DEC 13, 2014'
p1621
sI24
S'DEC 17, 2014'
p1622
sI25
S'DEC 18, 2014'
p1623
sI26
S'DEC 20, 2014'
p1624
sI27
S'DEC 22, 2014'
p1625
sI28
S'DEC 26, 2014'
p1626
sI29
S'DEC 28, 2014'
p1627
sI30
S'DEC 29, 2014'
p1628
sI31
S'DEC 31, 2014'
p1629
sI32
S'JAN 02, 2015'
p1630
sI33
S'JAN 03, 2015'
p1631
sI34
S'JAN 05, 2015'
p1632
sI35
S'JAN 07, 2015'
p1633
sI36
S'JAN 08, 2015'
p1634
sI37
S'JAN 10, 2015'
p1635
sI38
S'JAN 12, 2015'
p1636
sI39
S'JAN 14, 2015'
p1637
sI40
S'JAN 15, 2015'
p1638
sI41
S'JAN 17, 2015'
p1639
sI42
S'JAN 19, 2015'
p1640
sI43
S'JAN 21, 2015'
p1641
sI44
S'JAN 23, 2015'
p1642
sI45
S'JAN 25, 2015'
p1643
sI46
S'JAN 28, 2015'
p1644
sI47
S'JAN 30, 2015'
p1645
sI48
S'JAN 31, 2015'
p1646
sI49
S'FEB 04, 2015'
p1647
sI50
S'FEB 06, 2015'
p1648
sI51
S'FEB 08, 2015'
p1649
sI52
S'FEB 10, 2015'
p1650
sI53
S'FEB 11, 2015'
p1651
sI54
S'FEB 20, 2015'
p1652
sI55
S'FEB 21, 2015'
p1653
sI56
S'FEB 23, 2015'
p1654
sI57
S'FEB 25, 2015'
p1655
sI58
S'FEB 27, 2015'
p1656
sI59
S'MAR 01, 2015'
p1657
sI60
S'MAR 03, 2015'
p1658
sI61
S'MAR 04, 2015'
p1659
sI62
S'MAR 06, 2015'
p1660
sI63
S'MAR 07, 2015'
p1661
sI64
S'MAR 11, 2015'
p1662
sI65
S'MAR 12, 2015'
p1663
sI66
S'MAR 15, 2015'
p1664
sI67
S'MAR 17, 2015'
p1665
sI68
S'MAR 19, 2015'
p1666
sI69
S'MAR 21, 2015'
p1667
sI70
S'MAR 23, 2015'
p1668
sI71
S'MAR 25, 2015'
p1669
sI72
S'MAR 27, 2015'
p1670
sI73
S'MAR 29, 2015'
p1671
sI74
S'MAR 30, 2015'
p1672
sI75
S'APR 01, 2015'
p1673
sI76
S'APR 02, 2015'
p1674
sI77
S'APR 05, 2015'
p1675
sI78
S'APR 08, 2015'
p1676
sI79
S'APR 10, 2015'
p1677
sI80
S'APR 12, 2015'
p1678
sI81
S'APR 13, 2015'
p1679
sI82
S'APR 15, 2015'
p1680
ssS'WAS'
p1681
(dp1682
I1
S'OCT 29, 2014'
p1683
sI2
S'OCT 30, 2014'
p1684
sI3
S'NOV 01, 2014'
p1685
sI4
S'NOV 04, 2014'
p1686
sI5
S'NOV 05, 2014'
p1687
sI6
S'NOV 07, 2014'
p1688
sI7
S'NOV 08, 2014'
p1689
sI8
S'NOV 12, 2014'
p1690
sI9
S'NOV 15, 2014'
p1691
sI10
S'NOV 19, 2014'
p1692
sI11
S'NOV 21, 2014'
p1693
sI12
S'NOV 22, 2014'
p1694
sI13
S'NOV 25, 2014'
p1695
sI14
S'NOV 26, 2014'
p1696
sI15
S'NOV 29, 2014'
p1697
sI16
S'DEC 01, 2014'
p1698
sI17
S'DEC 03, 2014'
p1699
sI18
S'DEC 05, 2014'
p1700
sI19
S'DEC 07, 2014'
p1701
sI20
S'DEC 08, 2014'
p1702
sI21
S'DEC 10, 2014'
p1703
sI22
S'DEC 12, 2014'
p1704
sI23
S'DEC 14, 2014'
p1705
sI24
S'DEC 16, 2014'
p1706
sI25
S'DEC 19, 2014'
p1707
sI26
S'DEC 21, 2014'
p1708
sI27
S'DEC 23, 2014'
p1709
sI28
S'DEC 25, 2014'
p1710
sI29
S'DEC 27, 2014'
p1711
sI30
S'DEC 29, 2014'
p1712
sI31
S'DEC 30, 2014'
p1713
sI32
S'JAN 02, 2015'
p1714
sI33
S'JAN 03, 2015'
p1715
sI34
S'JAN 05, 2015'
p1716
sI35
S'JAN 07, 2015'
p1717
sI36
S'JAN 09, 2015'
p1718
sI37
S'JAN 11, 2015'
p1719
sI38
S'JAN 13, 2015'
p1720
sI39
S'JAN 14, 2015'
p1721
sI40
S'JAN 16, 2015'
p1722
sI41
S'JAN 17, 2015'
p1723
sI42
S'JAN 19, 2015'
p1724
sI43
S'JAN 21, 2015'
p1725
sI44
S'JAN 24, 2015'
p1726
sI45
S'JAN 25, 2015'
p1727
sI46
S'JAN 27, 2015'
p1728
sI47
S'JAN 28, 2015'
p1729
sI48
S'JAN 31, 2015'
p1730
sI49
S'FEB 02, 2015'
p1731
sI50
S'FEB 04, 2015'
p1732
sI51
S'FEB 05, 2015'
p1733
sI52
S'FEB 07, 2015'
p1734
sI53
S'FEB 09, 2015'
p1735
sI54
S'FEB 11, 2015'
p1736
sI55
S'FEB 20, 2015'
p1737
sI56
S'FEB 22, 2015'
p1738
sI57
S'FEB 24, 2015'
p1739
sI58
S'FEB 25, 2015'
p1740
sI59
S'FEB 27, 2015'
p1741
sI60
S'FEB 28, 2015'
p1742
sI61
S'MAR 03, 2015'
p1743
sI62
S'MAR 06, 2015'
p1744
sI63
S'MAR 07, 2015'
p1745
sI64
S'MAR 09, 2015'
p1746
sI65
S'MAR 12, 2015'
p1747
sI66
S'MAR 14, 2015'
p1748
sI67
S'MAR 16, 2015'
p1749
sI68
S'MAR 18, 2015'
p1750
sI69
S'MAR 20, 2015'
p1751
sI70
S'MAR 22, 2015'
p1752
sI71
S'MAR 23, 2015'
p1753
sI72
S'MAR 25, 2015'
p1754
sI73
S'MAR 27, 2015'
p1755
sI74
S'MAR 29, 2015'
p1756
sI75
S'APR 01, 2015'
p1757
sI76
S'APR 03, 2015'
p1758
sI77
S'APR 04, 2015'
p1759
sI78
S'APR 08, 2015'
p1760
sI79
S'APR 10, 2015'
p1761
sI80
S'APR 12, 2015'
p1762
sI81
S'APR 14, 2015'
p1763
sI82
S'APR 15, 2015'
p1764
ssS'LAL'
p1765
(dp1766
I1
S'OCT 28, 2014'
p1767
sI2
S'OCT 29, 2014'
p1768
sI3
S'OCT 31, 2014'
p1769
sI4
S'NOV 01, 2014'
p1770
sI5
S'NOV 04, 2014'
p1771
sI6
S'NOV 09, 2014'
p1772
sI7
S'NOV 11, 2014'
p1773
sI8
S'NOV 12, 2014'
p1774
sI9
S'NOV 14, 2014'
p1775
sI10
S'NOV 16, 2014'
p1776
sI11
S'NOV 18, 2014'
p1777
sI12
S'NOV 19, 2014'
p1778
sI13
S'NOV 21, 2014'
p1779
sI14
S'NOV 23, 2014'
p1780
sI15
S'NOV 26, 2014'
p1781
sI16
S'NOV 28, 2014'
p1782
sI17
S'NOV 30, 2014'
p1783
sI18
S'DEC 02, 2014'
p1784
sI19
S'DEC 03, 2014'
p1785
sI20
S'DEC 05, 2014'
p1786
sI21
S'DEC 07, 2014'
p1787
sI22
S'DEC 09, 2014'
p1788
sI23
S'DEC 12, 2014'
p1789
sI24
S'DEC 14, 2014'
p1790
sI25
S'DEC 15, 2014'
p1791
sI26
S'DEC 19, 2014'
p1792
sI27
S'DEC 21, 2014'
p1793
sI28
S'DEC 23, 2014'
p1794
sI29
S'DEC 25, 2014'
p1795
sI30
S'DEC 26, 2014'
p1796
sI31
S'DEC 28, 2014'
p1797
sI32
S'DEC 30, 2014'
p1798
sI33
S'JAN 02, 2015'
p1799
sI34
S'JAN 04, 2015'
p1800
sI35
S'JAN 05, 2015'
p1801
sI36
S'JAN 07, 2015'
p1802
sI37
S'JAN 09, 2015'
p1803
sI38
S'JAN 11, 2015'
p1804
sI39
S'JAN 13, 2015'
p1805
sI40
S'JAN 15, 2015'
p1806
sI41
S'JAN 16, 2015'
p1807
sI42
S'JAN 19, 2015'
p1808
sI43
S'JAN 21, 2015'
p1809
sI44
S'JAN 23, 2015'
p1810
sI45
S'JAN 25, 2015'
p1811
sI46
S'JAN 27, 2015'
p1812
sI47
S'JAN 29, 2015'
p1813
sI48
S'FEB 01, 2015'
p1814
sI49
S'FEB 04, 2015'
p1815
sI50
S'FEB 06, 2015'
p1816
sI51
S'FEB 08, 2015'
p1817
sI52
S'FEB 10, 2015'
p1818
sI53
S'FEB 11, 2015'
p1819
sI54
S'FEB 20, 2015'
p1820
sI55
S'FEB 22, 2015'
p1821
sI56
S'FEB 25, 2015'
p1822
sI57
S'FEB 27, 2015'
p1823
sI58
S'MAR 01, 2015'
p1824
sI59
S'MAR 03, 2015'
p1825
sI60
S'MAR 04, 2015'
p1826
sI61
S'MAR 06, 2015'
p1827
sI62
S'MAR 08, 2015'
p1828
sI63
S'MAR 10, 2015'
p1829
sI64
S'MAR 12, 2015'
p1830
sI65
S'MAR 15, 2015'
p1831
sI66
S'MAR 16, 2015'
p1832
sI67
S'MAR 19, 2015'
p1833
sI68
S'MAR 22, 2015'
p1834
sI69
S'MAR 24, 2015'
p1835
sI70
S'MAR 25, 2015'
p1836
sI71
S'MAR 27, 2015'
p1837
sI72
S'MAR 29, 2015'
p1838
sI73
S'MAR 30, 2015'
p1839
sI74
S'APR 01, 2015'
p1840
sI75
S'APR 03, 2015'
p1841
sI76
S'APR 05, 2015'
p1842
sI77
S'APR 07, 2015'
p1843
sI78
S'APR 08, 2015'
p1844
sI79
S'APR 10, 2015'
p1845
sI80
S'APR 12, 2015'
p1846
sI81
S'APR 13, 2015'
p1847
sI82
S'APR 15, 2015'
p1848
ssS'PHI'
p1849
(dp1850
I1
S'OCT 29, 2014'
p1851
sI2
S'OCT 31, 2014'
p1852
sI3
S'NOV 01, 2014'
p1853
sI4
S'NOV 03, 2014'
p1854
sI5
S'NOV 05, 2014'
p1855
sI6
S'NOV 07, 2014'
p1856
sI7
S'NOV 09, 2014'
p1857
sI8
S'NOV 13, 2014'
p1858
sI9
S'NOV 14, 2014'
p1859
sI10
S'NOV 17, 2014'
p1860
sI11
S'NOV 19, 2014'
p1861
sI12
S'NOV 21, 2014'
p1862
sI13
S'NOV 22, 2014'
p1863
sI14
S'NOV 24, 2014'
p1864
sI15
S'NOV 26, 2014'
p1865
sI16
S'NOV 29, 2014'
p1866
sI17
S'DEC 01, 2014'
p1867
sI18
S'DEC 03, 2014'
p1868
sI19
S'DEC 05, 2014'
p1869
sI20
S'DEC 06, 2014'
p1870
sI21
S'DEC 10, 2014'
p1871
sI22
S'DEC 12, 2014'
p1872
sI23
S'DEC 13, 2014'
p1873
sI24
S'DEC 15, 2014'
p1874
sI25
S'DEC 19, 2014'
p1875
sI26
S'DEC 21, 2014'
p1876
sI27
S'DEC 23, 2014'
p1877
sI28
S'DEC 26, 2014'
p1878
sI29
S'DEC 27, 2014'
p1879
sI30
S'DEC 30, 2014'
p1880
sI31
S'JAN 02, 2015'
p1881
sI32
S'JAN 03, 2015'
p1882
sI33
S'JAN 05, 2015'
p1883
sI34
S'JAN 07, 2015'
p1884
sI35
S'JAN 09, 2015'
p1885
sI36
S'JAN 10, 2015'
p1886
sI37
S'JAN 13, 2015'
p1887
sI38
S'JAN 14, 2015'
p1888
sI39
S'JAN 16, 2015'
p1889
sI40
S'JAN 17, 2015'
p1890
sI41
S'JAN 19, 2015'
p1891
sI42
S'JAN 21, 2015'
p1892
sI43
S'JAN 23, 2015'
p1893
sI44
S'JAN 24, 2015'
p1894
sI45
S'JAN 26, 2015'
p1895
sI46
S'JAN 28, 2015'
p1896
sI47
S'JAN 30, 2015'
p1897
sI48
S'JAN 31, 2015'
p1898
sI49
S'FEB 02, 2015'
p1899
sI50
S'FEB 03, 2015'
p1900
sI51
S'FEB 06, 2015'
p1901
sI52
S'FEB 07, 2015'
p1902
sI53
S'FEB 09, 2015'
p1903
sI54
S'FEB 20, 2015'
p1904
sI55
S'FEB 22, 2015'
p1905
sI56
S'FEB 23, 2015'
p1906
sI57
S'FEB 25, 2015'
p1907
sI58
S'FEB 27, 2015'
p1908
sI59
S'MAR 01, 2015'
p1909
sI60
S'MAR 02, 2015'
p1910
sI61
S'MAR 04, 2015'
p1911
sI62
S'MAR 06, 2015'
p1912
sI63
S'MAR 07, 2015'
p1913
sI64
S'MAR 11, 2015'
p1914
sI65
S'MAR 13, 2015'
p1915
sI66
S'MAR 14, 2015'
p1916
sI67
S'MAR 16, 2015'
p1917
sI68
S'MAR 18, 2015'
p1918
sI69
S'MAR 20, 2015'
p1919
sI70
S'MAR 22, 2015'
p1920
sI71
S'MAR 24, 2015'
p1921
sI72
S'MAR 25, 2015'
p1922
sI73
S'MAR 27, 2015'
p1923
sI74
S'MAR 29, 2015'
p1924
sI75
S'MAR 30, 2015'
p1925
sI76
S'APR 01, 2015'
p1926
sI77
S'APR 04, 2015'
p1927
sI78
S'APR 05, 2015'
p1928
sI79
S'APR 08, 2015'
p1929
sI80
S'APR 11, 2015'
p1930
sI81
S'APR 13, 2015'
p1931
sI82
S'APR 15, 2015'
p1932
ssS'MEM'
p1933
(dp1934
I1
S'OCT 29, 2014'
p1935
sI2
S'OCT 31, 2014'
p1936
sI3
S'NOV 01, 2014'
p1937
sI4
S'NOV 03, 2014'
p1938
sI5
S'NOV 05, 2014'
p1939
sI6
S'NOV 07, 2014'
p1940
sI7
S'NOV 08, 2014'
p1941
sI8
S'NOV 11, 2014'
p1942
sI9
S'NOV 13, 2014'
p1943
sI10
S'NOV 15, 2014'
p1944
sI11
S'NOV 17, 2014'
p1945
sI12
S'NOV 19, 2014'
p1946
sI13
S'NOV 21, 2014'
p1947
sI14
S'NOV 23, 2014'
p1948
sI15
S'NOV 26, 2014'
p1949
sI16
S'NOV 28, 2014'
p1950
sI17
S'NOV 30, 2014'
p1951
sI18
S'DEC 03, 2014'
p1952
sI19
S'DEC 05, 2014'
p1953
sI20
S'DEC 07, 2014'
p1954
sI21
S'DEC 09, 2014'
p1955
sI22
S'DEC 12, 2014'
p1956
sI23
S'DEC 13, 2014'
p1957
sI24
S'DEC 16, 2014'
p1958
sI25
S'DEC 17, 2014'
p1959
sI26
S'DEC 19, 2014'
p1960
sI27
S'DEC 21, 2014'
p1961
sI28
S'DEC 22, 2014'
p1962
sI29
S'DEC 26, 2014'
p1963
sI30
S'DEC 27, 2014'
p1964
sI31
S'DEC 30, 2014'
p1965
sI32
S'JAN 02, 2015'
p1966
sI33
S'JAN 03, 2015'
p1967
sI34
S'JAN 05, 2015'
p1968
sI35
S'JAN 07, 2015'
p1969
sI36
S'JAN 09, 2015'
p1970
sI37
S'JAN 11, 2015'
p1971
sI38
S'JAN 14, 2015'
p1972
sI39
S'JAN 16, 2015'
p1973
sI40
S'JAN 17, 2015'
p1974
sI41
S'JAN 19, 2015'
p1975
sI42
S'JAN 21, 2015'
p1976
sI43
S'JAN 24, 2015'
p1977
sI44
S'JAN 26, 2015'
p1978
sI45
S'JAN 27, 2015'
p1979
sI46
S'JAN 29, 2015'
p1980
sI47
S'JAN 31, 2015'
p1981
sI48
S'FEB 02, 2015'
p1982
sI49
S'FEB 04, 2015'
p1983
sI50
S'FEB 06, 2015'
p1984
sI51
S'FEB 08, 2015'
p1985
sI52
S'FEB 10, 2015'
p1986
sI53
S'FEB 11, 2015'
p1987
sI54
S'FEB 22, 2015'
p1988
sI55
S'FEB 23, 2015'
p1989
sI56
S'FEB 25, 2015'
p1990
sI57
S'FEB 27, 2015'
p1991
sI58
S'FEB 28, 2015'
p1992
sI59
S'MAR 03, 2015'
p1993
sI60
S'MAR 04, 2015'
p1994
sI61
S'MAR 06, 2015'
p1995
sI62
S'MAR 07, 2015'
p1996
sI63
S'MAR 09, 2015'
p1997
sI64
S'MAR 11, 2015'
p1998
sI65
S'MAR 12, 2015'
p1999
sI66
S'MAR 14, 2015'
p2000
sI67
S'MAR 16, 2015'
p2001
sI68
S'MAR 17, 2015'
p2002
sI69
S'MAR 20, 2015'
p2003
sI70
S'MAR 21, 2015'
p2004
sI71
S'MAR 23, 2015'
p2005
sI72
S'MAR 25, 2015'
p2006
sI73
S'MAR 27, 2015'
p2007
sI74
S'MAR 29, 2015'
p2008
sI75
S'MAR 30, 2015'
p2009
sI76
S'APR 03, 2015'
p2010
sI77
S'APR 04, 2015'
p2011
sI78
S'APR 08, 2015'
p2012
sI79
S'APR 10, 2015'
p2013
sI80
S'APR 11, 2015'
p2014
sI81
S'APR 13, 2015'
p2015
sI82
S'APR 15, 2015'
p2016
ssS'LAC'
p2017
(dp2018
I1
S'OCT 30, 2014'
p2019
sI2
S'OCT 31, 2014'
p2020
sI3
S'NOV 02, 2014'
p2021
sI4
S'NOV 03, 2014'
p2022
sI5
S'NOV 05, 2014'
p2023
sI6
S'NOV 08, 2014'
p2024
sI7
S'NOV 10, 2014'
p2025
sI8
S'NOV 15, 2014'
p2026
sI9
S'NOV 17, 2014'
p2027
sI10
S'NOV 19, 2014'
p2028
sI11
S'NOV 20, 2014'
p2029
sI12
S'NOV 23, 2014'
p2030
sI13
S'NOV 24, 2014'
p2031
sI14
S'NOV 26, 2014'
p2032
sI15
S'NOV 28, 2014'
p2033
sI16
S'NOV 29, 2014'
p2034
sI17
S'DEC 01, 2014'
p2035
sI18
S'DEC 03, 2014'
p2036
sI19
S'DEC 06, 2014'
p2037
sI20
S'DEC 08, 2014'
p2038
sI21
S'DEC 10, 2014'
p2039
sI22
S'DEC 12, 2014'
p2040
sI23
S'DEC 13, 2014'
p2041
sI24
S'DEC 15, 2014'
p2042
sI25
S'DEC 17, 2014'
p2043
sI26
S'DEC 19, 2014'
p2044
sI27
S'DEC 20, 2014'
p2045
sI28
S'DEC 22, 2014'
p2046
sI29
S'DEC 23, 2014'
p2047
sI30
S'DEC 25, 2014'
p2048
sI31
S'DEC 27, 2014'
p2049
sI32
S'DEC 29, 2014'
p2050
sI33
S'DEC 31, 2014'
p2051
sI34
S'JAN 03, 2015'
p2052
sI35
S'JAN 05, 2015'
p2053
sI36
S'JAN 07, 2015'
p2054
sI37
S'JAN 10, 2015'
p2055
sI38
S'JAN 11, 2015'
p2056
sI39
S'JAN 14, 2015'
p2057
sI40
S'JAN 16, 2015'
p2058
sI41
S'JAN 17, 2015'
p2059
sI42
S'JAN 19, 2015'
p2060
sI43
S'JAN 22, 2015'
p2061
sI44
S'JAN 25, 2015'
p2062
sI45
S'JAN 26, 2015'
p2063
sI46
S'JAN 28, 2015'
p2064
sI47
S'JAN 30, 2015'
p2065
sI48
S'JAN 31, 2015'
p2066
sI49
S'FEB 02, 2015'
p2067
sI50
S'FEB 05, 2015'
p2068
sI51
S'FEB 06, 2015'
p2069
sI52
S'FEB 08, 2015'
p2070
sI53
S'FEB 09, 2015'
p2071
sI54
S'FEB 11, 2015'
p2072
sI55
S'FEB 19, 2015'
p2073
sI56
S'FEB 21, 2015'
p2074
sI57
S'FEB 23, 2015'
p2075
sI58
S'FEB 25, 2015'
p2076
sI59
S'FEB 27, 2015'
p2077
sI60
S'MAR 01, 2015'
p2078
sI61
S'MAR 02, 2015'
p2079
sI62
S'MAR 04, 2015'
p2080
sI63
S'MAR 08, 2015'
p2081
sI64
S'MAR 09, 2015'
p2082
sI65
S'MAR 11, 2015'
p2083
sI66
S'MAR 13, 2015'
p2084
sI67
S'MAR 15, 2015'
p2085
sI68
S'MAR 17, 2015'
p2086
sI69
S'MAR 18, 2015'
p2087
sI70
S'MAR 20, 2015'
p2088
sI71
S'MAR 22, 2015'
p2089
sI72
S'MAR 25, 2015'
p2090
sI73
S'MAR 27, 2015'
p2091
sI74
S'MAR 29, 2015'
p2092
sI75
S'MAR 31, 2015'
p2093
sI76
S'APR 01, 2015'
p2094
sI77
S'APR 04, 2015'
p2095
sI78
S'APR 05, 2015'
p2096
sI79
S'APR 07, 2015'
p2097
sI80
S'APR 11, 2015'
p2098
sI81
S'APR 13, 2015'
p2099
sI82
S'APR 14, 2015'
p2100
ssS'SAC'
p2101
(dp2102
I1
S'OCT 29, 2014'
p2103
sI2
S'OCT 31, 2014'
p2104
sI3
S'NOV 02, 2014'
p2105
sI4
S'NOV 03, 2014'
p2106
sI5
S'NOV 05, 2014'
p2107
sI6
S'NOV 07, 2014'
p2108
sI7
S'NOV 09, 2014'
p2109
sI8
S'NOV 11, 2014'
p2110
sI9
S'NOV 13, 2014'
p2111
sI10
S'NOV 15, 2014'
p2112
sI11
S'NOV 18, 2014'
p2113
sI12
S'NOV 20, 2014'
p2114
sI13
S'NOV 22, 2014'
p2115
sI14
S'NOV 25, 2014'
p2116
sI15
S'NOV 26, 2014'
p2117
sI16
S'NOV 28, 2014'
p2118
sI17
S'NOV 30, 2014'
p2119
sI18
S'DEC 02, 2014'
p2120
sI19
S'DEC 05, 2014'
p2121
sI20
S'DEC 06, 2014'
p2122
sI21
S'DEC 08, 2014'
p2123
sI22
S'DEC 09, 2014'
p2124
sI23
S'DEC 11, 2014'
p2125
sI24
S'DEC 13, 2014'
p2126
sI25
S'DEC 16, 2014'
p2127
sI26
S'DEC 18, 2014'
p2128
sI27
S'DEC 21, 2014'
p2129
sI28
S'DEC 22, 2014'
p2130
sI29
S'DEC 26, 2014'
p2131
sI30
S'DEC 27, 2014'
p2132
sI31
S'DEC 29, 2014'
p2133
sI32
S'DEC 31, 2014'
p2134
sI33
S'JAN 01, 2015'
p2135
sI34
S'JAN 04, 2015'
p2136
sI35
S'JAN 07, 2015'
p2137
sI36
S'JAN 09, 2015'
p2138
sI37
S'JAN 11, 2015'
p2139
sI38
S'JAN 13, 2015'
p2140
sI39
S'JAN 16, 2015'
p2141
sI40
S'JAN 17, 2015'
p2142
sI41
S'JAN 19, 2015'
p2143
sI42
S'JAN 21, 2015'
p2144
sI43
S'JAN 23, 2015'
p2145
sI44
S'JAN 28, 2015'
p2146
sI45
S'JAN 30, 2015'
p2147
sI46
S'JAN 31, 2015'
p2148
sI47
S'FEB 03, 2015'
p2149
sI48
S'FEB 05, 2015'
p2150
sI49
S'FEB 07, 2015'
p2151
sI50
S'FEB 08, 2015'
p2152
sI51
S'FEB 10, 2015'
p2153
sI52
S'FEB 11, 2015'
p2154
sI53
S'FEB 20, 2015'
p2155
sI54
S'FEB 21, 2015'
p2156
sI55
S'FEB 25, 2015'
p2157
sI56
S'FEB 27, 2015'
p2158
sI57
S'MAR 01, 2015'
p2159
sI58
S'MAR 03, 2015'
p2160
sI59
S'MAR 04, 2015'
p2161
sI60
S'MAR 06, 2015'
p2162
sI61
S'MAR 07, 2015'
p2163
sI62
S'MAR 09, 2015'
p2164
sI63
S'MAR 11, 2015'
p2165
sI64
S'MAR 13, 2015'
p2166
sI65
S'MAR 14, 2015'
p2167
sI66
S'MAR 16, 2015'
p2168
sI67
S'MAR 18, 2015'
p2169
sI68
S'MAR 20, 2015'
p2170
sI69
S'MAR 22, 2015'
p2171
sI70
S'MAR 24, 2015'
p2172
sI71
S'MAR 25, 2015'
p2173
sI72
S'MAR 27, 2015'
p2174
sI73
S'MAR 30, 2015'
p2175
sI74
S'APR 01, 2015'
p2176
sI75
S'APR 03, 2015'
p2177
sI76
S'APR 05, 2015'
p2178
sI77
S'APR 07, 2015'
p2179
sI78
S'APR 08, 2015'
p2180
sI79
S'APR 10, 2015'
p2181
sI80
S'APR 12, 2015'
p2182
sI81
S'APR 13, 2015'
p2183
sI82
S'APR 15, 2015'
p2184
ssS'ORL'
p2185
(dp2186
I1
S'OCT 28, 2014'
p2187
sI2
S'OCT 30, 2014'
p2188
sI3
S'NOV 01, 2014'
p2189
sI4
S'NOV 04, 2014'
p2190
sI5
S'NOV 05, 2014'
p2191
sI6
S'NOV 07, 2014'
p2192
sI7
S'NOV 09, 2014'
p2193
sI8
S'NOV 11, 2014'
p2194
sI9
S'NOV 12, 2014'
p2195
sI10
S'NOV 14, 2014'
p2196
sI11
S'NOV 15, 2014'
p2197
sI12
S'NOV 17, 2014'
p2198
sI13
S'NOV 19, 2014'
p2199
sI14
S'NOV 21, 2014'
p2200
sI15
S'NOV 22, 2014'
p2201
sI16
S'NOV 24, 2014'
p2202
sI17
S'NOV 26, 2014'
p2203
sI18
S'NOV 28, 2014'
p2204
sI19
S'NOV 30, 2014'
p2205
sI20
S'DEC 02, 2014'
p2206
sI21
S'DEC 03, 2014'
p2207
sI22
S'DEC 05, 2014'
p2208
sI23
S'DEC 06, 2014'
p2209
sI24
S'DEC 10, 2014'
p2210
sI25
S'DEC 12, 2014'
p2211
sI26
S'DEC 13, 2014'
p2212
sI27
S'DEC 15, 2014'
p2213
sI28
S'DEC 17, 2014'
p2214
sI29
S'DEC 19, 2014'
p2215
sI30
S'DEC 21, 2014'
p2216
sI31
S'DEC 23, 2014'
p2217
sI32
S'DEC 26, 2014'
p2218
sI33
S'DEC 27, 2014'
p2219
sI34
S'DEC 29, 2014'
p2220
sI35
S'DEC 30, 2014'
p2221
sI36
S'JAN 02, 2015'
p2222
sI37
S'JAN 03, 2015'
p2223
sI38
S'JAN 07, 2015'
p2224
sI39
S'JAN 09, 2015'
p2225
sI40
S'JAN 10, 2015'
p2226
sI41
S'JAN 12, 2015'
p2227
sI42
S'JAN 14, 2015'
p2228
sI43
S'JAN 16, 2015'
p2229
sI44
S'JAN 18, 2015'
p2230
sI45
S'JAN 21, 2015'
p2231
sI46
S'JAN 23, 2015'
p2232
sI47
S'JAN 25, 2015'
p2233
sI48
S'JAN 26, 2015'
p2234
sI49
S'JAN 29, 2015'
p2235
sI50
S'JAN 31, 2015'
p2236
sI51
S'FEB 02, 2015'
p2237
sI52
S'FEB 04, 2015'
p2238
sI53
S'FEB 06, 2015'
p2239
sI54
S'FEB 08, 2015'
p2240
sI55
S'FEB 09, 2015'
p2241
sI56
S'FEB 11, 2015'
p2242
sI57
S'FEB 20, 2015'
p2243
sI58
S'FEB 22, 2015'
p2244
sI59
S'FEB 25, 2015'
p2245
sI60
S'FEB 27, 2015'
p2246
sI61
S'MAR 01, 2015'
p2247
sI62
S'MAR 04, 2015'
p2248
sI63
S'MAR 06, 2015'
p2249
sI64
S'MAR 08, 2015'
p2250
sI65
S'MAR 10, 2015'
p2251
sI66
S'MAR 11, 2015'
p2252
sI67
S'MAR 13, 2015'
p2253
sI68
S'MAR 15, 2015'
p2254
sI69
S'MAR 17, 2015'
p2255
sI70
S'MAR 18, 2015'
p2256
sI71
S'MAR 20, 2015'
p2257
sI72
S'MAR 22, 2015'
p2258
sI73
S'MAR 25, 2015'
p2259
sI74
S'MAR 27, 2015'
p2260
sI75
S'APR 01, 2015'
p2261
sI76
S'APR 03, 2015'
p2262
sI77
S'APR 04, 2015'
p2263
sI78
S'APR 08, 2015'
p2264
sI79
S'APR 10, 2015'
p2265
sI80
S'APR 11, 2015'
p2266
sI81
S'APR 13, 2015'
p2267
sI82
S'APR 15, 2015'
p2268
ssS'PHX'
p2269
(dp2270
I1
S'OCT 29, 2014'
p2271
sI2
S'OCT 31, 2014'
p2272
sI3
S'NOV 01, 2014'
p2273
sI4
S'NOV 04, 2014'
p2274
sI5
S'NOV 05, 2014'
p2275
sI6
S'NOV 07, 2014'
p2276
sI7
S'NOV 09, 2014'
p2277
sI8
S'NOV 12, 2014'
p2278
sI9
S'NOV 14, 2014'
p2279
sI10
S'NOV 15, 2014'
p2280
sI11
S'NOV 17, 2014'
p2281
sI12
S'NOV 19, 2014'
p2282
sI13
S'NOV 21, 2014'
p2283
sI14
S'NOV 22, 2014'
p2284
sI15
S'NOV 24, 2014'
p2285
sI16
S'NOV 26, 2014'
p2286
sI17
S'NOV 28, 2014'
p2287
sI18
S'NOV 30, 2014'
p2288
sI19
S'DEC 02, 2014'
p2289
sI20
S'DEC 05, 2014'
p2290
sI21
S'DEC 06, 2014'
p2291
sI22
S'DEC 08, 2014'
p2292
sI23
S'DEC 09, 2014'
p2293
sI24
S'DEC 12, 2014'
p2294
sI25
S'DEC 14, 2014'
p2295
sI26
S'DEC 15, 2014'
p2296
sI27
S'DEC 17, 2014'
p2297
sI28
S'DEC 20, 2014'
p2298
sI29
S'DEC 21, 2014'
p2299
sI30
S'DEC 23, 2014'
p2300
sI31
S'DEC 26, 2014'
p2301
sI32
S'DEC 28, 2014'
p2302
sI33
S'DEC 30, 2014'
p2303
sI34
S'DEC 31, 2014'
p2304
sI35
S'JAN 02, 2015'
p2305
sI36
S'JAN 04, 2015'
p2306
sI37
S'JAN 06, 2015'
p2307
sI38
S'JAN 07, 2015'
p2308
sI39
S'JAN 09, 2015'
p2309
sI40
S'JAN 11, 2015'
p2310
sI41
S'JAN 13, 2015'
p2311
sI42
S'JAN 16, 2015'
p2312
sI43
S'JAN 19, 2015'
p2313
sI44
S'JAN 21, 2015'
p2314
sI45
S'JAN 23, 2015'
p2315
sI46
S'JAN 25, 2015'
p2316
sI47
S'JAN 28, 2015'
p2317
sI48
S'JAN 30, 2015'
p2318
sI49
S'JAN 31, 2015'
p2319
sI50
S'FEB 02, 2015'
p2320
sI51
S'FEB 05, 2015'
p2321
sI52
S'FEB 06, 2015'
p2322
sI53
S'FEB 08, 2015'
p2323
sI54
S'FEB 10, 2015'
p2324
sI55
S'FEB 20, 2015'
p2325
sI56
S'FEB 21, 2015'
p2326
sI57
S'FEB 23, 2015'
p2327
sI58
S'FEB 25, 2015'
p2328
sI59
S'FEB 26, 2015'
p2329
sI60
S'FEB 28, 2015'
p2330
sI61
S'MAR 02, 2015'
p2331
sI62
S'MAR 04, 2015'
p2332
sI63
S'MAR 06, 2015'
p2333
sI64
S'MAR 07, 2015'
p2334
sI65
S'MAR 09, 2015'
p2335
sI66
S'MAR 11, 2015'
p2336
sI67
S'MAR 13, 2015'
p2337
sI68
S'MAR 15, 2015'
p2338
sI69
S'MAR 19, 2015'
p2339
sI70
S'MAR 21, 2015'
p2340
sI71
S'MAR 22, 2015'
p2341
sI72
S'MAR 25, 2015'
p2342
sI73
S'MAR 27, 2015'
p2343
sI74
S'MAR 29, 2015'
p2344
sI75
S'MAR 30, 2015'
p2345
sI76
S'APR 02, 2015'
p2346
sI77
S'APR 04, 2015'
p2347
sI78
S'APR 07, 2015'
p2348
sI79
S'APR 08, 2015'
p2349
sI80
S'APR 10, 2015'
p2350
sI81
S'APR 12, 2015'
p2351
sI82
S'APR 14, 2015'
p2352
ssS'IND'
p2353
(dp2354
I1
S'OCT 29, 2014'
p2355
sI2
S'OCT 31, 2014'
p2356
sI3
S'NOV 01, 2014'
p2357
sI4
S'NOV 04, 2014'
p2358
sI5
S'NOV 05, 2014'
p2359
sI6
S'NOV 07, 2014'
p2360
sI7
S'NOV 08, 2014'
p2361
sI8
S'NOV 10, 2014'
p2362
sI9
S'NOV 12, 2014'
p2363
sI10
S'NOV 14, 2014'
p2364
sI11
S'NOV 15, 2014'
p2365
sI12
S'NOV 19, 2014'
p2366
sI13
S'NOV 22, 2014'
p2367
sI14
S'NOV 24, 2014'
p2368
sI15
S'NOV 26, 2014'
p2369
sI16
S'NOV 28, 2014'
p2370
sI17
S'NOV 29, 2014'
p2371
sI18
S'DEC 02, 2014'
p2372
sI19
S'DEC 04, 2014'
p2373
sI20
S'DEC 05, 2014'
p2374
sI21
S'DEC 08, 2014'
p2375
sI22
S'DEC 10, 2014'
p2376
sI23
S'DEC 12, 2014'
p2377
sI24
S'DEC 13, 2014'
p2378
sI25
S'DEC 15, 2014'
p2379
sI26
S'DEC 17, 2014'
p2380
sI27
S'DEC 20, 2014'
p2381
sI28
S'DEC 21, 2014'
p2382
sI29
S'DEC 23, 2014'
p2383
sI30
S'DEC 26, 2014'
p2384
sI31
S'DEC 27, 2014'
p2385
sI32
S'DEC 29, 2014'
p2386
sI33
S'DEC 31, 2014'
p2387
sI34
S'JAN 02, 2015'
p2388
sI35
S'JAN 04, 2015'
p2389
sI36
S'JAN 05, 2015'
p2390
sI37
S'JAN 07, 2015'
p2391
sI38
S'JAN 09, 2015'
p2392
sI39
S'JAN 10, 2015'
p2393
sI40
S'JAN 13, 2015'
p2394
sI41
S'JAN 16, 2015'
p2395
sI42
S'JAN 17, 2015'
p2396
sI43
S'JAN 19, 2015'
p2397
sI44
S'JAN 21, 2015'
p2398
sI45
S'JAN 23, 2015'
p2399
sI46
S'JAN 25, 2015'
p2400
sI47
S'JAN 27, 2015'
p2401
sI48
S'JAN 29, 2015'
p2402
sI49
S'JAN 31, 2015'
p2403
sI50
S'FEB 04, 2015'
p2404
sI51
S'FEB 06, 2015'
p2405
sI52
S'FEB 08, 2015'
p2406
sI53
S'FEB 09, 2015'
p2407
sI54
S'FEB 11, 2015'
p2408
sI55
S'FEB 20, 2015'
p2409
sI56
S'FEB 22, 2015'
p2410
sI57
S'FEB 24, 2015'
p2411
sI58
S'FEB 27, 2015'
p2412
sI59
S'MAR 01, 2015'
p2413
sI60
S'MAR 04, 2015'
p2414
sI61
S'MAR 06, 2015'
p2415
sI62
S'MAR 07, 2015'
p2416
sI63
S'MAR 10, 2015'
p2417
sI64
S'MAR 12, 2015'
p2418
sI65
S'MAR 14, 2015'
p2419
sI66
S'MAR 16, 2015'
p2420
sI67
S'MAR 18, 2015'
p2421
sI68
S'MAR 20, 2015'
p2422
sI69
S'MAR 21, 2015'
p2423
sI70
S'MAR 23, 2015'
p2424
sI71
S'MAR 25, 2015'
p2425
sI72
S'MAR 26, 2015'
p2426
sI73
S'MAR 29, 2015'
p2427
sI74
S'MAR 31, 2015'
p2428
sI75
S'APR 01, 2015'
p2429
sI76
S'APR 03, 2015'
p2430
sI77
S'APR 05, 2015'
p2431
sI78
S'APR 08, 2015'
p2432
sI79
S'APR 10, 2015'
p2433
sI80
S'APR 12, 2015'
p2434
sI81
S'APR 14, 2015'
p2435
sI82
S'APR 15, 2015'
p2436
ssS'NOP'
p2437
(dp2438
I1
S'OCT 28, 2014'
p2439
sI2
S'NOV 01, 2014'
p2440
sI3
S'NOV 03, 2014'
p2441
sI4
S'NOV 04, 2014'
p2442
sI5
S'NOV 08, 2014'
p2443
sI6
S'NOV 10, 2014'
p2444
sI7
S'NOV 12, 2014'
p2445
sI8
S'NOV 14, 2014'
p2446
sI9
S'NOV 17, 2014'
p2447
sI10
S'NOV 18, 2014'
p2448
sI11
S'NOV 21, 2014'
p2449
sI12
S'NOV 22, 2014'
p2450
sI13
S'NOV 25, 2014'
p2451
sI14
S'NOV 28, 2014'
p2452
sI15
S'NOV 29, 2014'
p2453
sI16
S'DEC 02, 2014'
p2454
sI17
S'DEC 04, 2014'
p2455
sI18
S'DEC 06, 2014'
p2456
sI19
S'DEC 07, 2014'
p2457
sI20
S'DEC 09, 2014'
p2458
sI21
S'DEC 10, 2014'
p2459
sI22
S'DEC 12, 2014'
p2460
sI23
S'DEC 14, 2014'
p2461
sI24
S'DEC 16, 2014'
p2462
sI25
S'DEC 18, 2014'
p2463
sI26
S'DEC 20, 2014'
p2464
sI27
S'DEC 21, 2014'
p2465
sI28
S'DEC 23, 2014'
p2466
sI29
S'DEC 26, 2014'
p2467
sI30
S'DEC 27, 2014'
p2468
sI31
S'DEC 30, 2014'
p2469
sI32
S'DEC 31, 2014'
p2470
sI33
S'JAN 02, 2015'
p2471
sI34
S'JAN 05, 2015'
p2472
sI35
S'JAN 07, 2015'
p2473
sI36
S'JAN 09, 2015'
p2474
sI37
S'JAN 12, 2015'
p2475
sI38
S'JAN 14, 2015'
p2476
sI39
S'JAN 16, 2015'
p2477
sI40
S'JAN 18, 2015'
p2478
sI41
S'JAN 19, 2015'
p2479
sI42
S'JAN 21, 2015'
p2480
sI43
S'JAN 23, 2015'
p2481
sI44
S'JAN 25, 2015'
p2482
sI45
S'JAN 26, 2015'
p2483
sI46
S'JAN 28, 2015'
p2484
sI47
S'JAN 30, 2015'
p2485
sI48
S'FEB 02, 2015'
p2486
sI49
S'FEB 04, 2015'
p2487
sI50
S'FEB 06, 2015'
p2488
sI51
S'FEB 07, 2015'
p2489
sI52
S'FEB 09, 2015'
p2490
sI53
S'FEB 11, 2015'
p2491
sI54
S'FEB 20, 2015'
p2492
sI55
S'FEB 21, 2015'
p2493
sI56
S'FEB 23, 2015'
p2494
sI57
S'FEB 25, 2015'
p2495
sI58
S'FEB 27, 2015'
p2496
sI59
S'MAR 01, 2015'
p2497
sI60
S'MAR 02, 2015'
p2498
sI61
S'MAR 04, 2015'
p2499
sI62
S'MAR 06, 2015'
p2500
sI63
S'MAR 07, 2015'
p2501
sI64
S'MAR 09, 2015'
p2502
sI65
S'MAR 10, 2015'
p2503
sI66
S'MAR 15, 2015'
p2504
sI67
S'MAR 17, 2015'
p2505
sI68
S'MAR 19, 2015'
p2506
sI69
S'MAR 20, 2015'
p2507
sI70
S'MAR 22, 2015'
p2508
sI71
S'MAR 25, 2015'
p2509
sI72
S'MAR 27, 2015'
p2510
sI73
S'MAR 29, 2015'
p2511
sI74
S'APR 01, 2015'
p2512
sI75
S'APR 03, 2015'
p2513
sI76
S'APR 04, 2015'
p2514
sI77
S'APR 07, 2015'
p2515
sI78
S'APR 08, 2015'
p2516
sI79
S'APR 10, 2015'
p2517
sI80
S'APR 12, 2015'
p2518
sI81
S'APR 13, 2015'
p2519
sI82
S'APR 15, 2015'
p2520
ss.