(dp0
S'MIL'
p1
(dp2
S'NOV 04, 2014'
p3
(dp4
S'CLE'
p5
S'4.5'
p6
ssS'DEC 02, 2014'
p7
(dp8
S'NO'
p9
S'8'
p10
ssS'DEC 23, 2014'
p11
(dp12
S'TOR'
p13
S'3'
p14
ssS'JAN 29, 2015'
p15
(dp16
S'TOR'
p17
g14
ssS'JAN 20, 2015'
p18
(dp19
S'TOR'
p20
g14
ssS'NOV 25, 2014'
p21
(dp22
S'TOR'
p23
g14
ssS'DEC 26, 2014'
p24
(dp25
S'TOR'
p26
g14
ssS'DEC 31, 2014'
p27
(dp28
S'TOR'
p29
g14
ssS'APR 04, 2015'
p30
(dp31
S'ORL'
p32
S'-9'
p33
ssS'FEB 11, 2015'
p34
(dp35
S'BK'
p36
S'-1'
p37
ssS'MAR 28, 2015'
p38
(dp39
S'TOR'
p40
g14
ssS'DEC 22, 2014'
p41
(dp42
S'TOR'
p43
g14
ssS'JAN 14, 2015'
p44
(dp45
S'TOR'
p46
g14
ssS'APR 01, 2015'
p47
(dp48
S'NY'
p49
S'-7'
p50
ssS'APR 14, 2015'
p51
(dp52
S'TOR'
p53
g14
ssS'FEB 01, 2015'
p54
(dp55
S'IND'
p56
S'-1.5'
p57
ssS'APR 13, 2015'
p58
(dp59
S'TOR'
p60
g14
ssS'NOV 28, 2014'
p61
(dp62
S'TOR'
p63
g14
ssS'NOV 16, 2014'
p64
(dp65
S'TOR'
p66
g14
ssS'MAR 17, 2015'
p67
(dp68
S'TOR'
p69
g14
ssS'JAN 15, 2015'
p70
(dp71
S'TOR'
p72
g14
ssS'NOV 19, 2014'
p73
(dp74
S'TOR'
p75
g14
ssS'NOV 10, 2014'
p76
(dp77
S'CHI'
p78
S'6'
p79
ssS'FEB 22, 2015'
p80
(dp81
S'TOR'
p82
g14
ssS'APR 15, 2015'
p83
(dp84
S'TOR'
p85
g14
ssS'DEC 30, 2014'
p86
(dp87
S'TOR'
p88
g14
ssS'FEB 23, 2015'
p89
(dp90
S'TOR'
p91
g14
ssS'MAR 04, 2015'
p92
(dp93
S'BOS'
p94
S'5'
p95
ssS'JAN 25, 2015'
p96
(dp97
S'TOR'
p98
g14
ssS'JAN 27, 2015'
p99
(dp100
S'TOR'
p101
g14
ssS'JAN 28, 2015'
p102
(dp103
S'TOR'
p104
g14
ssS'MAR 15, 2015'
p105
(dp106
S'TOR'
p107
g14
ssS'OCT 31, 2014'
p108
(dp109
S'TOR'
p110
g14
ssS'APR 12, 2015'
p111
(dp112
S'DET'
p113
S'6.5'
p114
ssS'MAR 13, 2015'
p115
(dp116
S'TOR'
p117
g14
ssS'MAR 03, 2015'
p118
(dp119
S'DEN'
p120
S'-5.5'
p121
ssS'FEB 02, 2015'
p122
(dp123
S'TOR'
p124
g79
ssS'JAN 26, 2015'
p125
(dp126
S'TOR'
p127
g14
ssS'NOV 22, 2014'
p128
(dp129
S'TOR'
p130
g14
ssS'FEB 27, 2015'
p131
(dp132
S'TOR'
p133
g14
ssS'APR 11, 2015'
p134
(dp135
S'PHI'
p136
S'-8.5'
p137
ssS'JAN 04, 2015'
p138
(dp139
S'CHI'
p140
g95
ssS'MAR 22, 2015'
p141
(dp142
S'TOR'
p143
g14
ssS'NOV 03, 2014'
p144
(dp145
S'MIN'
p146
S'15'
p147
ssS'JAN 24, 2015'
p148
(dp149
S'TOR'
p150
g14
ssS'DEC 25, 2014'
p151
(dp152
S'TOR'
p153
g14
ssS'DEC 19, 2014'
p154
(dp155
S'TOR'
p156
g14
ssS'DEC 29, 2014'
p157
(dp158
S'TOR'
p159
g14
ssS'MAR 20, 2015'
p160
(dp161
S'TOR'
p162
g14
ssS'MAR 29, 2015'
p163
(dp164
S'TOR'
p165
g14
ssS'MAR 26, 2015'
p166
(dp167
S'TOR'
p168
g14
ssS'OCT 28, 2014'
p169
(dp170
S'TOR'
p171
g14
ssS'FEB 26, 2015'
p172
(dp173
S'TOR'
p174
g14
ssS'JAN 13, 2015'
p175
(dp176
S'TOR'
p177
g14
ssS'APR 02, 2015'
p178
(dp179
S'LAL'
p180
S'-9.5'
p181
ssS'FEB 24, 2015'
p182
(dp183
S'TOR'
p184
g14
ssS'NOV 30, 2014'
p185
(dp186
S'TOR'
p187
g14
ssS'JAN 18, 2015'
p188
(dp189
S'TOR'
p190
g14
ssS'JAN 11, 2015'
p191
(dp192
S'TOR'
p193
g79
ssS'MAR 27, 2015'
p194
(dp195
S'TOR'
p196
g14
ssS'MAR 30, 2015'
p197
(dp198
S'TOR'
p199
g14
ssS'DEC 15, 2014'
p200
(dp201
S'TOR'
p202
g14
ssS'MAR 25, 2015'
p203
(dp204
S'TOR'
p205
g14
ssS'FEB 19, 2015'
p206
(dp207
S'TOR'
p208
g14
ssS'NOV 20, 2014'
p209
(dp210
S'TOR'
p211
g14
ssS'NOV 29, 2014'
p212
(dp213
S'TOR'
p214
g14
ssS'JAN 19, 2015'
p215
(dp216
S'TOR'
p217
g14
ssS'MAR 16, 2015'
p218
(dp219
S'TOR'
p220
g14
ssS'FEB 12, 2015'
p221
(dp222
S'SA'
p223
S'12'
p224
ssS'FEB 20, 2015'
p225
(dp226
S'TOR'
p227
g14
ssS'NOV 18, 2014'
p228
(dp229
S'TOR'
p230
g14
ssS'NOV 11, 2014'
p231
(dp232
S'OKC'
p233
S'-2'
p234
ssS'MAR 19, 2015'
p235
(dp236
S'TOR'
p237
g14
ssS'DEC 20, 2014'
p238
(dp239
S'TOR'
p240
g14
ssS'JAN 30, 2015'
p241
(dp242
S'TOR'
p243
g14
ssS'MAR 31, 2015'
p244
(dp245
S'TOR'
p246
g14
ssS'OCT 29, 2014'
p247
(dp248
S'TOR'
p249
g14
ssS'MAR 18, 2015'
p250
(dp251
S'TOR'
p252
g14
ssS'OCT 30, 2014'
p253
(dp254
S'TOR'
p255
g14
ssS'MAR 14, 2015'
p256
(dp257
S'TOR'
p258
g14
ssS'MAR 23, 2015'
p259
(dp260
S'TOR'
p261
g14
ssS'NOV 23, 2014'
p262
(dp263
S'TOR'
p264
g14
ssS'DEC 14, 2014'
p265
(dp266
S'TOR'
p267
g14
ssS'NOV 24, 2014'
p268
(dp269
S'TOR'
p270
g14
ssS'FEB 25, 2015'
p271
(dp272
S'TOR'
p273
g14
ssS'FEB 21, 2015'
p274
(dp275
S'TOR'
p276
g14
ssS'NOV 15, 2014'
p277
(dp278
S'TOR'
p279
g14
ssS'JAN 23, 2015'
p280
(dp281
S'TOR'
p282
g14
ssS'NOV 26, 2014'
p283
(dp284
S'TOR'
p285
g14
ssS'NOV 13, 2014'
p286
(dp287
S'TOR'
p288
g14
ssS'JAN 17, 2015'
p289
(dp290
S'TOR'
p291
g14
ssS'JAN 31, 2015'
p292
(dp293
S'TOR'
p294
g14
ssS'MAR 21, 2015'
p295
(dp296
S'TOR'
p297
g14
ssS'APR 03, 2015'
p298
(dp299
S'GS'
p300
S'13.5'
p301
ssS'DEC 21, 2014'
p302
(dp303
S'TOR'
p304
g14
ssS'DEC 28, 2014'
p305
(dp306
S'TOR'
p307
g14
ssS'NOV 14, 2014'
p308
(dp309
S'TOR'
p310
g14
ssS'DEC 27, 2014'
p311
(dp312
S'TOR'
p313
g14
ssS'DEC 04, 2014'
p314
(dp315
S'WAS'
p316
S'11'
p317
ssS'DEC 18, 2014'
p318
(dp319
S'TOR'
p320
g14
ssS'NOV 01, 2014'
p321
(dp322
S'OKC'
p323
S'15'
p324
ssS'NOV 17, 2014'
p325
(dp326
S'TOR'
p327
g14
ssS'JAN 16, 2015'
p328
(dp329
S'TOR'
p330
g14
ssS'DEC 16, 2014'
p331
(dp332
S'TOR'
p333
g14
ssS'DEC 13, 2014'
p334
(dp335
S'TOR'
p336
g14
ssS'MAR 24, 2015'
p337
(dp338
S'TOR'
p339
g14
ssS'JAN 22, 2015'
p340
(dp341
S'TOR'
p342
g14
ssS'DEC 17, 2014'
p343
(dp344
S'TOR'
p345
g14
ssS'JAN 21, 2015'
p346
(dp347
S'TOR'
p348
g14
ssS'NOV 21, 2014'
p349
(dp350
S'TOR'
p351
g14
ssS'FEB 28, 2015'
p352
(dp353
S'TOR'
p354
g14
sssS'MIN'
p355
(dp356
g3
(dp357
S'HOU'
p358
g14
ssg7
(dp359
S'DEN'
p360
S'-33.5'
p361
ssg11
(dp362
S'PHO'
p363
S'-1'
p364
ssg15
(dp365
S'PHO'
p366
S'-1'
p367
ssg18
(dp368
S'PHO'
p369
S'-1'
p370
ssg21
(dp371
S'PHO'
p372
S'-1'
p373
ssg24
(dp374
S'PHO'
p375
S'-1'
p376
ssg27
(dp377
S'PHO'
p378
S'-1'
p379
ssg34
(dp380
S'POR'
p381
S'-4'
p382
ssg38
(dp383
S'PHO'
p384
S'-1'
p385
ssg41
(dp386
S'PHO'
p387
S'-1'
p388
ssg44
(dp389
S'PHO'
p390
S'-1'
p391
ssg51
(dp392
S'PHO'
p393
S'-1'
p394
ssS'FEB 03, 2015'
p395
(dp396
S'LAC'
p397
S'6.5'
p398
ssg58
(dp399
S'PHO'
p400
S'-1'
p401
ssS'DEC 11, 2014'
p402
(dp403
S'HOU'
p404
S'6.5'
p405
ssg61
(dp406
S'PHO'
p407
S'-1'
p408
ssg64
(dp409
S'PHO'
p410
S'-1'
p411
ssg67
(dp412
S'PHO'
p413
S'-1'
p414
ssg70
(dp415
S'PHO'
p416
S'-1'
p417
ssg73
(dp418
S'PHO'
p419
S'-1'
p420
ssg83
(dp421
S'PHO'
p422
S'-1'
p423
ssg86
(dp424
S'PHO'
p425
S'-1'
p426
ssg89
(dp427
S'PHO'
p428
S'-1'
p429
ssg92
(dp430
S'ORL'
p431
S'4.5'
p432
ssg96
(dp433
S'PHO'
p434
S'-1'
p435
ssg99
(dp436
S'PHO'
p437
S'-1'
p438
ssg102
(dp439
S'PHO'
p440
S'-1'
p441
ssS'MAR 01, 2015'
p442
(dp443
S'UTA'
p444
S'-1.5'
p445
ssg105
(dp446
S'PHO'
p447
S'-1'
p448
ssg108
(dp449
S'PHO'
p450
S'-1'
p451
ssg115
(dp452
S'PHO'
p453
S'-1'
p454
ssg122
(dp455
S'DAL'
p456
S'10'
p457
ssg125
(dp458
S'PHO'
p459
S'-1'
p460
ssg128
(dp461
S'PHO'
p462
S'-1'
p463
ssg131
(dp464
S'PHO'
p465
S'-1'
p466
ssg138
(dp467
S'TOR'
p468
S'10'
p469
ssg141
(dp470
S'PHO'
p471
S'-1'
p472
ssg144
(dp473
S'MIL'
p474
S'-15'
p475
ssg148
(dp476
S'PHO'
p477
S'-1'
p478
ssg151
(dp479
S'PHO'
p480
S'-1'
p481
ssg154
(dp482
S'PHO'
p483
S'-1'
p484
ssg157
(dp485
S'PHO'
p486
S'-1'
p487
ssS'JAN 12, 2015'
p488
(dp489
S'ORL'
p490
S'-1.5'
p491
ssg160
(dp492
S'PHO'
p493
S'-1'
p494
ssg163
(dp495
S'PHO'
p496
S'-1'
p497
ssg166
(dp498
S'PHO'
p499
S'-1'
p500
ssg169
(dp501
S'PHO'
p502
S'-1'
p503
ssg172
(dp504
S'PHO'
p505
S'-1'
p506
ssg175
(dp507
S'PHO'
p508
S'-1'
p509
ssg178
(dp510
S'MIA'
p511
S'-2'
p512
ssg182
(dp513
S'PHO'
p514
S'-1'
p515
ssg185
(dp516
S'PHO'
p517
S'-1'
p518
ssg188
(dp519
S'PHO'
p520
S'-1'
p521
ssg289
(dp522
S'PHO'
p523
S'-1'
p524
ssg194
(dp525
S'PHO'
p526
S'-1'
p527
ssg197
(dp528
S'PHO'
p529
S'-1'
p530
ssg200
(dp531
S'PHO'
p532
S'-1'
p533
ssg203
(dp534
S'PHO'
p535
S'-1'
p536
ssg206
(dp537
S'PHO'
p538
S'-1'
p539
ssg209
(dp540
S'PHO'
p541
S'-1'
p542
ssg212
(dp543
S'PHO'
p544
S'-1'
p545
ssg215
(dp546
S'PHO'
p547
S'-1'
p548
ssg218
(dp549
S'PHO'
p550
S'-1'
p551
ssS'DEC 01, 2014'
p552
(dp553
S'SA'
p554
S'5.5'
p555
ssg225
(dp556
S'PHO'
p557
S'-1'
p558
ssg228
(dp559
S'PHO'
p560
S'-1'
p561
ssg235
(dp562
S'PHO'
p563
S'-1'
p564
ssg238
(dp565
S'PHO'
p566
S'-1'
p567
ssg241
(dp568
S'PHO'
p569
S'-1'
p570
ssS'JAN 01, 2015'
p571
(dp572
S'SAC'
p573
S'4.5'
p574
ssg244
(dp575
S'PHO'
p576
S'-1'
p577
ssg247
(dp578
S'PHO'
p579
S'-1'
p580
ssg250
(dp581
S'PHO'
p582
S'-1'
p583
ssg253
(dp584
S'PHO'
p585
S'-1'
p586
ssg256
(dp587
S'PHO'
p588
S'-1'
p589
ssg259
(dp590
S'PHO'
p591
S'-1'
p592
ssg262
(dp593
S'PHO'
p594
S'-1'
p595
ssg265
(dp596
S'PHO'
p597
S'-1'
p598
ssg268
(dp599
S'PHO'
p600
S'-1'
p601
ssg271
(dp602
S'PHO'
p603
S'-1'
p604
ssS'DEC 12, 2014'
p605
(dp606
S'OKC'
p607
S'8.5'
p608
ssg274
(dp609
S'PHO'
p610
S'-1'
p611
ssg277
(dp612
S'PHO'
p613
S'-1'
p614
ssg280
(dp615
S'PHO'
p616
S'-1'
p617
ssg283
(dp618
S'PHO'
p619
S'-1'
p620
ssg286
(dp621
S'PHO'
p622
S'-1'
p623
ssg292
(dp624
S'PHO'
p625
S'-1'
p626
ssg295
(dp627
S'PHO'
p628
S'-1'
p629
ssg298
(dp630
S'DEN'
p631
S'-7'
p632
ssg302
(dp633
S'PHO'
p634
S'-1'
p635
ssg305
(dp636
S'PHO'
p637
S'-1'
p638
ssg308
(dp639
S'PHO'
p640
S'-1'
p641
ssg311
(dp642
S'PHO'
p643
S'-1'
p644
ssg80
(dp645
S'PHO'
p646
S'-1'
p647
ssg318
(dp648
S'PHO'
p649
S'-1'
p650
ssg325
(dp651
S'PHO'
p652
S'-1'
p653
ssg328
(dp654
S'PHO'
p655
S'-1'
p656
ssg331
(dp657
S'PHO'
p658
S'-1'
p659
ssg334
(dp660
S'PHO'
p661
S'-1'
p662
ssg337
(dp663
S'PHO'
p664
S'-1'
p665
ssg340
(dp666
S'PHO'
p667
S'-1'
p668
ssg343
(dp669
S'PHO'
p670
S'-1'
p671
ssg346
(dp672
S'PHO'
p673
S'-1'
p674
ssg349
(dp675
S'PHO'
p676
S'-1'
p677
ssg352
(dp678
S'PHO'
p679
S'-1'
p680
sssS'MIA'
p681
(dp682
S'NOV 08, 2014'
p683
(dp684
S'NO'
p685
S'-2'
p686
ssg3
(dp687
S'IND'
p688
S'-5.5'
p689
ssg7
(dp690
S'GS'
p691
S'-1'
p692
ssg11
(dp693
S'MEM'
p694
g79
ssg15
(dp695
S'MEM'
p696
g79
ssg18
(dp697
S'MEM'
p698
g79
ssg21
(dp699
S'MEM'
p700
g79
ssg24
(dp701
S'MEM'
p702
g79
ssS'DEC 03, 2014'
p703
(dp704
S'BK'
p705
S'-9'
p706
ssg27
(dp707
S'MEM'
p708
g79
ssg30
(dp709
S'DET'
p710
S'-4.5'
p711
ssg38
(dp712
S'MEM'
p713
g79
ssg41
(dp714
S'MEM'
p715
g79
ssg44
(dp716
S'MEM'
p717
g79
ssg47
(dp718
S'BK'
p719
S'2'
p720
ssg51
(dp721
S'MEM'
p722
g79
ssg395
(dp723
S'PHO'
p724
S'-1.5'
p725
ssg58
(dp726
S'MEM'
p727
g79
ssg402
(dp728
S'IND'
p729
S'-8.5'
p730
ssg61
(dp731
S'MEM'
p732
g79
ssg64
(dp733
S'MEM'
p734
g79
ssg67
(dp735
S'MEM'
p736
g79
ssg70
(dp737
S'MEM'
p738
g79
ssg73
(dp739
S'MEM'
p740
g79
ssg76
(dp741
S'CLE'
p742
S'5.5'
p743
ssg80
(dp744
S'MEM'
p745
g79
ssg83
(dp746
S'MEM'
p747
g79
ssg86
(dp748
S'MEM'
p749
g79
ssg89
(dp750
S'MEM'
p751
g79
ssg96
(dp752
S'MEM'
p753
g79
ssg99
(dp754
S'MEM'
p755
g79
ssg102
(dp756
S'MEM'
p757
g79
ssg442
(dp758
S'HOU'
p759
S'6.5'
p760
ssg105
(dp761
S'MEM'
p762
g79
ssg108
(dp763
S'MEM'
p764
g79
ssg115
(dp765
S'MEM'
p766
g79
ssg125
(dp767
S'MEM'
p768
g79
ssg128
(dp769
S'MEM'
p770
g79
ssg131
(dp771
S'MEM'
p772
g79
ssg247
(dp773
S'MEM'
p774
g79
ssS'JAN 02, 2015'
p775
(dp776
S'BOS'
p777
S'3.5'
p778
ssg148
(dp779
S'MEM'
p780
g79
ssg151
(dp781
S'MEM'
p782
g79
ssg154
(dp783
S'MEM'
p784
g79
ssg157
(dp785
S'MEM'
p786
g79
ssS'MAR 12, 2015'
p787
(dp788
S'OKC'
p789
S'4'
p790
ssg160
(dp791
S'MEM'
p792
g79
ssg163
(dp793
S'MEM'
p794
g79
ssg166
(dp795
S'MEM'
p796
g79
ssS'DEC 06, 2014'
p797
(dp798
S'SA'
p799
S'-5'
p800
ssg169
(dp801
S'MEM'
p802
g79
ssg172
(dp803
S'MEM'
p804
g79
ssg175
(dp805
S'MEM'
p806
g79
ssg178
(dp807
S'MIN'
p808
g720
ssS'NOV 02, 2014'
p809
(dp810
S'PHO'
p811
S'-3'
p812
ssg182
(dp813
S'MEM'
p814
g79
ssg185
(dp815
S'MEM'
p816
g79
ssg188
(dp817
S'MEM'
p818
g79
ssg191
(dp819
S'HOU'
p820
S'-4'
p821
ssS'NOV 09, 2014'
p822
(dp823
S'NO'
p824
S'-2'
p825
ssg194
(dp826
S'MEM'
p827
g79
ssg197
(dp828
S'MEM'
p829
g79
ssg200
(dp830
S'MEM'
p831
g79
ssg203
(dp832
S'MEM'
p833
g79
ssg206
(dp834
S'MEM'
p835
g79
ssS'APR 10, 2015'
p836
(dp837
S'CHA'
p838
S'-7'
p839
ssg209
(dp840
S'MEM'
p841
g79
ssg212
(dp842
S'MEM'
p843
g79
ssg215
(dp844
S'MEM'
p845
g79
ssg218
(dp846
S'MEM'
p847
g79
ssS'DEC 07, 2014'
p848
(dp849
S'NO'
p850
S'-2'
p851
ssS'DEC 08, 2014'
p852
(dp853
S'NO'
p854
S'-2'
p855
ssg225
(dp856
S'MEM'
p857
g79
ssg228
(dp858
S'MEM'
p859
g79
ssg235
(dp860
S'MEM'
p861
g79
ssg238
(dp862
S'MEM'
p863
g79
ssg241
(dp864
S'MEM'
p865
g79
ssg244
(dp866
S'MEM'
p867
g79
ssg141
(dp868
S'MEM'
p869
g79
ssS'MAR 02, 2015'
p870
(dp871
S'DET'
p872
g790
ssg250
(dp873
S'MEM'
p874
g79
ssg253
(dp875
S'MEM'
p876
g79
ssg256
(dp877
S'MEM'
p878
g79
ssg259
(dp879
S'MEM'
p880
g79
ssg262
(dp881
S'MEM'
p882
g79
ssS'DEC 09, 2014'
p883
(dp884
S'NO'
p885
S'-2'
p886
ssg265
(dp887
S'MEM'
p888
g79
ssg268
(dp889
S'MEM'
p890
g79
ssg271
(dp891
S'MEM'
p892
g79
ssg605
(dp893
S'UTA'
p894
S'1.5'
p895
ssg274
(dp896
S'MEM'
p897
g79
ssg277
(dp898
S'MEM'
p899
g79
ssg280
(dp900
S'MEM'
p901
g79
ssg283
(dp902
S'MEM'
p903
g79
ssS'DEC 05, 2014'
p904
(dp905
S'BK'
p906
S'-2'
p907
ssg286
(dp908
S'MEM'
p909
g79
ssg289
(dp910
S'MEM'
p911
g79
ssS'MAR 11, 2015'
p912
(dp913
S'ATL'
p914
S'-4'
p915
ssg292
(dp916
S'MEM'
p917
g79
ssg295
(dp918
S'MEM'
p919
g79
ssg298
(dp920
S'LAL'
p921
S'-9.5'
p922
ssg302
(dp923
S'MEM'
p924
g79
ssg305
(dp925
S'MEM'
p926
g79
ssg308
(dp927
S'MEM'
p928
g79
ssg311
(dp929
S'MEM'
p930
g79
ssg314
(dp931
S'ATL'
p932
S'-6'
p933
ssg318
(dp934
S'MEM'
p935
g79
ssS'FEB 04, 2015'
p936
(dp937
S'CLE'
p938
S'9.5'
p939
ssg325
(dp940
S'MEM'
p941
g79
ssS'NOV 06, 2014'
p942
(dp943
S'SA'
p944
S'-5'
p945
ssg328
(dp946
S'MEM'
p947
g79
ssg331
(dp948
S'MEM'
p949
g79
ssg334
(dp950
S'MEM'
p951
g79
ssg337
(dp952
S'MEM'
p953
g79
ssg340
(dp954
S'MEM'
p955
g79
ssS'NOV 07, 2014'
p956
(dp957
S'NO'
p958
S'-2'
p959
ssg343
(dp960
S'MEM'
p961
g79
ssg346
(dp962
S'MEM'
p963
g79
ssg349
(dp964
S'MEM'
p965
g79
ssg352
(dp966
S'MEM'
p967
g79
sssS'ATL'
p968
(dp969
g3
(dp970
S'BK'
p971
g790
ssg7
(dp972
S'TOR'
p973
S'19.5'
p974
ssg11
(dp975
S'UTA'
p976
S'2.5'
p977
ssg15
(dp978
S'UTA'
p979
S'2.5'
p980
ssg18
(dp981
S'UTA'
p982
S'2.5'
p983
ssg21
(dp984
S'UTA'
p985
S'2.5'
p986
ssg24
(dp987
S'UTA'
p988
S'2.5'
p989
ssg27
(dp990
S'UTA'
p991
S'2.5'
p992
ssg30
(dp993
S'BK'
p994
S'-10.5'
p995
ssg38
(dp996
S'UTA'
p997
S'2.5'
p998
ssg41
(dp999
S'UTA'
p1000
S'2.5'
p1001
ssg44
(dp1002
S'UTA'
p1003
S'2.5'
p1004
ssg51
(dp1005
S'UTA'
p1006
S'2.5'
p1007
ssg54
(dp1008
S'UTA'
p1009
S'-4.5'
p1010
ssg58
(dp1011
S'UTA'
p1012
S'2.5'
p1013
ssg402
(dp1014
S'UTA'
p1015
S'-7'
p1016
ssg61
(dp1017
S'UTA'
p1018
S'2.5'
p1019
ssg64
(dp1020
S'UTA'
p1021
S'2.5'
p1022
ssg67
(dp1023
S'UTA'
p1024
S'2.5'
p1025
ssg70
(dp1026
S'UTA'
p1027
S'2.5'
p1028
ssg73
(dp1029
S'UTA'
p1030
S'2.5'
p1031
ssg76
(dp1032
S'MEM'
p1033
S'3.5'
p1034
ssg80
(dp1035
S'UTA'
p1036
S'2.5'
p1037
ssg83
(dp1038
S'UTA'
p1039
S'2.5'
p1040
ssg86
(dp1041
S'UTA'
p1042
S'2.5'
p1043
ssg89
(dp1044
S'UTA'
p1045
S'2.5'
p1046
ssg96
(dp1047
S'UTA'
p1048
S'2.5'
p1049
ssg99
(dp1050
S'UTA'
p1051
S'2.5'
p1052
ssg102
(dp1053
S'UTA'
p1054
S'2.5'
p1055
ssg442
(dp1056
S'POR'
p1057
g79
ssg105
(dp1058
S'UTA'
p1059
S'2.5'
p1060
ssg108
(dp1061
S'UTA'
p1062
S'2.5'
p1063
ssg111
(dp1064
S'LAL'
p1065
S'-11'
p1066
ssg115
(dp1067
S'UTA'
p1068
S'2.5'
p1069
ssg118
(dp1070
S'HOU'
p1071
S'-8.5'
p1072
ssg122
(dp1073
S'NO'
p1074
S'-3'
p1075
ssg125
(dp1076
S'UTA'
p1077
S'2.5'
p1078
ssg128
(dp1079
S'UTA'
p1080
S'2.5'
p1081
ssg131
(dp1082
S'UTA'
p1083
S'2.5'
p1084
ssg134
(dp1085
S'BK'
p1086
S'-7'
p1087
ssg247
(dp1088
S'UTA'
p1089
S'2.5'
p1090
ssg148
(dp1091
S'UTA'
p1092
S'2.5'
p1093
ssg151
(dp1094
S'UTA'
p1095
S'2.5'
p1096
ssg154
(dp1097
S'UTA'
p1098
S'2.5'
p1099
ssg157
(dp1100
S'UTA'
p1101
S'2.5'
p1102
ssg160
(dp1103
S'UTA'
p1104
S'2.5'
p1105
ssg163
(dp1106
S'UTA'
p1107
S'2.5'
p1108
ssS'JAN 05, 2015'
p1109
(dp1110
S'BK'
p1111
S'-5'
p1112
ssg166
(dp1113
S'UTA'
p1114
S'2.5'
p1115
ssg169
(dp1116
S'UTA'
p1117
S'2.5'
p1118
ssg172
(dp1119
S'UTA'
p1120
S'2.5'
p1121
ssg175
(dp1122
S'UTA'
p1123
S'2.5'
p1124
ssg178
(dp1125
S'WAS'
p1126
S'-6'
p1127
ssg809
(dp1128
S'CHI'
p1129
S'1.5'
p1130
ssg182
(dp1131
S'UTA'
p1132
S'2.5'
p1133
ssg185
(dp1134
S'UTA'
p1135
S'2.5'
p1136
ssg188
(dp1137
S'UTA'
p1138
S'2.5'
p1139
ssg191
(dp1140
S'CHA'
p1141
S'-2'
p1142
ssS'MAR 05, 2015'
p1143
(dp1144
S'WAS'
p1145
S'-5.5'
p1146
ssg194
(dp1147
S'UTA'
p1148
S'2.5'
p1149
ssg197
(dp1150
S'UTA'
p1151
S'2.5'
p1152
ssg200
(dp1153
S'UTA'
p1154
S'2.5'
p1155
ssg203
(dp1156
S'UTA'
p1157
S'2.5'
p1158
ssg206
(dp1159
S'UTA'
p1160
S'2.5'
p1161
ssg209
(dp1162
S'UTA'
p1163
S'2.5'
p1164
ssg212
(dp1165
S'UTA'
p1166
S'2.5'
p1167
ssg215
(dp1168
S'UTA'
p1169
S'2.5'
p1170
ssg218
(dp1171
S'UTA'
p1172
S'2.5'
p1173
ssg221
(dp1174
S'TOR'
p1175
S'-4'
p1176
ssg552
(dp1177
S'MEM'
p1178
g95
ssg225
(dp1179
S'UTA'
p1180
S'2.5'
p1181
ssg228
(dp1182
S'UTA'
p1183
S'2.5'
p1184
ssg235
(dp1185
S'UTA'
p1186
S'2.5'
p1187
ssg238
(dp1188
S'UTA'
p1189
S'2.5'
p1190
ssg241
(dp1191
S'UTA'
p1192
S'2.5'
p1193
ssg244
(dp1194
S'UTA'
p1195
S'2.5'
p1196
ssg141
(dp1197
S'UTA'
p1198
S'2.5'
p1199
ssg250
(dp1200
S'UTA'
p1201
S'2.5'
p1202
ssg253
(dp1203
S'UTA'
p1204
S'2.5'
p1205
ssg256
(dp1206
S'UTA'
p1207
S'2.5'
p1208
ssg259
(dp1209
S'UTA'
p1210
S'2.5'
p1211
ssg262
(dp1212
S'UTA'
p1213
S'2.5'
p1214
ssg265
(dp1215
S'UTA'
p1216
S'2.5'
p1217
ssg268
(dp1218
S'UTA'
p1219
S'2.5'
p1220
ssg271
(dp1221
S'UTA'
p1222
S'2.5'
p1223
ssg605
(dp1224
S'ORL'
p1225
S'-9'
p1226
ssg274
(dp1227
S'UTA'
p1228
S'2.5'
p1229
ssg277
(dp1230
S'UTA'
p1231
S'2.5'
p1232
ssg280
(dp1233
S'UTA'
p1234
S'2.5'
p1235
ssg283
(dp1236
S'UTA'
p1237
S'2.5'
p1238
ssg286
(dp1239
S'UTA'
p1240
S'2.5'
p1241
ssg289
(dp1242
S'UTA'
p1243
S'2.5'
p1244
ssg912
(dp1245
S'MIA'
p1246
g790
ssg292
(dp1247
S'UTA'
p1248
S'2.5'
p1249
ssg295
(dp1250
S'UTA'
p1251
S'2.5'
p1252
ssg302
(dp1253
S'UTA'
p1254
S'2.5'
p1255
ssg305
(dp1256
S'UTA'
p1257
S'2.5'
p1258
ssg308
(dp1259
S'UTA'
p1260
S'2.5'
p1261
ssg311
(dp1262
S'UTA'
p1263
S'2.5'
p1264
ssg314
(dp1265
S'MIA'
p1266
g79
ssg318
(dp1267
S'UTA'
p1268
S'2.5'
p1269
ssg325
(dp1270
S'UTA'
p1271
S'2.5'
p1272
ssg328
(dp1273
S'UTA'
p1274
S'2.5'
p1275
ssg331
(dp1276
S'UTA'
p1277
S'2.5'
p1278
ssg334
(dp1279
S'UTA'
p1280
S'2.5'
p1281
ssg337
(dp1282
S'UTA'
p1283
S'2.5'
p1284
ssg340
(dp1285
S'UTA'
p1286
S'2.5'
p1287
ssg343
(dp1288
S'UTA'
p1289
S'2.5'
p1290
ssg346
(dp1291
S'UTA'
p1292
S'2.5'
p1293
ssg349
(dp1294
S'UTA'
p1295
S'2.5'
p1296
ssg352
(dp1297
S'UTA'
p1298
S'2.5'
p1299
sssS'BOS'
p1300
(dp1301
g3
(dp1302
S'CHA'
p1303
g95
ssg7
(dp1304
S'SA'
p1305
S'3.5'
p1306
ssg11
(dp1307
S'SA'
p1308
S'2.5'
p1309
ssg15
(dp1310
S'SA'
p1311
S'2.5'
p1312
ssg18
(dp1313
S'SA'
p1314
S'2.5'
p1315
ssg21
(dp1316
S'SA'
p1317
S'2.5'
p1318
ssg24
(dp1319
S'SA'
p1320
S'2.5'
p1321
ssg703
(dp1322
S'NY'
p1323
g790
ssg27
(dp1324
S'SA'
p1325
S'2.5'
p1326
ssg30
(dp1327
S'TOR'
p1328
g720
ssg38
(dp1329
S'SA'
p1330
S'2.5'
p1331
ssg41
(dp1332
S'SA'
p1333
S'2.5'
p1334
ssg44
(dp1335
S'SA'
p1336
S'2.5'
p1337
ssg51
(dp1338
S'SA'
p1339
S'2.5'
p1340
ssg54
(dp1341
S'DAL'
p1342
g79
ssg58
(dp1343
S'SA'
p1344
S'2.5'
p1345
ssg402
(dp1346
S'OKC'
p1347
S'-7.5'
p1348
ssg61
(dp1349
S'SA'
p1350
S'2.5'
p1351
ssg64
(dp1352
S'SA'
p1353
S'2.5'
p1354
ssg67
(dp1355
S'SA'
p1356
S'2.5'
p1357
ssg70
(dp1358
S'SA'
p1359
S'2.5'
p1360
ssg73
(dp1361
S'SA'
p1362
S'2.5'
p1363
ssg76
(dp1364
S'NY'
p1365
S'-3'
p1366
ssg80
(dp1367
S'SA'
p1368
S'2.5'
p1369
ssg83
(dp1370
S'SA'
p1371
S'2.5'
p1372
ssg86
(dp1373
S'SA'
p1374
S'2.5'
p1375
ssg89
(dp1376
S'SA'
p1377
S'2.5'
p1378
ssg92
(dp1379
S'MIL'
p1380
S'-5'
p1381
ssg96
(dp1382
S'SA'
p1383
S'2.5'
p1384
ssg99
(dp1385
S'SA'
p1386
S'2.5'
p1387
ssg102
(dp1388
S'SA'
p1389
S'2.5'
p1390
ssg442
(dp1391
S'CHI'
p1392
S'10'
p1393
ssg105
(dp1394
S'SA'
p1395
S'2.5'
p1396
ssg108
(dp1397
S'SA'
p1398
S'2.5'
p1399
ssg115
(dp1400
S'SA'
p1401
S'2.5'
p1402
ssg118
(dp1403
S'CLE'
p1404
S'11'
p1405
ssg125
(dp1406
S'SA'
p1407
S'2.5'
p1408
ssg128
(dp1409
S'SA'
p1410
S'2.5'
p1411
ssg131
(dp1412
S'SA'
p1413
S'2.5'
p1414
ssg134
(dp1415
S'IND'
p1416
S'-2'
p1417
ssg138
(dp1418
S'IND'
p1419
S'-4'
p1420
ssg141
(dp1421
S'SA'
p1422
S'2.5'
p1423
ssg144
(dp1424
S'IND'
p1425
S'12'
p1426
ssg775
(dp1427
S'MIA'
p1428
S'-3.5'
p1429
ssg148
(dp1430
S'SA'
p1431
S'2.5'
p1432
ssg151
(dp1433
S'SA'
p1434
S'2.5'
p1435
ssg154
(dp1436
S'SA'
p1437
S'2.5'
p1438
ssg157
(dp1439
S'SA'
p1440
S'2.5'
p1441
ssg787
(dp1442
S'SAC'
p1443
S'-2.5'
p1444
ssg160
(dp1445
S'SA'
p1446
S'2.5'
p1447
ssg163
(dp1448
S'SA'
p1449
S'2.5'
p1450
ssg166
(dp1451
S'SA'
p1452
S'2.5'
p1453
ssg169
(dp1454
S'SA'
p1455
S'2.5'
p1456
ssg172
(dp1457
S'SA'
p1458
S'2.5'
p1459
ssg175
(dp1460
S'SA'
p1461
S'2.5'
p1462
ssg178
(dp1463
S'DEN'
p1464
S'-3.5'
p1465
ssg182
(dp1466
S'SA'
p1467
S'2.5'
p1468
ssg185
(dp1469
S'SA'
p1470
S'2.5'
p1471
ssg188
(dp1472
S'SA'
p1473
S'2.5'
p1474
ssg191
(dp1475
S'SA'
p1476
S'5.5'
p1477
ssg194
(dp1478
S'SA'
p1479
S'2.5'
p1480
ssg197
(dp1481
S'SA'
p1482
S'2.5'
p1483
ssg200
(dp1484
S'SA'
p1485
S'2.5'
p1486
ssg203
(dp1487
S'SA'
p1488
S'2.5'
p1489
ssg206
(dp1490
S'SA'
p1491
S'2.5'
p1492
ssS'JAN 03, 2015'
p1493
(dp1494
S'GS'
p1495
S'8.5'
p1496
ssg209
(dp1497
S'SA'
p1498
S'2.5'
p1499
ssg212
(dp1500
S'SA'
p1501
S'2.5'
p1502
ssg215
(dp1503
S'SA'
p1504
S'2.5'
p1505
ssg218
(dp1506
S'SA'
p1507
S'2.5'
p1508
ssg225
(dp1509
S'SA'
p1510
S'2.5'
p1511
ssg228
(dp1512
S'SA'
p1513
S'2.5'
p1514
ssg235
(dp1515
S'SA'
p1516
S'2.5'
p1517
ssg238
(dp1518
S'SA'
p1519
S'2.5'
p1520
ssg241
(dp1521
S'SA'
p1522
S'2.5'
p1523
ssg244
(dp1524
S'SA'
p1525
S'2.5'
p1526
ssg247
(dp1527
S'SA'
p1528
S'2.5'
p1529
ssg870
(dp1530
S'NY'
p1531
S'-1'
p1532
ssg250
(dp1533
S'SA'
p1534
S'2.5'
p1535
ssg253
(dp1536
S'SA'
p1537
S'2.5'
p1538
ssg256
(dp1539
S'SA'
p1540
S'2.5'
p1541
ssg259
(dp1542
S'SA'
p1543
S'2.5'
p1544
ssg262
(dp1545
S'SA'
p1546
S'2.5'
p1547
ssg265
(dp1548
S'SA'
p1549
S'2.5'
p1550
ssg268
(dp1551
S'SA'
p1552
S'2.5'
p1553
ssg271
(dp1554
S'SA'
p1555
S'2.5'
p1556
ssg605
(dp1557
S'NY'
p1558
S'-6.5'
p1559
ssg274
(dp1560
S'SA'
p1561
S'2.5'
p1562
ssg277
(dp1563
S'SA'
p1564
S'2.5'
p1565
ssg280
(dp1566
S'SA'
p1567
S'2.5'
p1568
ssg283
(dp1569
S'SA'
p1570
S'2.5'
p1571
ssg286
(dp1572
S'SA'
p1573
S'2.5'
p1574
ssg289
(dp1575
S'SA'
p1576
S'2.5'
p1577
ssg292
(dp1578
S'SA'
p1579
S'2.5'
p1580
ssg295
(dp1581
S'SA'
p1582
S'2.5'
p1583
ssg298
(dp1584
S'UTA'
p1585
S'-1'
p1586
ssg302
(dp1587
S'SA'
p1588
S'2.5'
p1589
ssg305
(dp1590
S'SA'
p1591
S'2.5'
p1592
ssg308
(dp1593
S'SA'
p1594
S'2.5'
p1595
ssg311
(dp1596
S'SA'
p1597
S'2.5'
p1598
ssg314
(dp1599
S'CLE'
p1600
S'9'
p1601
ssg318
(dp1602
S'SA'
p1603
S'2.5'
p1604
ssg321
(dp1605
S'POR'
p1606
S'12'
p1607
ssg325
(dp1608
S'SA'
p1609
S'2.5'
p1610
ssg328
(dp1611
S'SA'
p1612
S'2.5'
p1613
ssg331
(dp1614
S'SA'
p1615
S'2.5'
p1616
ssg334
(dp1617
S'SA'
p1618
S'2.5'
p1619
ssg337
(dp1620
S'SA'
p1621
S'2.5'
p1622
ssg340
(dp1623
S'SA'
p1624
S'2.5'
p1625
ssg343
(dp1626
S'SA'
p1627
S'2.5'
p1628
ssg346
(dp1629
S'SA'
p1630
S'2.5'
p1631
ssg349
(dp1632
S'SA'
p1633
S'2.5'
p1634
ssg352
(dp1635
S'SA'
p1636
S'2.5'
p1637
sssS'DET'
p1638
(dp1639
g3
(dp1640
S'CHI'
p1641
S'10'
p1642
ssg7
(dp1643
S'CLE'
p1644
S'-8'
p1645
ssg11
(dp1646
S'LAC'
p1647
S'6.5'
p1648
ssg15
(dp1649
S'LAC'
p1650
S'6.5'
p1651
ssg18
(dp1652
S'LAC'
p1653
S'6.5'
p1654
ssg21
(dp1655
S'LAC'
p1656
S'6.5'
p1657
ssg24
(dp1658
S'LAC'
p1659
S'6.5'
p1660
ssg703
(dp1661
S'TOR'
p1662
S'8.5'
p1663
ssg27
(dp1664
S'LAC'
p1665
S'6.5'
p1666
ssg30
(dp1667
S'MIA'
p1668
S'4.5'
p1669
ssg38
(dp1670
S'LAC'
p1671
S'6.5'
p1672
ssg41
(dp1673
S'LAC'
p1674
S'6.5'
p1675
ssg44
(dp1676
S'LAC'
p1677
S'6.5'
p1678
ssg47
(dp1679
S'SAC'
p1680
S'-3.5'
p1681
ssg51
(dp1682
S'LAC'
p1683
S'6.5'
p1684
ssg54
(dp1685
S'NY'
p1686
S'-4.5'
p1687
ssg58
(dp1688
S'LAC'
p1689
S'6.5'
p1690
ssg402
(dp1691
S'WAS'
p1692
g79
ssg61
(dp1693
S'LAC'
p1694
S'6.5'
p1695
ssg64
(dp1696
S'LAC'
p1697
S'6.5'
p1698
ssg67
(dp1699
S'LAC'
p1700
S'6.5'
p1701
ssg70
(dp1702
S'LAC'
p1703
S'6.5'
p1704
ssg73
(dp1705
S'LAC'
p1706
S'6.5'
p1707
ssg83
(dp1708
S'LAC'
p1709
S'6.5'
p1710
ssg86
(dp1711
S'LAC'
p1712
S'6.5'
p1713
ssg89
(dp1714
S'LAC'
p1715
S'6.5'
p1716
ssg92
(dp1717
S'CHI'
p1718
S'9.5'
p1719
ssS'DEC 10, 2014'
p1720
(dp1721
S'WAS'
p1722
g14
ssg96
(dp1723
S'LAC'
p1724
S'6.5'
p1725
ssg99
(dp1726
S'LAC'
p1727
S'6.5'
p1728
ssg102
(dp1729
S'LAC'
p1730
S'6.5'
p1731
ssg105
(dp1732
S'LAC'
p1733
S'6.5'
p1734
ssg108
(dp1735
S'LAC'
p1736
S'6.5'
p1737
ssg111
(dp1738
S'MIL'
p1739
S'-6.5'
p1740
ssg115
(dp1741
S'LAC'
p1742
S'6.5'
p1743
ssg125
(dp1744
S'LAC'
p1745
S'6.5'
p1746
ssg128
(dp1747
S'LAC'
p1748
S'6.5'
p1749
ssg131
(dp1750
S'LAC'
p1751
S'6.5'
p1752
ssg138
(dp1753
S'CHA'
p1754
S'5.5'
p1755
ssg141
(dp1756
S'LAC'
p1757
S'6.5'
p1758
ssg144
(dp1759
S'SAC'
p1760
S'-2.5'
p1761
ssg148
(dp1762
S'LAC'
p1763
S'6.5'
p1764
ssg151
(dp1765
S'LAC'
p1766
S'6.5'
p1767
ssg154
(dp1768
S'LAC'
p1769
S'6.5'
p1770
ssg157
(dp1771
S'LAC'
p1772
S'6.5'
p1773
ssg160
(dp1774
S'LAC'
p1775
S'6.5'
p1776
ssg163
(dp1777
S'LAC'
p1778
S'6.5'
p1779
ssg166
(dp1780
S'LAC'
p1781
S'6.5'
p1782
ssg169
(dp1783
S'LAC'
p1784
S'6.5'
p1785
ssg172
(dp1786
S'LAC'
p1787
S'6.5'
p1788
ssg175
(dp1789
S'LAC'
p1790
S'6.5'
p1791
ssg178
(dp1792
S'IND'
p1793
S'4.5'
p1794
ssg182
(dp1795
S'LAC'
p1796
S'6.5'
p1797
ssg185
(dp1798
S'LAC'
p1799
S'6.5'
p1800
ssg188
(dp1801
S'LAC'
p1802
S'6.5'
p1803
ssg289
(dp1804
S'LAC'
p1805
S'6.5'
p1806
ssg194
(dp1807
S'LAC'
p1808
S'6.5'
p1809
ssg197
(dp1810
S'LAC'
p1811
S'6.5'
p1812
ssg200
(dp1813
S'LAC'
p1814
S'6.5'
p1815
ssg203
(dp1816
S'LAC'
p1817
S'6.5'
p1818
ssg206
(dp1819
S'LAC'
p1820
S'6.5'
p1821
ssg209
(dp1822
S'LAC'
p1823
S'6.5'
p1824
ssg212
(dp1825
S'LAC'
p1826
S'6.5'
p1827
ssg215
(dp1828
S'LAC'
p1829
S'6.5'
p1830
ssg218
(dp1831
S'LAC'
p1832
S'6.5'
p1833
ssg221
(dp1834
S'PHO'
p1835
S'-3.5'
p1836
ssg225
(dp1837
S'LAC'
p1838
S'6.5'
p1839
ssg228
(dp1840
S'LAC'
p1841
S'6.5'
p1842
ssg235
(dp1843
S'LAC'
p1844
S'6.5'
p1845
ssg238
(dp1846
S'LAC'
p1847
S'6.5'
p1848
ssg241
(dp1849
S'LAC'
p1850
S'6.5'
p1851
ssg244
(dp1852
S'LAC'
p1853
S'6.5'
p1854
ssg247
(dp1855
S'LAC'
p1856
S'6.5'
p1857
ssg870
(dp1858
S'MIA'
p1859
S'-4'
p1860
ssg250
(dp1861
S'LAC'
p1862
S'6.5'
p1863
ssg253
(dp1864
S'LAC'
p1865
S'6.5'
p1866
ssg256
(dp1867
S'LAC'
p1868
S'6.5'
p1869
ssg259
(dp1870
S'LAC'
p1871
S'6.5'
p1872
ssg262
(dp1873
S'LAC'
p1874
S'6.5'
p1875
ssg265
(dp1876
S'LAC'
p1877
S'6.5'
p1878
ssg268
(dp1879
S'LAC'
p1880
S'6.5'
p1881
ssg271
(dp1882
S'LAC'
p1883
S'6.5'
p1884
ssg605
(dp1885
S'PHO'
p1886
S'9.5'
p1887
ssg274
(dp1888
S'LAC'
p1889
S'6.5'
p1890
ssg277
(dp1891
S'LAC'
p1892
S'6.5'
p1893
ssg280
(dp1894
S'LAC'
p1895
S'6.5'
p1896
ssg283
(dp1897
S'LAC'
p1898
S'6.5'
p1899
ssg286
(dp1900
S'LAC'
p1901
S'6.5'
p1902
ssg912
(dp1903
S'IND'
p1904
S'-4.5'
p1905
ssg292
(dp1906
S'LAC'
p1907
S'6.5'
p1908
ssg295
(dp1909
S'LAC'
p1910
S'6.5'
p1911
ssg298
(dp1912
S'NO'
p1913
g95
ssg302
(dp1914
S'LAC'
p1915
S'6.5'
p1916
ssg305
(dp1917
S'LAC'
p1918
S'6.5'
p1919
ssg308
(dp1920
S'LAC'
p1921
S'6.5'
p1922
ssg311
(dp1923
S'LAC'
p1924
S'6.5'
p1925
ssg80
(dp1926
S'LAC'
p1927
S'6.5'
p1928
ssg318
(dp1929
S'LAC'
p1930
S'6.5'
p1931
ssg321
(dp1932
S'PHO'
p1933
S'-1.5'
p1934
ssg325
(dp1935
S'LAC'
p1936
S'6.5'
p1937
ssg328
(dp1938
S'LAC'
p1939
S'6.5'
p1940
ssg331
(dp1941
S'LAC'
p1942
S'6.5'
p1943
ssg334
(dp1944
S'LAC'
p1945
S'6.5'
p1946
ssg337
(dp1947
S'LAC'
p1948
S'6.5'
p1949
ssg340
(dp1950
S'LAC'
p1951
S'6.5'
p1952
ssg343
(dp1953
S'LAC'
p1954
S'6.5'
p1955
ssg346
(dp1956
S'LAC'
p1957
S'6.5'
p1958
ssg349
(dp1959
S'LAC'
p1960
S'6.5'
p1961
ssg352
(dp1962
S'LAC'
p1963
S'6.5'
p1964
sssg971
(dp1965
g3
(dp1966
g968
S'-4'
p1967
ssg7
(dp1968
S'CHA'
p1969
S'-7.5'
p1970
ssg11
(dp1971
S'IND'
p1972
S'8.5'
p1973
ssg15
(dp1974
S'IND'
p1975
S'8.5'
p1976
ssg18
(dp1977
S'IND'
p1978
S'8.5'
p1979
ssg21
(dp1980
S'IND'
p1981
S'8.5'
p1982
ssg24
(dp1983
S'IND'
p1984
S'8.5'
p1985
ssg703
(dp1986
S'MIA'
p1987
g1601
ssg27
(dp1988
S'IND'
p1989
S'8.5'
p1990
ssg30
(dp1991
S'ATL'
p1992
S'10.5'
p1993
ssg34
(dp1994
S'MIL'
p1995
S'1'
p1996
ssg38
(dp1997
S'IND'
p1998
S'8.5'
p1999
ssg41
(dp2000
S'IND'
p2001
S'8.5'
p2002
ssg44
(dp2003
S'IND'
p2004
S'8.5'
p2005
ssg47
(dp2006
S'MIA'
p2007
S'-2'
p2008
ssg51
(dp2009
S'IND'
p2010
S'8.5'
p2011
ssg395
(dp2012
S'GS'
p2013
S'5.5'
p2014
ssg54
(dp2015
S'ORL'
p2016
S'-2.5'
p2017
ssg58
(dp2018
S'IND'
p2019
S'8.5'
p2020
ssg402
(dp2021
S'PHO'
p2022
S'4.5'
p2023
ssg61
(dp2024
S'IND'
p2025
S'8.5'
p2026
ssg64
(dp2027
S'IND'
p2028
S'8.5'
p2029
ssg67
(dp2030
S'IND'
p2031
S'8.5'
p2032
ssg70
(dp2033
S'IND'
p2034
S'8.5'
p2035
ssg73
(dp2036
S'IND'
p2037
S'8.5'
p2038
ssg83
(dp2039
S'IND'
p2040
S'8.5'
p2041
ssg86
(dp2042
S'IND'
p2043
S'8.5'
p2044
ssg89
(dp2045
S'IND'
p2046
S'8.5'
p2047
ssg92
(dp2048
S'TOR'
p2049
S'-2'
p2050
ssg1720
(dp2051
S'SAC'
p2052
g1996
ssg96
(dp2053
S'IND'
p2054
S'8.5'
p2055
ssg99
(dp2056
S'IND'
p2057
S'8.5'
p2058
ssg102
(dp2059
S'IND'
p2060
S'8.5'
p2061
ssg105
(dp2062
S'IND'
p2063
S'8.5'
p2064
ssg108
(dp2065
S'IND'
p2066
S'8.5'
p2067
ssg111
(dp2068
S'NY'
p2069
S'3.5'
p2070
ssg115
(dp2071
S'IND'
p2072
S'8.5'
p2073
ssg122
(dp2074
S'LAC'
p2075
S'8.5'
p2076
ssg125
(dp2077
S'IND'
p2078
S'8.5'
p2079
ssg128
(dp2080
S'IND'
p2081
S'8.5'
p2082
ssg131
(dp2083
S'IND'
p2084
S'8.5'
p2085
ssg134
(dp2086
S'ATL'
p2087
S'7'
p2088
ssg138
(dp2089
S'NY'
p2090
S'-9.5'
p2091
ssg141
(dp2092
S'IND'
p2093
S'8.5'
p2094
ssg148
(dp2095
S'IND'
p2096
S'8.5'
p2097
ssg151
(dp2098
S'IND'
p2099
S'8.5'
p2100
ssg154
(dp2101
S'IND'
p2102
S'8.5'
p2103
ssg157
(dp2104
S'IND'
p2105
S'8.5'
p2106
ssg488
(dp2107
S'PHO'
p2108
S'3.5'
p2109
ssg160
(dp2110
S'IND'
p2111
S'8.5'
p2112
ssg163
(dp2113
S'IND'
p2114
S'8.5'
p2115
ssg1109
(dp2116
S'ATL'
p2117
g95
ssg166
(dp2118
S'IND'
p2119
S'8.5'
p2120
ssg169
(dp2121
S'IND'
p2122
S'8.5'
p2123
ssg172
(dp2124
S'IND'
p2125
S'8.5'
p2126
ssg175
(dp2127
S'IND'
p2128
S'8.5'
p2129
ssg178
(dp2130
S'TOR'
p2131
S'7.5'
p2132
ssg182
(dp2133
S'IND'
p2134
S'8.5'
p2135
ssg185
(dp2136
S'IND'
p2137
S'8.5'
p2138
ssg188
(dp2139
S'IND'
p2140
S'8.5'
p2141
ssg289
(dp2142
S'IND'
p2143
S'8.5'
p2144
ssg194
(dp2145
S'IND'
p2146
S'8.5'
p2147
ssg197
(dp2148
S'IND'
p2149
S'8.5'
p2150
ssg200
(dp2151
S'IND'
p2152
S'8.5'
p2153
ssg203
(dp2154
S'IND'
p2155
S'8.5'
p2156
ssg206
(dp2157
S'IND'
p2158
S'8.5'
p2159
ssg209
(dp2160
S'IND'
p2161
S'8.5'
p2162
ssg212
(dp2163
S'IND'
p2164
S'8.5'
p2165
ssg215
(dp2166
S'IND'
p2167
S'8.5'
p2168
ssg218
(dp2169
S'IND'
p2170
S'8.5'
p2171
ssg225
(dp2172
S'IND'
p2173
S'8.5'
p2174
ssg228
(dp2175
S'IND'
p2176
S'8.5'
p2177
ssg235
(dp2178
S'IND'
p2179
S'8.5'
p2180
ssg238
(dp2181
S'IND'
p2182
S'8.5'
p2183
ssg241
(dp2184
S'IND'
p2185
S'8.5'
p2186
ssg244
(dp2187
S'IND'
p2188
S'8.5'
p2189
ssg247
(dp2190
S'IND'
p2191
S'8.5'
p2192
ssg250
(dp2193
S'IND'
p2194
S'8.5'
p2195
ssg253
(dp2196
S'IND'
p2197
S'8.5'
p2198
ssg256
(dp2199
S'IND'
p2200
S'8.5'
p2201
ssg259
(dp2202
S'IND'
p2203
S'8.5'
p2204
ssg262
(dp2205
S'IND'
p2206
S'8.5'
p2207
ssg265
(dp2208
S'IND'
p2209
S'8.5'
p2210
ssg268
(dp2211
S'IND'
p2212
S'8.5'
p2213
ssg271
(dp2214
S'IND'
p2215
S'8.5'
p2216
ssg605
(dp2217
S'PHI'
p2218
S'-6.5'
p2219
ssg274
(dp2220
S'IND'
p2221
S'8.5'
p2222
ssg277
(dp2223
S'IND'
p2224
S'8.5'
p2225
ssg280
(dp2226
S'IND'
p2227
S'8.5'
p2228
ssg283
(dp2229
S'IND'
p2230
S'8.5'
p2231
ssg904
(dp2232
S'MIA'
p2233
g720
ssg286
(dp2234
S'IND'
p2235
S'8.5'
p2236
ssg292
(dp2237
S'IND'
p2238
S'8.5'
p2239
ssg295
(dp2240
S'IND'
p2241
S'8.5'
p2242
ssg298
(dp2243
S'CHA'
p2244
S'-5.5'
p2245
ssg302
(dp2246
S'IND'
p2247
S'8.5'
p2248
ssg305
(dp2249
S'IND'
p2250
S'8.5'
p2251
ssg308
(dp2252
S'IND'
p2253
S'8.5'
p2254
ssg311
(dp2255
S'IND'
p2256
S'8.5'
p2257
ssg80
(dp2258
S'IND'
p2259
S'8.5'
p2260
ssg318
(dp2261
S'IND'
p2262
S'8.5'
p2263
ssg321
(dp2264
S'TOR'
p2265
g1601
ssg325
(dp2266
S'IND'
p2267
S'8.5'
p2268
ssg328
(dp2269
S'IND'
p2270
S'8.5'
p2271
ssg331
(dp2272
S'IND'
p2273
S'8.5'
p2274
ssg334
(dp2275
S'IND'
p2276
S'8.5'
p2277
ssg337
(dp2278
S'IND'
p2279
S'8.5'
p2280
ssg340
(dp2281
S'IND'
p2282
S'8.5'
p2283
ssg343
(dp2284
S'IND'
p2285
S'8.5'
p2286
ssg346
(dp2287
S'IND'
p2288
S'8.5'
p2289
ssg349
(dp2290
S'IND'
p2291
S'8.5'
p2292
ssg352
(dp2293
S'IND'
p2294
S'8.5'
p2295
sssg360
(dp2296
g7
(dp2297
S'MIN'
p2298
S'33.5'
p2299
ssg11
(dp2300
S'OKC'
p2301
S'N/A'
p2302
ssg15
(dp2303
S'OKC'
p2304
g2302
ssg18
(dp2305
S'OKC'
p2306
g2302
ssg21
(dp2307
S'OKC'
p2308
g2302
ssg24
(dp2309
S'OKC'
p2310
g2302
ssg703
(dp2311
S'ORL'
p2312
S'-3'
p2313
ssg27
(dp2314
S'OKC'
p2315
g2302
ssg30
(dp2316
S'LAC'
p2317
S'10'
p2318
ssS'MAR 09, 2015'
p2319
(dp2320
S'LAC'
p2321
S'7.5'
p2322
ssg38
(dp2323
S'OKC'
p2324
g2302
ssg41
(dp2325
S'OKC'
p2326
g2302
ssg44
(dp2327
S'OKC'
p2328
g2302
ssS'JAN 09, 2015'
p2329
(dp2330
S'LAC'
p2331
S'7.5'
p2332
ssg51
(dp2333
S'OKC'
p2334
g2302
ssg58
(dp2335
S'OKC'
p2336
g2302
ssg402
(dp2337
S'POR'
p2338
S'-2.5'
p2339
ssg61
(dp2340
S'OKC'
p2341
g2302
ssg64
(dp2342
S'OKC'
p2343
g2302
ssg67
(dp2344
S'OKC'
p2345
g2302
ssg70
(dp2346
S'OKC'
p2347
g2302
ssg73
(dp2348
S'OKC'
p2349
g2302
ssg80
(dp2350
S'OKC'
p2351
g2302
ssg83
(dp2352
S'OKC'
p2353
g2302
ssg86
(dp2354
S'OKC'
p2355
g2302
ssg89
(dp2356
S'OKC'
p2357
g2302
ssg92
(dp2358
S'SA'
p2359
S'13'
p2360
ssg96
(dp2361
S'OKC'
p2362
g2302
ssg99
(dp2363
S'OKC'
p2364
g2302
ssg102
(dp2365
S'OKC'
p2366
g2302
ssg442
(dp2367
S'MEM'
p2368
S'-1.5'
p2369
ssg105
(dp2370
S'OKC'
p2371
g2302
ssg108
(dp2372
S'OKC'
p2373
g2302
ssg115
(dp2374
S'OKC'
p2375
g2302
ssg118
(dp2376
S'MIL'
p2377
S'5.5'
p2378
ssg125
(dp2379
S'OKC'
p2380
g2302
ssg128
(dp2381
S'OKC'
p2382
g2302
ssg131
(dp2383
S'OKC'
p2384
g2302
ssg138
(dp2385
S'UTA'
p2386
g95
ssS'APR 08, 2015'
p2387
(dp2388
S'LAC'
p2389
S'7.5'
p2390
ssg141
(dp2391
S'OKC'
p2392
g2302
ssS'MAR 08, 2015'
p2393
(dp2394
S'LAC'
p2395
S'7.5'
p2396
ssg148
(dp2397
S'OKC'
p2398
g2302
ssg151
(dp2399
S'OKC'
p2400
g2302
ssg154
(dp2401
S'OKC'
p2402
g2302
ssg157
(dp2403
S'OKC'
p2404
g2302
ssg787
(dp2405
S'TOR'
p2406
S'10'
p2407
ssg160
(dp2408
S'OKC'
p2409
g2302
ssg163
(dp2410
S'OKC'
p2411
g2302
ssg166
(dp2412
S'OKC'
p2413
g2302
ssg169
(dp2414
S'OKC'
p2415
g2302
ssg172
(dp2416
S'OKC'
p2417
g2302
ssg175
(dp2418
S'OKC'
p2419
g2302
ssg178
(dp2420
S'BOS'
p2421
S'3.5'
p2422
ssg182
(dp2423
S'OKC'
p2424
g2302
ssg185
(dp2425
S'OKC'
p2426
g2302
ssg188
(dp2427
S'OKC'
p2428
g2302
ssg191
(dp2429
S'OKC'
p2430
S'12.5'
p2431
ssS'FEB 09, 2015'
p2432
(dp2433
S'LAC'
p2434
S'7.5'
p2435
ssg194
(dp2436
S'OKC'
p2437
g2302
ssS'FEB 10, 2015'
p2438
(dp2439
S'LAC'
p2440
S'7.5'
p2441
ssg197
(dp2442
S'OKC'
p2443
g2302
ssg200
(dp2444
S'OKC'
p2445
g2302
ssg203
(dp2446
S'OKC'
p2447
g2302
ssg206
(dp2448
S'OKC'
p2449
g2302
ssg1493
(dp2450
S'NO'
p2451
S'4.5'
p2452
ssg209
(dp2453
S'OKC'
p2454
g2302
ssg212
(dp2455
S'OKC'
p2456
g2302
ssg215
(dp2457
S'OKC'
p2458
g2302
ssS'MAR 07, 2015'
p2459
(dp2460
S'LAC'
p2461
S'7.5'
p2462
ssg218
(dp2463
S'OKC'
p2464
g2302
ssg221
(dp2465
S'CHI'
p2466
S'9.5'
p2467
ssg238
(dp2468
S'OKC'
p2469
g2302
ssg228
(dp2470
S'OKC'
p2471
g2302
ssg235
(dp2472
S'OKC'
p2473
g2302
ssg225
(dp2474
S'OKC'
p2475
g2302
ssg241
(dp2476
S'OKC'
p2477
g2302
ssS'JAN 07, 2015'
p2478
(dp2479
S'LAC'
p2480
S'7.5'
p2481
ssg571
(dp2482
S'CHI'
p2483
S'10.5'
p2484
ssS'JAN 08, 2015'
p2485
(dp2486
S'LAC'
p2487
S'7.5'
p2488
ssS'FEB 08, 2015'
p2489
(dp2490
S'LAC'
p2491
S'7.5'
p2492
ssg244
(dp2493
S'OKC'
p2494
g2302
ssg340
(dp2495
S'OKC'
p2496
g2302
ssg247
(dp2497
S'OKC'
p2498
g2302
ssg870
(dp2499
S'PHI'
p2500
S'-7.5'
p2501
ssg250
(dp2502
S'OKC'
p2503
g2302
ssg253
(dp2504
S'OKC'
p2505
g2302
ssg256
(dp2506
S'OKC'
p2507
g2302
ssg259
(dp2508
S'OKC'
p2509
g2302
ssg262
(dp2510
S'OKC'
p2511
g2302
ssg265
(dp2512
S'OKC'
p2513
g2302
ssg268
(dp2514
S'OKC'
p2515
g2302
ssg271
(dp2516
S'OKC'
p2517
g2302
ssg274
(dp2518
S'OKC'
p2519
g2302
ssg277
(dp2520
S'OKC'
p2521
g2302
ssg280
(dp2522
S'OKC'
p2523
g2302
ssg283
(dp2524
S'OKC'
p2525
g2302
ssg286
(dp2526
S'OKC'
p2527
g2302
ssg289
(dp2528
S'OKC'
p2529
g2302
ssg912
(dp2530
S'LAL'
p2531
S'2.5'
p2532
ssg292
(dp2533
S'OKC'
p2534
g2302
ssg295
(dp2535
S'OKC'
p2536
g2302
ssg298
(dp2537
S'MIN'
p2538
g2088
ssg302
(dp2539
S'OKC'
p2540
g2302
ssg305
(dp2541
S'OKC'
p2542
g2302
ssg308
(dp2543
S'OKC'
p2544
g2302
ssg311
(dp2545
S'OKC'
p2546
g2302
ssg314
(dp2547
S'UTA'
p2548
S'-9.5'
p2549
ssg318
(dp2550
S'OKC'
p2551
g2302
ssg321
(dp2552
S'ORL'
p2553
S'-12.5'
p2554
ssg325
(dp2555
S'OKC'
p2556
g2302
ssg328
(dp2557
S'OKC'
p2558
g2302
ssg331
(dp2559
S'OKC'
p2560
g2302
ssS'APR 07, 2015'
p2561
(dp2562
S'LAC'
p2563
S'7.5'
p2564
ssg343
(dp2565
S'OKC'
p2566
g2302
ssS'FEB 07, 2015'
p2567
(dp2568
S'LAC'
p2569
S'7.5'
p2570
ssg334
(dp2571
S'OKC'
p2572
g2302
ssg337
(dp2573
S'OKC'
p2574
g2302
ssS'JAN 10, 2015'
p2575
(dp2576
S'LAC'
p2577
S'7.5'
p2578
ssS'APR 09, 2015'
p2579
(dp2580
S'LAC'
p2581
S'7.5'
p2582
ssg346
(dp2583
S'OKC'
p2584
g2302
ssg349
(dp2585
S'OKC'
p2586
g2302
ssg352
(dp2587
S'OKC'
p2588
g2302
sssg685
(dp2589
g683
(dp2590
g681
g720
ssg3
(dp2591
S'OKC'
p2592
S'15.5'
p2593
ssg7
(dp2594
S'MIL'
p2595
S'-8'
p2596
ssg11
(dp2597
S'POR'
p2598
g790
ssg15
(dp2599
S'POR'
p2600
g790
ssg18
(dp2601
S'POR'
p2602
g790
ssg21
(dp2603
S'POR'
p2604
g790
ssg24
(dp2605
S'POR'
p2606
g790
ssg703
(dp2607
S'MEM'
p2608
g79
ssg27
(dp2609
S'POR'
p2610
g790
ssg30
(dp2611
S'POR'
p2612
S'5.5'
p2613
ssg38
(dp2614
S'POR'
p2615
g790
ssg41
(dp2616
S'POR'
p2617
g790
ssg44
(dp2618
S'POR'
p2619
g790
ssg51
(dp2620
S'POR'
p2621
g790
ssg395
(dp2622
S'DAL'
p2623
g10
ssg54
(dp2624
S'HOU'
p2625
g720
ssg58
(dp2626
S'POR'
p2627
g790
ssg402
(dp2628
S'LAL'
p2629
S'-10.5'
p2630
ssg61
(dp2631
S'POR'
p2632
g790
ssg64
(dp2633
S'POR'
p2634
g790
ssg67
(dp2635
S'POR'
p2636
g790
ssg70
(dp2637
S'POR'
p2638
g790
ssg73
(dp2639
S'POR'
p2640
g790
ssg80
(dp2641
S'POR'
p2642
g790
ssg83
(dp2643
S'POR'
p2644
g790
ssg86
(dp2645
S'POR'
p2646
g790
ssg89
(dp2647
S'POR'
p2648
g790
ssg92
(dp2649
S'SAC'
p2650
S'-6.5'
p2651
ssg96
(dp2652
S'POR'
p2653
g790
ssg99
(dp2654
S'POR'
p2655
g790
ssg102
(dp2656
S'POR'
p2657
g790
ssg105
(dp2658
S'POR'
p2659
g790
ssg108
(dp2660
S'POR'
p2661
g790
ssg111
(dp2662
S'CLE'
p2663
S'4.5'
p2664
ssg115
(dp2665
S'POR'
p2666
g790
ssg122
(dp2667
S'ATL'
p2668
g14
ssg125
(dp2669
S'POR'
p2670
g790
ssg128
(dp2671
S'POR'
p2672
g790
ssg131
(dp2673
S'POR'
p2674
g790
ssg138
(dp2675
S'LAL'
p2676
S'-9.5'
p2677
ssg141
(dp2678
S'POR'
p2679
g790
ssg148
(dp2680
S'POR'
p2681
g790
ssg151
(dp2682
S'POR'
p2683
g790
ssg154
(dp2684
S'POR'
p2685
g790
ssg157
(dp2686
S'POR'
p2687
g790
ssg488
(dp2688
S'MEM'
p2689
S'-1'
p2690
ssg160
(dp2691
S'POR'
p2692
g790
ssg163
(dp2693
S'POR'
p2694
g790
ssg166
(dp2695
S'POR'
p2696
g790
ssg169
(dp2697
S'POR'
p2698
g790
ssS'MAR 10, 2015'
p2699
(dp2700
S'IND'
p2701
g95
ssg172
(dp2702
S'POR'
p2703
g790
ssg175
(dp2704
S'POR'
p2705
g790
ssg178
(dp2706
S'OKC'
p2707
S'-4'
p2708
ssg182
(dp2709
S'POR'
p2710
g790
ssg185
(dp2711
S'POR'
p2712
g790
ssg188
(dp2713
S'POR'
p2714
g790
ssg289
(dp2715
S'POR'
p2716
g790
ssg822
(dp2717
S'MIA'
p2718
g720
ssg194
(dp2719
S'POR'
p2720
g790
ssg197
(dp2721
S'POR'
p2722
g790
ssg200
(dp2723
S'POR'
p2724
g790
ssg203
(dp2725
S'POR'
p2726
g790
ssg206
(dp2727
S'POR'
p2728
g790
ssg1493
(dp2729
S'DEN'
p2730
S'-4.5'
p2731
ssg209
(dp2732
S'POR'
p2733
g790
ssg212
(dp2734
S'POR'
p2735
g790
ssg215
(dp2736
S'POR'
p2737
g790
ssg218
(dp2738
S'POR'
p2739
g790
ssg221
(dp2740
S'HOU'
p2741
S'3.5'
p2742
ssg848
(dp2743
S'MIA'
p2744
g720
ssg852
(dp2745
S'MIA'
p2746
g720
ssg225
(dp2747
S'POR'
p2748
g790
ssg228
(dp2749
S'POR'
p2750
g790
ssg235
(dp2751
S'POR'
p2752
g790
ssg238
(dp2753
S'POR'
p2754
g790
ssg241
(dp2755
S'POR'
p2756
g790
ssg244
(dp2757
S'POR'
p2758
g790
ssg247
(dp2759
S'POR'
p2760
g790
ssg250
(dp2761
S'POR'
p2762
g790
ssg253
(dp2763
S'POR'
p2764
g790
ssg256
(dp2765
S'POR'
p2766
g790
ssg259
(dp2767
S'POR'
p2768
g790
ssg262
(dp2769
S'POR'
p2770
g790
ssg883
(dp2771
S'MIA'
p2772
g720
ssg265
(dp2773
S'POR'
p2774
g790
ssg268
(dp2775
S'POR'
p2776
g790
ssg271
(dp2777
S'POR'
p2778
g790
ssg605
(dp2779
S'CLE'
p2780
S'-1.5'
p2781
ssg274
(dp2782
S'POR'
p2783
g790
ssg277
(dp2784
S'POR'
p2785
g790
ssg280
(dp2786
S'POR'
p2787
g790
ssg283
(dp2788
S'POR'
p2789
g790
ssg286
(dp2790
S'POR'
p2791
g790
ssg912
(dp2792
S'ORL'
p2793
S'-5'
p2794
ssg292
(dp2795
S'POR'
p2796
g790
ssg295
(dp2797
S'POR'
p2798
g790
ssg298
(dp2799
S'DET'
p2800
S'-5'
p2801
ssg302
(dp2802
S'POR'
p2803
g790
ssg305
(dp2804
S'POR'
p2805
g790
ssg308
(dp2806
S'POR'
p2807
g790
ssg311
(dp2808
S'POR'
p2809
g790
ssg314
(dp2810
S'HOU'
p2811
S'15'
p2812
ssg318
(dp2813
S'POR'
p2814
g790
ssg321
(dp2815
S'DAL'
p2816
S'8.5'
p2817
ssg325
(dp2818
S'POR'
p2819
g790
ssg328
(dp2820
S'POR'
p2821
g790
ssg331
(dp2822
S'POR'
p2823
g790
ssg334
(dp2824
S'POR'
p2825
g790
ssg337
(dp2826
S'POR'
p2827
g790
ssg340
(dp2828
S'POR'
p2829
g790
ssg956
(dp2830
S'MIA'
p2831
g720
ssg343
(dp2832
S'POR'
p2833
g790
ssg346
(dp2834
S'POR'
p2835
g790
ssg349
(dp2836
S'POR'
p2837
g790
ssg352
(dp2838
S'POR'
p2839
g790
sssS'DAL'
p2840
(dp2841
g7
(dp2842
S'IND'
p2843
S'1.5'
p2844
ssg11
(dp2845
S'CLE'
p2846
S'14.5'
p2847
ssg15
(dp2848
S'CLE'
p2849
S'14.5'
p2850
ssg18
(dp2851
S'CLE'
p2852
S'14.5'
p2853
ssg21
(dp2854
S'CLE'
p2855
S'14.5'
p2856
ssg24
(dp2857
S'CLE'
p2858
S'14.5'
p2859
ssg703
(dp2860
S'UTA'
p2861
S'-4.5'
p2862
ssg27
(dp2863
S'CLE'
p2864
S'14.5'
p2865
ssg30
(dp2866
S'GS'
p2867
S'6.5'
p2868
ssg38
(dp2869
S'CLE'
p2870
S'14.5'
p2871
ssg41
(dp2872
S'CLE'
p2873
S'14.5'
p2874
ssg44
(dp2875
S'CLE'
p2876
S'14.5'
p2877
ssg47
(dp2878
S'CLE'
p2879
S'-7.5'
p2880
ssg51
(dp2881
S'CLE'
p2882
S'14.5'
p2883
ssg395
(dp2884
S'NO'
p2885
S'-8'
p2886
ssg54
(dp2887
S'BOS'
p2888
S'-6'
p2889
ssg58
(dp2890
S'CLE'
p2891
S'14.5'
p2892
ssg61
(dp2893
S'CLE'
p2894
S'14.5'
p2895
ssg64
(dp2896
S'CLE'
p2897
S'14.5'
p2898
ssg67
(dp2899
S'CLE'
p2900
S'14.5'
p2901
ssg70
(dp2902
S'CLE'
p2903
S'14.5'
p2904
ssg73
(dp2905
S'CLE'
p2906
S'14.5'
p2907
ssg80
(dp2908
S'CLE'
p2909
S'14.5'
p2910
ssg83
(dp2911
S'CLE'
p2912
S'14.5'
p2913
ssg86
(dp2914
S'CLE'
p2915
S'14.5'
p2916
ssg89
(dp2917
S'CLE'
p2918
S'14.5'
p2919
ssg1720
(dp2920
S'IND'
p2921
S'-2.5'
p2922
ssg96
(dp2923
S'CLE'
p2924
S'14.5'
p2925
ssg99
(dp2926
S'CLE'
p2927
S'14.5'
p2928
ssg102
(dp2929
S'CLE'
p2930
S'14.5'
p2931
ssg105
(dp2932
S'CLE'
p2933
S'14.5'
p2934
ssg108
(dp2935
S'CLE'
p2936
S'14.5'
p2937
ssg111
(dp2938
S'HOU'
p2939
S'-5'
p2940
ssg115
(dp2941
S'CLE'
p2942
S'14.5'
p2943
ssg122
(dp2944
S'MIN'
p2945
S'-10'
p2946
ssg125
(dp2947
S'CLE'
p2948
S'14.5'
p2949
ssg128
(dp2950
S'CLE'
p2951
S'14.5'
p2952
ssg131
(dp2953
S'CLE'
p2954
S'14.5'
p2955
ssg138
(dp2956
S'OKC'
p2957
S'2.5'
p2958
ssg247
(dp2959
S'CLE'
p2960
S'14.5'
p2961
ssg144
(dp2962
S'GS'
p2963
S'5.5'
p2964
ssg148
(dp2965
S'CLE'
p2966
S'14.5'
p2967
ssg151
(dp2968
S'CLE'
p2969
S'14.5'
p2970
ssg154
(dp2971
S'CLE'
p2972
S'14.5'
p2973
ssg157
(dp2974
S'CLE'
p2975
S'14.5'
p2976
ssg488
(dp2977
S'POR'
p2978
S'1.5'
p2979
ssg160
(dp2980
S'CLE'
p2981
S'14.5'
p2982
ssg163
(dp2983
S'CLE'
p2984
S'14.5'
p2985
ssg166
(dp2986
S'CLE'
p2987
S'14.5'
p2988
ssg169
(dp2989
S'CLE'
p2990
S'14.5'
p2991
ssg172
(dp2992
S'CLE'
p2993
S'14.5'
p2994
ssg175
(dp2995
S'CLE'
p2996
S'14.5'
p2997
ssg178
(dp2998
S'GS'
p2999
g10
ssg809
(dp3000
S'CHA'
p3001
S'-4'
p3002
ssg182
(dp3003
S'CLE'
p3004
S'14.5'
p3005
ssg185
(dp3006
S'CLE'
p3007
S'14.5'
p3008
ssg188
(dp3009
S'CLE'
p3010
S'14.5'
p3011
ssg191
(dp3012
S'LAL'
p3013
S'-4'
p3014
ssg194
(dp3015
S'CLE'
p3016
S'14.5'
p3017
ssg197
(dp3018
S'CLE'
p3019
S'14.5'
p3020
ssg200
(dp3021
S'CLE'
p3022
S'14.5'
p3023
ssg203
(dp3024
S'CLE'
p3025
S'14.5'
p3026
ssg206
(dp3027
S'CLE'
p3028
S'14.5'
p3029
ssg209
(dp3030
S'CLE'
p3031
S'14.5'
p3032
ssg212
(dp3033
S'CLE'
p3034
S'14.5'
p3035
ssg215
(dp3036
S'CLE'
p3037
S'14.5'
p3038
ssg218
(dp3039
S'CLE'
p3040
S'14.5'
p3041
ssg225
(dp3042
S'CLE'
p3043
S'14.5'
p3044
ssg228
(dp3045
S'CLE'
p3046
S'14.5'
p3047
ssg231
(dp3048
S'SAC'
p3049
S'-8'
p3050
ssg235
(dp3051
S'CLE'
p3052
S'14.5'
p3053
ssg238
(dp3054
S'CLE'
p3055
S'14.5'
p3056
ssg241
(dp3057
S'CLE'
p3058
S'14.5'
p3059
ssg244
(dp3060
S'CLE'
p3061
S'14.5'
p3062
ssg141
(dp3063
S'CLE'
p3064
S'14.5'
p3065
ssg250
(dp3066
S'CLE'
p3067
S'14.5'
p3068
ssg253
(dp3069
S'CLE'
p3070
S'14.5'
p3071
ssg256
(dp3072
S'CLE'
p3073
S'14.5'
p3074
ssg259
(dp3075
S'CLE'
p3076
S'14.5'
p3077
ssg262
(dp3078
S'CLE'
p3079
S'14.5'
p3080
ssg265
(dp3081
S'CLE'
p3082
S'14.5'
p3083
ssg268
(dp3084
S'CLE'
p3085
S'14.5'
p3086
ssg271
(dp3087
S'CLE'
p3088
S'14.5'
p3089
ssg274
(dp3090
S'CLE'
p3091
S'14.5'
p3092
ssg277
(dp3093
S'CLE'
p3094
S'14.5'
p3095
ssg280
(dp3096
S'CLE'
p3097
S'14.5'
p3098
ssg283
(dp3099
S'CLE'
p3100
S'14.5'
p3101
ssg286
(dp3102
S'CLE'
p3103
S'14.5'
p3104
ssg289
(dp3105
S'CLE'
p3106
S'14.5'
p3107
ssg912
(dp3108
S'TOR'
p3109
g720
ssg292
(dp3110
S'CLE'
p3111
S'14.5'
p3112
ssg295
(dp3113
S'CLE'
p3114
S'14.5'
p3115
ssg302
(dp3116
S'CLE'
p3117
S'14.5'
p3118
ssg305
(dp3119
S'CLE'
p3120
S'14.5'
p3121
ssg308
(dp3122
S'CLE'
p3123
S'14.5'
p3124
ssg311
(dp3125
S'CLE'
p3126
S'14.5'
p3127
ssg314
(dp3128
S'PHO'
p3129
S'-4.5'
p3130
ssg318
(dp3131
S'CLE'
p3132
S'14.5'
p3133
ssg321
(dp3134
S'NO'
p3135
S'-8.5'
p3136
ssg936
(dp3137
S'HOU'
p3138
S'-2.5'
p3139
ssg325
(dp3140
S'CLE'
p3141
S'14.5'
p3142
ssg328
(dp3143
S'CLE'
p3144
S'14.5'
p3145
ssg331
(dp3146
S'CLE'
p3147
S'14.5'
p3148
ssg334
(dp3149
S'CLE'
p3150
S'14.5'
p3151
ssg337
(dp3152
S'CLE'
p3153
S'14.5'
p3154
ssg340
(dp3155
S'CLE'
p3156
S'14.5'
p3157
ssg343
(dp3158
S'CLE'
p3159
S'14.5'
p3160
ssg346
(dp3161
S'CLE'
p3162
S'14.5'
p3163
ssg349
(dp3164
S'CLE'
p3165
S'14.5'
p3166
ssg352
(dp3167
S'CLE'
p3168
S'14.5'
p3169
sssS'POR'
p3170
(dp3171
g3
(dp3172
S'UTA'
p3173
S'-8.5'
p3174
ssg7
(dp3175
S'LAC'
p3176
g1601
ssg11
(dp3177
S'NO'
p3178
S'-4'
p3179
ssg15
(dp3180
S'NO'
p3181
S'-4'
p3182
ssg18
(dp3183
S'NO'
p3184
S'-4'
p3185
ssg21
(dp3186
S'NO'
p3187
S'-4'
p3188
ssg24
(dp3189
S'NO'
p3190
S'-4'
p3191
ssg703
(dp3192
S'SA'
p3193
S'7.5'
p3194
ssg27
(dp3195
S'NO'
p3196
S'-4'
p3197
ssg30
(dp3198
S'NO'
p3199
S'-5.5'
p3200
ssg34
(dp3201
S'MIN'
p3202
g790
ssg38
(dp3203
S'NO'
p3204
S'-4'
p3205
ssg41
(dp3206
S'NO'
p3207
S'-4'
p3208
ssg44
(dp3209
S'NO'
p3210
S'-4'
p3211
ssg51
(dp3212
S'NO'
p3213
S'-4'
p3214
ssg58
(dp3215
S'NO'
p3216
S'-4'
p3217
ssg402
(dp3218
S'DEN'
p3219
S'2.5'
p3220
ssg61
(dp3221
S'NO'
p3222
S'-4'
p3223
ssg64
(dp3224
S'NO'
p3225
S'-4'
p3226
ssg67
(dp3227
S'NO'
p3228
S'-4'
p3229
ssg70
(dp3230
S'NO'
p3231
S'-4'
p3232
ssg73
(dp3233
S'NO'
p3234
S'-4'
p3235
ssg83
(dp3236
S'NO'
p3237
S'-4'
p3238
ssg86
(dp3239
S'NO'
p3240
S'-4'
p3241
ssg89
(dp3242
S'NO'
p3243
S'-4'
p3244
ssg92
(dp3245
S'LAL'
p3246
S'-10.5'
p3247
ssg1720
(dp3248
S'LAC'
p3249
S'-2'
p3250
ssg96
(dp3251
S'NO'
p3252
S'-4'
p3253
ssg99
(dp3254
S'NO'
p3255
S'-4'
p3256
ssg102
(dp3257
S'NO'
p3258
S'-4'
p3259
ssg442
(dp3260
S'ATL'
p3261
S'-6'
p3262
ssg105
(dp3263
S'NO'
p3264
S'-4'
p3265
ssg108
(dp3266
S'NO'
p3267
S'-4'
p3268
ssg115
(dp3269
S'NO'
p3270
S'-4'
p3271
ssg125
(dp3272
S'NO'
p3273
S'-4'
p3274
ssg128
(dp3275
S'NO'
p3276
S'-4'
p3277
ssg131
(dp3278
S'NO'
p3279
S'-4'
p3280
ssg134
(dp3281
S'UTA'
p3282
g2088
ssg138
(dp3283
S'LAC'
p3284
S'-3'
p3285
ssg141
(dp3286
S'NO'
p3287
S'-4'
p3288
ssg144
(dp3289
S'MEM'
p3290
g14
ssg148
(dp3291
S'NO'
p3292
S'-4'
p3293
ssg151
(dp3294
S'NO'
p3295
S'-4'
p3296
ssg154
(dp3297
S'NO'
p3298
S'-4'
p3299
ssg157
(dp3300
S'NO'
p3301
S'-4'
p3302
ssg488
(dp3303
S'DAL'
p3304
S'-1.5'
p3305
ssg787
(dp3306
S'IND'
p3307
S'2.5'
p3308
ssg160
(dp3309
S'NO'
p3310
S'-4'
p3311
ssg163
(dp3312
S'NO'
p3313
S'-4'
p3314
ssg166
(dp3315
S'NO'
p3316
S'-4'
p3317
ssg169
(dp3318
S'NO'
p3319
S'-4'
p3320
ssg172
(dp3321
S'NO'
p3322
S'-4'
p3323
ssg175
(dp3324
S'NO'
p3325
S'-4'
p3326
ssg809
(dp3327
S'OKC'
p3328
S'-1'
p3329
ssg182
(dp3330
S'NO'
p3331
S'-4'
p3332
ssg185
(dp3333
S'NO'
p3334
S'-4'
p3335
ssg188
(dp3336
S'NO'
p3337
S'-4'
p3338
ssg289
(dp3339
S'NO'
p3340
S'-4'
p3341
ssg194
(dp3342
S'NO'
p3343
S'-4'
p3344
ssg197
(dp3345
S'NO'
p3346
S'-4'
p3347
ssg200
(dp3348
S'NO'
p3349
S'-4'
p3350
ssg203
(dp3351
S'NO'
p3352
S'-4'
p3353
ssg206
(dp3354
S'NO'
p3355
S'-4'
p3356
ssg1493
(dp3357
S'SAC'
p3358
S'-8'
p3359
ssg209
(dp3360
S'NO'
p3361
S'-4'
p3362
ssg212
(dp3363
S'NO'
p3364
S'-4'
p3365
ssg215
(dp3366
S'NO'
p3367
S'-4'
p3368
ssg218
(dp3369
S'NO'
p3370
S'-4'
p3371
ssg225
(dp3372
S'NO'
p3373
S'-4'
p3374
ssg228
(dp3375
S'NO'
p3376
S'-4'
p3377
ssg231
(dp3378
S'CHA'
p3379
S'-6.5'
p3380
ssg235
(dp3381
S'NO'
p3382
S'-4'
p3383
ssg238
(dp3384
S'NO'
p3385
S'-4'
p3386
ssg241
(dp3387
S'NO'
p3388
S'-4'
p3389
ssg244
(dp3390
S'NO'
p3391
S'-4'
p3392
ssg247
(dp3393
S'NO'
p3394
S'-4'
p3395
ssg870
(dp3396
S'UTA'
p3397
S'-8.5'
p3398
ssg250
(dp3399
S'NO'
p3400
S'-4'
p3401
ssg253
(dp3402
S'NO'
p3403
S'-4'
p3404
ssg256
(dp3405
S'NO'
p3406
S'-4'
p3407
ssg259
(dp3408
S'NO'
p3409
S'-4'
p3410
ssg262
(dp3411
S'NO'
p3412
S'-4'
p3413
ssg265
(dp3414
S'NO'
p3415
S'-4'
p3416
ssg268
(dp3417
S'NO'
p3418
S'-4'
p3419
ssg271
(dp3420
S'NO'
p3421
S'-4'
p3422
ssg605
(dp3423
S'CHI'
p3424
S'2.5'
p3425
ssg274
(dp3426
S'NO'
p3427
S'-4'
p3428
ssg277
(dp3429
S'NO'
p3430
S'-4'
p3431
ssg280
(dp3432
S'NO'
p3433
S'-4'
p3434
ssg283
(dp3435
S'NO'
p3436
S'-4'
p3437
ssg904
(dp3438
S'SA'
p3439
S'4.5'
p3440
ssg286
(dp3441
S'NO'
p3442
S'-4'
p3443
ssg292
(dp3444
S'NO'
p3445
S'-4'
p3446
ssg295
(dp3447
S'NO'
p3448
S'-4'
p3449
ssg298
(dp3450
S'LAC'
p3451
S'-1'
p3452
ssg302
(dp3453
S'NO'
p3454
S'-4'
p3455
ssg305
(dp3456
S'NO'
p3457
S'-4'
p3458
ssg308
(dp3459
S'NO'
p3460
S'-4'
p3461
ssg311
(dp3462
S'NO'
p3463
S'-4'
p3464
ssg80
(dp3465
S'NO'
p3466
S'-4'
p3467
ssg318
(dp3468
S'NO'
p3469
S'-4'
p3470
ssg321
(dp3471
S'BOS'
p3472
S'-12'
p3473
ssg325
(dp3474
S'NO'
p3475
S'-4'
p3476
ssg328
(dp3477
S'NO'
p3478
S'-4'
p3479
ssg331
(dp3480
S'NO'
p3481
S'-4'
p3482
ssg334
(dp3483
S'NO'
p3484
S'-4'
p3485
ssg337
(dp3486
S'NO'
p3487
S'-4'
p3488
ssg340
(dp3489
S'NO'
p3490
S'-4'
p3491
ssg343
(dp3492
S'NO'
p3493
S'-4'
p3494
ssg346
(dp3495
S'NO'
p3496
S'-4'
p3497
ssg349
(dp3498
S'NO'
p3499
S'-4'
p3500
ssg352
(dp3501
S'NO'
p3502
S'-4'
p3503
sssS'ORL'
p3504
(dp3505
g3
(dp3506
S'WAS'
p3507
S'7.5'
p3508
ssg7
(dp3509
S'MEM'
p3510
S'1.5'
p3511
ssg11
(dp3512
S'WAS'
p3513
g1996
ssg15
(dp3514
S'WAS'
p3515
g1996
ssg18
(dp3516
S'WAS'
p3517
g1996
ssg21
(dp3518
S'WAS'
p3519
g1996
ssg24
(dp3520
S'WAS'
p3521
g1996
ssg703
(dp3522
S'DEN'
p3523
g14
ssg27
(dp3524
S'WAS'
p3525
g1996
ssg30
(dp3526
S'MIL'
p3527
g1601
ssg38
(dp3528
S'WAS'
p3529
g1996
ssg41
(dp3530
S'WAS'
p3531
g1996
ssg44
(dp3532
S'WAS'
p3533
g1996
ssg51
(dp3534
S'WAS'
p3535
g1996
ssg54
(dp3536
S'BK'
p3537
S'2.5'
p3538
ssg58
(dp3539
S'WAS'
p3540
g1996
ssg402
(dp3541
S'NY'
p3542
S'6.5'
p3543
ssg61
(dp3544
S'WAS'
p3545
g1996
ssg64
(dp3546
S'WAS'
p3547
g1996
ssg67
(dp3548
S'WAS'
p3549
g1996
ssg70
(dp3550
S'WAS'
p3551
g1996
ssg73
(dp3552
S'WAS'
p3553
g1996
ssg83
(dp3554
S'WAS'
p3555
g1996
ssg86
(dp3556
S'WAS'
p3557
g1996
ssg89
(dp3558
S'WAS'
p3559
g1996
ssg92
(dp3560
S'MIN'
p3561
S'-4.5'
p3562
ssg96
(dp3563
S'WAS'
p3564
g1996
ssg99
(dp3565
S'WAS'
p3566
g1996
ssg102
(dp3567
S'WAS'
p3568
g1996
ssg442
(dp3569
S'CHA'
p3570
S'-4'
p3571
ssg105
(dp3572
S'WAS'
p3573
g1996
ssg108
(dp3574
S'WAS'
p3575
g1996
ssg115
(dp3576
S'WAS'
p3577
g1996
ssg122
(dp3578
S'OKC'
p3579
S'10.5'
p3580
ssg125
(dp3581
S'WAS'
p3582
g1996
ssg128
(dp3583
S'WAS'
p3584
g1996
ssg131
(dp3585
S'WAS'
p3586
g1996
ssg134
(dp3587
S'HOU'
p3588
g1601
ssg138
(dp3589
S'SA'
p3590
S'10'
p3591
ssg141
(dp3592
S'WAS'
p3593
g1996
ssg148
(dp3594
S'WAS'
p3595
g1996
ssg151
(dp3596
S'WAS'
p3597
g1996
ssg154
(dp3598
S'WAS'
p3599
g1996
ssg157
(dp3600
S'WAS'
p3601
g1996
ssg488
(dp3602
S'MIN'
p3603
S'1.5'
p3604
ssg787
(dp3605
S'UTA'
p3606
g790
ssg160
(dp3607
S'WAS'
p3608
g1996
ssg163
(dp3609
S'WAS'
p3610
g1996
ssg166
(dp3611
S'WAS'
p3612
g1996
ssg169
(dp3613
S'WAS'
p3614
g1996
ssg2699
(dp3615
S'CHA'
p3616
S'-2'
p3617
ssg172
(dp3618
S'WAS'
p3619
g1996
ssg175
(dp3620
S'WAS'
p3621
g1996
ssg178
(dp3622
S'SA'
p3623
S'13.5'
p3624
ssg182
(dp3625
S'WAS'
p3626
g1996
ssg185
(dp3627
S'WAS'
p3628
g1996
ssg188
(dp3629
S'WAS'
p3630
g1996
ssg289
(dp3631
S'WAS'
p3632
g1996
ssg194
(dp3633
S'WAS'
p3634
g1996
ssg197
(dp3635
S'WAS'
p3636
g1996
ssg200
(dp3637
S'WAS'
p3638
g1996
ssg203
(dp3639
S'WAS'
p3640
g1996
ssg206
(dp3641
S'WAS'
p3642
g1996
ssg1493
(dp3643
S'CHA'
p3644
S'1.5'
p3645
ssg209
(dp3646
S'WAS'
p3647
g1996
ssg212
(dp3648
S'WAS'
p3649
g1996
ssg215
(dp3650
S'WAS'
p3651
g1996
ssg218
(dp3652
S'WAS'
p3653
g1996
ssg225
(dp3654
S'WAS'
p3655
g1996
ssg191
(dp3656
S'CHI'
p3657
g10
ssg228
(dp3658
S'WAS'
p3659
g1996
ssg231
(dp3660
S'TOR'
p3661
S'10.5'
p3662
ssg235
(dp3663
S'WAS'
p3664
g1996
ssg238
(dp3665
S'WAS'
p3666
g1996
ssg241
(dp3667
S'WAS'
p3668
g1996
ssg244
(dp3669
S'WAS'
p3670
g1996
ssg247
(dp3671
S'WAS'
p3672
g1996
ssg250
(dp3673
S'WAS'
p3674
g1996
ssg253
(dp3675
S'WAS'
p3676
g1996
ssg256
(dp3677
S'WAS'
p3678
g1996
ssg259
(dp3679
S'WAS'
p3680
g1996
ssg262
(dp3681
S'WAS'
p3682
g1996
ssg265
(dp3683
S'WAS'
p3684
g1996
ssg268
(dp3685
S'WAS'
p3686
g1996
ssg271
(dp3687
S'WAS'
p3688
g1996
ssg605
(dp3689
S'ATL'
p3690
g1601
ssg274
(dp3691
S'WAS'
p3692
g1996
ssg277
(dp3693
S'WAS'
p3694
g1996
ssg280
(dp3695
S'WAS'
p3696
g1996
ssg283
(dp3697
S'WAS'
p3698
g1996
ssg286
(dp3699
S'WAS'
p3700
g1996
ssg912
(dp3701
S'NO'
p3702
g95
ssg292
(dp3703
S'WAS'
p3704
g1996
ssg295
(dp3705
S'WAS'
p3706
g1996
ssg298
(dp3707
S'PHO'
p3708
S'4.5'
p3709
ssg302
(dp3710
S'WAS'
p3711
g1996
ssg305
(dp3712
S'WAS'
p3713
g1996
ssg308
(dp3714
S'WAS'
p3715
g1996
ssg311
(dp3716
S'WAS'
p3717
g1996
ssg80
(dp3718
S'WAS'
p3719
g1996
ssg318
(dp3720
S'WAS'
p3721
g1996
ssg321
(dp3722
S'DEN'
p3723
S'12.5'
p3724
ssg325
(dp3725
S'WAS'
p3726
g1996
ssg328
(dp3727
S'WAS'
p3728
g1996
ssg331
(dp3729
S'WAS'
p3730
g1996
ssg334
(dp3731
S'WAS'
p3732
g1996
ssg337
(dp3733
S'WAS'
p3734
g1996
ssg340
(dp3735
S'WAS'
p3736
g1996
ssg343
(dp3737
S'WAS'
p3738
g1996
ssg346
(dp3739
S'WAS'
p3740
g1996
ssg349
(dp3741
S'WAS'
p3742
g1996
ssg352
(dp3743
S'WAS'
p3744
g1996
sssS'NY'
p3745
(dp3746
g3
(dp3747
S'TOR'
p3748
S'5.5'
p3749
ssg7
(dp3750
S'SAC'
p3751
S'-3.5'
p3752
ssg11
(dp3753
S'CHA'
p3754
g1996
ssg15
(dp3755
S'CHA'
p3756
g1996
ssg18
(dp3757
S'CHA'
p3758
g1996
ssg21
(dp3759
S'CHA'
p3760
g1996
ssg24
(dp3761
S'CHA'
p3762
g1996
ssg703
(dp3763
S'BOS'
p3764
S'-4'
p3765
ssg27
(dp3766
S'CHA'
p3767
g1996
ssg34
(dp3768
S'SA'
p3769
S'7.5'
p3770
ssg38
(dp3771
S'CHA'
p3772
g1996
ssg41
(dp3773
S'CHA'
p3774
g1996
ssg44
(dp3775
S'CHA'
p3776
g1996
ssg47
(dp3777
S'MIL'
p3778
g2088
ssg51
(dp3779
S'CHA'
p3780
g1996
ssg54
(dp3781
S'DET'
p3782
S'4.5'
p3783
ssg58
(dp3784
S'CHA'
p3785
g1996
ssg402
(dp3786
S'ORL'
p3787
S'-6.5'
p3788
ssg61
(dp3789
S'CHA'
p3790
g1996
ssg64
(dp3791
S'CHA'
p3792
g1996
ssg67
(dp3793
S'CHA'
p3794
g1996
ssg70
(dp3795
S'CHA'
p3796
g1996
ssg73
(dp3797
S'CHA'
p3798
g1996
ssg76
(dp3799
S'BOS'
p3800
g14
ssg83
(dp3801
S'CHA'
p3802
g1996
ssg86
(dp3803
S'CHA'
p3804
g1996
ssg89
(dp3805
S'CHA'
p3806
g1996
ssg92
(dp3807
S'WAS'
p3808
S'14.5'
p3809
ssg96
(dp3810
S'CHA'
p3811
g1996
ssg99
(dp3812
S'CHA'
p3813
g1996
ssg102
(dp3814
S'CHA'
p3815
g1996
ssg105
(dp3816
S'CHA'
p3817
g1996
ssg108
(dp3818
S'CHA'
p3819
g1996
ssg111
(dp3820
S'BK'
p3821
S'-3.5'
p3822
ssg115
(dp3823
S'CHA'
p3824
g1996
ssg118
(dp3825
S'SAC'
p3826
S'4.5'
p3827
ssg125
(dp3828
S'CHA'
p3829
g1996
ssg128
(dp3830
S'CHA'
p3831
g1996
ssg131
(dp3832
S'CHA'
p3833
g1996
ssg134
(dp3834
S'CLE'
p3835
S'10.5'
p3836
ssg138
(dp3837
S'BK'
p3838
S'9.5'
p3839
ssg141
(dp3840
S'CHA'
p3841
g1996
ssg775
(dp3842
S'LAL'
p3843
S'-3'
p3844
ssg148
(dp3845
S'CHA'
p3846
g1996
ssg151
(dp3847
S'CHA'
p3848
g1996
ssg154
(dp3849
S'CHA'
p3850
g1996
ssg157
(dp3851
S'CHA'
p3852
g1996
ssg160
(dp3853
S'CHA'
p3854
g1996
ssg163
(dp3855
S'CHA'
p3856
g1996
ssg166
(dp3857
S'CHA'
p3858
g1996
ssg169
(dp3859
S'CHA'
p3860
g1996
ssg172
(dp3861
S'CHA'
p3862
g1996
ssg175
(dp3863
S'CHA'
p3864
g1996
ssg182
(dp3865
S'CHA'
p3866
g1996
ssg185
(dp3867
S'CHA'
p3868
g1996
ssg188
(dp3869
S'CHA'
p3870
g1996
ssg289
(dp3871
S'CHA'
p3872
g1996
ssg194
(dp3873
S'CHA'
p3874
g1996
ssg197
(dp3875
S'CHA'
p3876
g1996
ssg200
(dp3877
S'CHA'
p3878
g1996
ssg203
(dp3879
S'CHA'
p3880
g1996
ssg206
(dp3881
S'CHA'
p3882
g1996
ssg209
(dp3883
S'CHA'
p3884
g1996
ssg212
(dp3885
S'CHA'
p3886
g1996
ssg215
(dp3887
S'CHA'
p3888
g1996
ssg218
(dp3889
S'CHA'
p3890
g1996
ssg221
(dp3891
S'PHI'
p3892
S'-8.5'
p3893
ssg225
(dp3894
S'CHA'
p3895
g1996
ssg228
(dp3896
S'CHA'
p3897
g1996
ssg235
(dp3898
S'CHA'
p3899
g1996
ssg238
(dp3900
S'CHA'
p3901
g1996
ssg241
(dp3902
S'CHA'
p3903
g1996
ssg244
(dp3904
S'CHA'
p3905
g1996
ssg247
(dp3906
S'CHA'
p3907
g1996
ssg870
(dp3908
S'BOS'
p3909
g1996
ssg250
(dp3910
S'CHA'
p3911
g1996
ssg253
(dp3912
S'CHA'
p3913
g1996
ssg256
(dp3914
S'CHA'
p3915
g1996
ssg259
(dp3916
S'CHA'
p3917
g1996
ssg262
(dp3918
S'CHA'
p3919
g1996
ssg265
(dp3920
S'CHA'
p3921
g1996
ssg268
(dp3922
S'CHA'
p3923
g1996
ssg271
(dp3924
S'CHA'
p3925
g1996
ssg605
(dp3926
S'BOS'
p3927
S'6.5'
p3928
ssg274
(dp3929
S'CHA'
p3930
g1996
ssg277
(dp3931
S'CHA'
p3932
g1996
ssg280
(dp3933
S'CHA'
p3934
g1996
ssg283
(dp3935
S'CHA'
p3936
g1996
ssg286
(dp3937
S'CHA'
p3938
g1996
ssg292
(dp3939
S'CHA'
p3940
g1996
ssg295
(dp3941
S'CHA'
p3942
g1996
ssg298
(dp3943
S'IND'
p3944
S'13.5'
p3945
ssg302
(dp3946
S'CHA'
p3947
g1996
ssg305
(dp3948
S'CHA'
p3949
g1996
ssg308
(dp3950
S'CHA'
p3951
g1996
ssg311
(dp3952
S'CHA'
p3953
g1996
ssg80
(dp3954
S'CHA'
p3955
g1996
ssg318
(dp3956
S'CHA'
p3957
g1996
ssg321
(dp3958
S'PHI'
p3959
S'-5'
p3960
ssg325
(dp3961
S'CHA'
p3962
g1996
ssg328
(dp3963
S'CHA'
p3964
g1996
ssg331
(dp3965
S'CHA'
p3966
g1996
ssg334
(dp3967
S'CHA'
p3968
g1996
ssg337
(dp3969
S'CHA'
p3970
g1996
ssg340
(dp3971
S'CHA'
p3972
g1996
ssg343
(dp3973
S'CHA'
p3974
g1996
ssg346
(dp3975
S'CHA'
p3976
g1996
ssg349
(dp3977
S'CHA'
p3978
g1996
ssg352
(dp3979
S'CHA'
p3980
g1996
sssg5
(dp3981
g3
(dp3982
g1
S'-4.5'
p3983
ssg7
(dp3984
S'DET'
p3985
g10
ssg11
(dp3986
S'DAL'
p3987
S'-14.5'
p3988
ssg15
(dp3989
S'DAL'
p3990
S'-14.5'
p3991
ssg18
(dp3992
S'DAL'
p3993
S'-14.5'
p3994
ssg21
(dp3995
S'DAL'
p3996
S'-14.5'
p3997
ssg24
(dp3998
S'DAL'
p3999
S'-14.5'
p4000
ssg703
(dp4001
S'PHO'
p4002
g10
ssg27
(dp4003
S'DAL'
p4004
S'-14.5'
p4005
ssS'MAR 06, 2015'
p4006
(dp4007
S'GS'
p4008
g79
ssg34
(dp4009
S'PHI'
p4010
S'-13'
p4011
ssg38
(dp4012
S'DAL'
p4013
S'-14.5'
p4014
ssg41
(dp4015
S'DAL'
p4016
S'-14.5'
p4017
ssg44
(dp4018
S'DAL'
p4019
S'-14.5'
p4020
ssg47
(dp4021
S'DAL'
p4022
S'7.5'
p4023
ssg51
(dp4024
S'DAL'
p4025
S'-14.5'
p4026
ssg54
(dp4027
S'CHA'
p4028
S'-1.5'
p4029
ssg58
(dp4030
S'DAL'
p4031
S'-14.5'
p4032
ssg61
(dp4033
S'DAL'
p4034
S'-14.5'
p4035
ssg64
(dp4036
S'DAL'
p4037
S'-14.5'
p4038
ssg67
(dp4039
S'DAL'
p4040
S'-14.5'
p4041
ssg70
(dp4042
S'DAL'
p4043
S'-14.5'
p4044
ssg73
(dp4045
S'DAL'
p4046
S'-14.5'
p4047
ssg76
(dp4048
S'MIA'
p4049
S'-5.5'
p4050
ssg80
(dp4051
S'DAL'
p4052
S'-14.5'
p4053
ssS'APR 05, 2015'
p4054
(dp4055
S'CHI'
p4056
S'-4.5'
p4057
ssg83
(dp4058
S'DAL'
p4059
S'-14.5'
p4060
ssg86
(dp4061
S'DAL'
p4062
S'-14.5'
p4063
ssg89
(dp4064
S'DAL'
p4065
S'-14.5'
p4066
ssg96
(dp4067
S'DAL'
p4068
S'-14.5'
p4069
ssg99
(dp4070
S'DAL'
p4071
S'-14.5'
p4072
ssg102
(dp4073
S'DAL'
p4074
S'-14.5'
p4075
ssg105
(dp4076
S'DAL'
p4077
S'-14.5'
p4078
ssg108
(dp4079
S'DAL'
p4080
S'-14.5'
p4081
ssg111
(dp4082
S'NO'
p4083
S'-4.5'
p4084
ssS'FEB 06, 2015'
p4085
(dp4086
S'GS'
p4087
g79
ssg115
(dp4088
S'DAL'
p4089
S'-14.5'
p4090
ssg118
(dp4091
S'BOS'
p4092
S'-11'
p4093
ssg122
(dp4094
S'PHI'
p4095
S'-17'
p4096
ssg125
(dp4097
S'DAL'
p4098
S'-14.5'
p4099
ssg128
(dp4100
S'DAL'
p4101
S'-14.5'
p4102
ssg131
(dp4103
S'DAL'
p4104
S'-14.5'
p4105
ssg134
(dp4106
S'NY'
p4107
S'-10.5'
p4108
ssg247
(dp4109
S'DAL'
p4110
S'-14.5'
p4111
ssg148
(dp4112
S'DAL'
p4113
S'-14.5'
p4114
ssg151
(dp4115
S'DAL'
p4116
S'-14.5'
p4117
ssg154
(dp4118
S'DAL'
p4119
S'-14.5'
p4120
ssg157
(dp4121
S'DAL'
p4122
S'-14.5'
p4123
ssg488
(dp4124
S'WAS'
p4125
S'-8.5'
p4126
ssg160
(dp4127
S'DAL'
p4128
S'-14.5'
p4129
ssg163
(dp4130
S'DAL'
p4131
S'-14.5'
p4132
ssg166
(dp4133
S'DAL'
p4134
S'-14.5'
p4135
ssg169
(dp4136
S'DAL'
p4137
S'-14.5'
p4138
ssg172
(dp4139
S'DAL'
p4140
S'-14.5'
p4141
ssg175
(dp4142
S'DAL'
p4143
S'-14.5'
p4144
ssS'JAN 06, 2015'
p4145
(dp4146
S'GS'
p4147
g79
ssg809
(dp4148
S'SAC'
p4149
S'1.5'
p4150
ssg182
(dp4151
S'DAL'
p4152
S'-14.5'
p4153
ssg185
(dp4154
S'DAL'
p4155
S'-14.5'
p4156
ssg188
(dp4157
S'DAL'
p4158
S'-14.5'
p4159
ssg289
(dp4160
S'DAL'
p4161
S'-14.5'
p4162
ssg194
(dp4163
S'DAL'
p4164
S'-14.5'
p4165
ssg197
(dp4166
S'DAL'
p4167
S'-14.5'
p4168
ssg200
(dp4169
S'DAL'
p4170
S'-14.5'
p4171
ssg203
(dp4172
S'DAL'
p4173
S'-14.5'
p4174
ssg206
(dp4175
S'DAL'
p4176
S'-14.5'
p4177
ssg1493
(dp4178
S'HOU'
p4179
S'-0'
p4180
ssg209
(dp4181
S'DAL'
p4182
S'-14.5'
p4183
ssg212
(dp4184
S'DAL'
p4185
S'-14.5'
p4186
ssg215
(dp4187
S'DAL'
p4188
S'-14.5'
p4189
ssg218
(dp4190
S'DAL'
p4191
S'-14.5'
p4192
ssg552
(dp4193
S'SAC'
p4194
g14
ssg225
(dp4195
S'DAL'
p4196
S'-14.5'
p4197
ssg228
(dp4198
S'DAL'
p4199
S'-14.5'
p4200
ssg235
(dp4201
S'DAL'
p4202
S'-14.5'
p4203
ssg238
(dp4204
S'DAL'
p4205
S'-14.5'
p4206
ssg241
(dp4207
S'DAL'
p4208
S'-14.5'
p4209
ssg244
(dp4210
S'DAL'
p4211
S'-14.5'
p4212
ssg141
(dp4213
S'DAL'
p4214
S'-14.5'
p4215
ssg250
(dp4216
S'DAL'
p4217
S'-14.5'
p4218
ssg253
(dp4219
S'DAL'
p4220
S'-14.5'
p4221
ssg256
(dp4222
S'DAL'
p4223
S'-14.5'
p4224
ssg259
(dp4225
S'DAL'
p4226
S'-14.5'
p4227
ssg262
(dp4228
S'DAL'
p4229
S'-14.5'
p4230
ssg265
(dp4231
S'DAL'
p4232
S'-14.5'
p4233
ssg268
(dp4234
S'DAL'
p4235
S'-14.5'
p4236
ssg271
(dp4237
S'DAL'
p4238
S'-14.5'
p4239
ssg605
(dp4240
S'NO'
p4241
S'1.5'
p4242
ssg274
(dp4243
S'DAL'
p4244
S'-14.5'
p4245
ssS'NOV 12, 2014'
p4246
(dp4247
S'OKC'
p4248
g2088
ssg277
(dp4249
S'DAL'
p4250
S'-14.5'
p4251
ssg280
(dp4252
S'DAL'
p4253
S'-14.5'
p4254
ssg283
(dp4255
S'DAL'
p4256
S'-14.5'
p4257
ssg286
(dp4258
S'DAL'
p4259
S'-14.5'
p4260
ssg292
(dp4261
S'DAL'
p4262
S'-14.5'
p4263
ssg295
(dp4264
S'DAL'
p4265
S'-14.5'
p4266
ssg298
(dp4267
S'TOR'
p4268
S'-5'
p4269
ssg302
(dp4270
S'DAL'
p4271
S'-14.5'
p4272
ssg305
(dp4273
S'DAL'
p4274
S'-14.5'
p4275
ssg308
(dp4276
S'DAL'
p4277
S'-14.5'
p4278
ssg311
(dp4279
S'DAL'
p4280
S'-14.5'
p4281
ssg314
(dp4282
S'BOS'
p4283
S'-9'
p4284
ssg318
(dp4285
S'DAL'
p4286
S'-14.5'
p4287
ssg936
(dp4288
S'MIA'
p4289
S'-9.5'
p4290
ssg325
(dp4291
S'DAL'
p4292
S'-14.5'
p4293
ssg328
(dp4294
S'DAL'
p4295
S'-14.5'
p4296
ssS'APR 06, 2015'
p4297
(dp4298
S'GS'
p4299
g79
ssg331
(dp4300
S'DAL'
p4301
S'-14.5'
p4302
ssg334
(dp4303
S'DAL'
p4304
S'-14.5'
p4305
ssg337
(dp4306
S'DAL'
p4307
S'-14.5'
p4308
ssg340
(dp4309
S'DAL'
p4310
S'-14.5'
p4311
ssg343
(dp4312
S'DAL'
p4313
S'-14.5'
p4314
ssg346
(dp4315
S'DAL'
p4316
S'-14.5'
p4317
ssg349
(dp4318
S'DAL'
p4319
S'-14.5'
p4320
ssg352
(dp4321
S'DAL'
p4322
S'-14.5'
p4323
sssg1303
(dp4324
g3
(dp4325
g1300
S'-5'
p4326
ssg7
(dp4327
S'BK'
p4328
S'7.5'
p4329
ssg11
(dp4330
S'NY'
p4331
S'-1'
p4332
ssg15
(dp4333
S'NY'
p4334
S'-1'
p4335
ssg18
(dp4336
S'NY'
p4337
S'-1'
p4338
ssg21
(dp4339
S'NY'
p4340
S'-1'
p4341
ssg24
(dp4342
S'NY'
p4343
S'-1'
p4344
ssg703
(dp4345
S'WAS'
p4346
g79
ssg27
(dp4347
S'NY'
p4348
S'-1'
p4349
ssg30
(dp4350
S'PHI'
p4351
S'-6.5'
p4352
ssg38
(dp4353
S'NY'
p4354
S'-1'
p4355
ssg41
(dp4356
S'NY'
p4357
S'-1'
p4358
ssg44
(dp4359
S'NY'
p4360
S'-1'
p4361
ssg51
(dp4362
S'NY'
p4363
S'-1'
p4364
ssg54
(dp4365
S'CLE'
p4366
S'1.5'
p4367
ssg58
(dp4368
S'NY'
p4369
S'-1'
p4370
ssg61
(dp4371
S'NY'
p4372
S'-1'
p4373
ssg64
(dp4374
S'NY'
p4375
S'-1'
p4376
ssg67
(dp4377
S'NY'
p4378
S'-1'
p4379
ssg70
(dp4380
S'NY'
p4381
S'-1'
p4382
ssg73
(dp4383
S'NY'
p4384
S'-1'
p4385
ssg80
(dp4386
S'NY'
p4387
S'-1'
p4388
ssg83
(dp4389
S'NY'
p4390
S'-1'
p4391
ssg86
(dp4392
S'NY'
p4393
S'-1'
p4394
ssg89
(dp4395
S'NY'
p4396
S'-1'
p4397
ssg92
(dp4398
S'IND'
p4399
S'4.5'
p4400
ssg96
(dp4401
S'NY'
p4402
S'-1'
p4403
ssg99
(dp4404
S'NY'
p4405
S'-1'
p4406
ssg102
(dp4407
S'NY'
p4408
S'-1'
p4409
ssg442
(dp4410
S'ORL'
p4411
g790
ssg105
(dp4412
S'NY'
p4413
S'-1'
p4414
ssg108
(dp4415
S'NY'
p4416
S'-1'
p4417
ssg115
(dp4418
S'NY'
p4419
S'-1'
p4420
ssg118
(dp4421
S'LAL'
p4422
S'-9'
p4423
ssg122
(dp4424
S'WAS'
p4425
g10
ssg125
(dp4426
S'NY'
p4427
S'-1'
p4428
ssg128
(dp4429
S'NY'
p4430
S'-1'
p4431
ssg131
(dp4432
S'NY'
p4433
S'-1'
p4434
ssg138
(dp4435
S'DET'
p4436
S'-5.5'
p4437
ssg141
(dp4438
S'NY'
p4439
S'-1'
p4440
ssg148
(dp4441
S'NY'
p4442
S'-1'
p4443
ssg151
(dp4444
S'NY'
p4445
S'-1'
p4446
ssg154
(dp4447
S'NY'
p4448
S'-1'
p4449
ssg157
(dp4450
S'NY'
p4451
S'-1'
p4452
ssg160
(dp4453
S'NY'
p4454
S'-1'
p4455
ssg163
(dp4456
S'NY'
p4457
S'-1'
p4458
ssg166
(dp4459
S'NY'
p4460
S'-1'
p4461
ssg169
(dp4462
S'NY'
p4463
S'-1'
p4464
ssg2699
(dp4465
S'ORL'
p4466
g720
ssg172
(dp4467
S'NY'
p4468
S'-1'
p4469
ssg175
(dp4470
S'NY'
p4471
S'-1'
p4472
ssg809
(dp4473
S'DAL'
p4474
g790
ssg182
(dp4475
S'NY'
p4476
S'-1'
p4477
ssg185
(dp4478
S'NY'
p4479
S'-1'
p4480
ssg188
(dp4481
S'NY'
p4482
S'-1'
p4483
ssg289
(dp4484
S'NY'
p4485
S'-1'
p4486
ssg194
(dp4487
S'NY'
p4488
S'-1'
p4489
ssg197
(dp4490
S'NY'
p4491
S'-1'
p4492
ssg200
(dp4493
S'NY'
p4494
S'-1'
p4495
ssg203
(dp4496
S'NY'
p4497
S'-1'
p4498
ssg206
(dp4499
S'NY'
p4500
S'-1'
p4501
ssg1493
(dp4502
S'ORL'
p4503
S'-1.5'
p4504
ssg836
(dp4505
S'MIA'
p4506
g2088
ssg209
(dp4507
S'NY'
p4508
S'-1'
p4509
ssg212
(dp4510
S'NY'
p4511
S'-1'
p4512
ssg215
(dp4513
S'NY'
p4514
S'-1'
p4515
ssg218
(dp4516
S'NY'
p4517
S'-1'
p4518
ssg221
(dp4519
S'GS'
p4520
g1601
ssg225
(dp4521
S'NY'
p4522
S'-1'
p4523
ssg191
(dp4524
S'ATL'
p4525
g720
ssg228
(dp4526
S'NY'
p4527
S'-1'
p4528
ssg231
(dp4529
S'POR'
p4530
S'6.5'
p4531
ssg235
(dp4532
S'NY'
p4533
S'-1'
p4534
ssg238
(dp4535
S'NY'
p4536
S'-1'
p4537
ssg241
(dp4538
S'NY'
p4539
S'-1'
p4540
ssg244
(dp4541
S'NY'
p4542
S'-1'
p4543
ssg247
(dp4544
S'NY'
p4545
S'-1'
p4546
ssg250
(dp4547
S'NY'
p4548
S'-1'
p4549
ssg253
(dp4550
S'NY'
p4551
S'-1'
p4552
ssg256
(dp4553
S'NY'
p4554
S'-1'
p4555
ssg259
(dp4556
S'NY'
p4557
S'-1'
p4558
ssg262
(dp4559
S'NY'
p4560
S'-1'
p4561
ssg265
(dp4562
S'NY'
p4563
S'-1'
p4564
ssg268
(dp4565
S'NY'
p4566
S'-1'
p4567
ssg271
(dp4568
S'NY'
p4569
S'-1'
p4570
ssg605
(dp4571
S'MEM'
p4572
S'10'
p4573
ssg274
(dp4574
S'NY'
p4575
S'-1'
p4576
ssg277
(dp4577
S'NY'
p4578
S'-1'
p4579
ssg280
(dp4580
S'NY'
p4581
S'-1'
p4582
ssg283
(dp4583
S'NY'
p4584
S'-1'
p4585
ssg286
(dp4586
S'NY'
p4587
S'-1'
p4588
ssg912
(dp4589
S'CHI'
p4590
g790
ssg292
(dp4591
S'NY'
p4592
S'-1'
p4593
ssg295
(dp4594
S'NY'
p4595
S'-1'
p4596
ssg298
(dp4597
S'BK'
p4598
S'5.5'
p4599
ssg302
(dp4600
S'NY'
p4601
S'-1'
p4602
ssg305
(dp4603
S'NY'
p4604
S'-1'
p4605
ssg308
(dp4606
S'NY'
p4607
S'-1'
p4608
ssg311
(dp4609
S'NY'
p4610
S'-1'
p4611
ssg314
(dp4612
S'PHI'
p4613
S'-12'
p4614
ssg318
(dp4615
S'NY'
p4616
S'-1'
p4617
ssg321
(dp4618
S'CHI'
p4619
g790
ssg325
(dp4620
S'NY'
p4621
S'-1'
p4622
ssg328
(dp4623
S'NY'
p4624
S'-1'
p4625
ssg331
(dp4626
S'NY'
p4627
S'-1'
p4628
ssg334
(dp4629
S'NY'
p4630
S'-1'
p4631
ssg337
(dp4632
S'NY'
p4633
S'-1'
p4634
ssg340
(dp4635
S'NY'
p4636
S'-1'
p4637
ssg343
(dp4638
S'NY'
p4639
S'-1'
p4640
ssg346
(dp4641
S'NY'
p4642
S'-1'
p4643
ssg349
(dp4644
S'NY'
p4645
S'-1'
p4646
ssg352
(dp4647
S'NY'
p4648
S'-1'
p4649
sssg3748
(dp4650
g3
(dp4651
g3745
S'-5.5'
p4652
ssg7
(dp4653
S'ATL'
p4654
S'-19.5'
p4655
ssg11
(dp4656
S'MIL'
p4657
S'-3'
p4658
ssg15
(dp4659
S'MIL'
p4660
S'-3'
p4661
ssg18
(dp4662
S'MIL'
p4663
S'-3'
p4664
ssg21
(dp4665
S'MIL'
p4666
S'-3'
p4667
ssg24
(dp4668
S'MIL'
p4669
S'-3'
p4670
ssg703
(dp4671
S'DET'
p4672
S'-8.5'
p4673
ssg27
(dp4674
S'MIL'
p4675
S'-3'
p4676
ssg30
(dp4677
S'BOS'
p4678
S'-2'
p4679
ssg38
(dp4680
S'MIL'
p4681
S'-3'
p4682
ssg41
(dp4683
S'MIL'
p4684
S'-3'
p4685
ssg44
(dp4686
S'MIL'
p4687
S'-3'
p4688
ssg47
(dp4689
S'PHO'
p4690
g1996
ssg51
(dp4691
S'MIL'
p4692
S'-3'
p4693
ssg395
(dp4694
S'PHI'
p4695
S'-9.5'
p4696
ssg54
(dp4697
S'GS'
p4698
S'4.5'
p4699
ssg58
(dp4700
S'MIL'
p4701
S'-3'
p4702
ssg61
(dp4703
S'MIL'
p4704
S'-3'
p4705
ssg64
(dp4706
S'MIL'
p4707
S'-3'
p4708
ssg67
(dp4709
S'MIL'
p4710
S'-3'
p4711
ssg70
(dp4712
S'MIL'
p4713
S'-3'
p4714
ssg73
(dp4715
S'MIL'
p4716
S'-3'
p4717
ssg83
(dp4718
S'MIL'
p4719
S'-3'
p4720
ssg86
(dp4721
S'MIL'
p4722
S'-3'
p4723
ssg89
(dp4724
S'MIL'
p4725
S'-3'
p4726
ssg92
(dp4727
S'BK'
p4728
g720
ssg96
(dp4729
S'MIL'
p4730
S'-3'
p4731
ssg99
(dp4732
S'MIL'
p4733
S'-3'
p4734
ssg102
(dp4735
S'MIL'
p4736
S'-3'
p4737
ssg105
(dp4738
S'MIL'
p4739
S'-3'
p4740
ssg108
(dp4741
S'MIL'
p4742
S'-3'
p4743
ssg115
(dp4744
S'MIL'
p4745
S'-3'
p4746
ssg122
(dp4747
S'MIL'
p4748
S'-6'
p4749
ssg125
(dp4750
S'MIL'
p4751
S'-3'
p4752
ssg128
(dp4753
S'MIL'
p4754
S'-3'
p4755
ssg131
(dp4756
S'MIL'
p4757
S'-3'
p4758
ssg134
(dp4759
S'OKC'
p4760
g10
ssg138
(dp4761
S'MIN'
p4762
S'-10'
p4763
ssg141
(dp4764
S'MIL'
p4765
S'-3'
p4766
ssg148
(dp4767
S'MIL'
p4768
S'-3'
p4769
ssg151
(dp4770
S'MIL'
p4771
S'-3'
p4772
ssg154
(dp4773
S'MIL'
p4774
S'-3'
p4775
ssg157
(dp4776
S'MIL'
p4777
S'-3'
p4778
ssg787
(dp4779
S'DEN'
p4780
S'-10'
p4781
ssg160
(dp4782
S'MIL'
p4783
S'-3'
p4784
ssg163
(dp4785
S'MIL'
p4786
S'-3'
p4787
ssg166
(dp4788
S'MIL'
p4789
S'-3'
p4790
ssg169
(dp4791
S'MIL'
p4792
S'-3'
p4793
ssg172
(dp4794
S'MIL'
p4795
S'-3'
p4796
ssg175
(dp4797
S'MIL'
p4798
S'-3'
p4799
ssg178
(dp4800
S'BK'
p4801
S'-7.5'
p4802
ssg182
(dp4803
S'MIL'
p4804
S'-3'
p4805
ssg185
(dp4806
S'MIL'
p4807
S'-3'
p4808
ssg188
(dp4809
S'MIL'
p4810
S'-3'
p4811
ssg191
(dp4812
S'MIL'
p4813
S'-6'
p4814
ssg194
(dp4815
S'MIL'
p4816
S'-3'
p4817
ssg197
(dp4818
S'MIL'
p4819
S'-3'
p4820
ssg200
(dp4821
S'MIL'
p4822
S'-3'
p4823
ssg203
(dp4824
S'MIL'
p4825
S'-3'
p4826
ssg206
(dp4827
S'MIL'
p4828
S'-3'
p4829
ssg836
(dp4830
S'LAC'
p4831
S'3.5'
p4832
ssg209
(dp4833
S'MIL'
p4834
S'-3'
p4835
ssg212
(dp4836
S'MIL'
p4837
S'-3'
p4838
ssg215
(dp4839
S'MIL'
p4840
S'-3'
p4841
ssg218
(dp4842
S'MIL'
p4843
S'-3'
p4844
ssg221
(dp4845
S'ATL'
p4846
g790
ssg225
(dp4847
S'MIL'
p4848
S'-3'
p4849
ssg228
(dp4850
S'MIL'
p4851
S'-3'
p4852
ssg231
(dp4853
S'ORL'
p4854
S'-10.5'
p4855
ssg235
(dp4856
S'MIL'
p4857
S'-3'
p4858
ssg238
(dp4859
S'MIL'
p4860
S'-3'
p4861
ssg241
(dp4862
S'MIL'
p4863
S'-3'
p4864
ssg244
(dp4865
S'MIL'
p4866
S'-3'
p4867
ssg247
(dp4868
S'MIL'
p4869
S'-3'
p4870
ssg250
(dp4871
S'MIL'
p4872
S'-3'
p4873
ssg253
(dp4874
S'MIL'
p4875
S'-3'
p4876
ssg256
(dp4877
S'MIL'
p4878
S'-3'
p4879
ssg259
(dp4880
S'MIL'
p4881
S'-3'
p4882
ssg262
(dp4883
S'MIL'
p4884
S'-3'
p4885
ssg265
(dp4886
S'MIL'
p4887
S'-3'
p4888
ssg268
(dp4889
S'MIL'
p4890
S'-3'
p4891
ssg271
(dp4892
S'MIL'
p4893
S'-3'
p4894
ssg605
(dp4895
S'IND'
p4896
S'-9'
p4897
ssg274
(dp4898
S'MIL'
p4899
S'-3'
p4900
ssg277
(dp4901
S'MIL'
p4902
S'-3'
p4903
ssg280
(dp4904
S'MIL'
p4905
S'-3'
p4906
ssg283
(dp4907
S'MIL'
p4908
S'-3'
p4909
ssg286
(dp4910
S'MIL'
p4911
S'-3'
p4912
ssg289
(dp4913
S'MIL'
p4914
S'-3'
p4915
ssg912
(dp4916
S'DAL'
p4917
S'-2'
p4918
ssg292
(dp4919
S'MIL'
p4920
S'-3'
p4921
ssg295
(dp4922
S'MIL'
p4923
S'-3'
p4924
ssg298
(dp4925
S'CLE'
p4926
g95
ssg302
(dp4927
S'MIL'
p4928
S'-3'
p4929
ssg305
(dp4930
S'MIL'
p4931
S'-3'
p4932
ssg308
(dp4933
S'MIL'
p4934
S'-3'
p4935
ssg311
(dp4936
S'MIL'
p4937
S'-3'
p4938
ssg80
(dp4939
S'MIL'
p4940
S'-3'
p4941
ssg318
(dp4942
S'MIL'
p4943
S'-3'
p4944
ssg321
(dp4945
S'BK'
p4946
S'-9'
p4947
ssg325
(dp4948
S'MIL'
p4949
S'-3'
p4950
ssg328
(dp4951
S'MIL'
p4952
S'-3'
p4953
ssg331
(dp4954
S'MIL'
p4955
S'-3'
p4956
ssg334
(dp4957
S'MIL'
p4958
S'-3'
p4959
ssg337
(dp4960
S'MIL'
p4961
S'-3'
p4962
ssg340
(dp4963
S'MIL'
p4964
S'-3'
p4965
ssg343
(dp4966
S'MIL'
p4967
S'-3'
p4968
ssg346
(dp4969
S'MIL'
p4970
S'-3'
p4971
ssg349
(dp4972
S'MIL'
p4973
S'-3'
p4974
ssg352
(dp4975
S'MIL'
p4976
S'-3'
p4977
sssg3173
(dp4978
g3
(dp4979
g3170
S'8.5'
p4980
ssg7
(dp4981
S'PHI'
p4982
S'-8'
p4983
ssg11
(dp4984
S'ATL'
p4985
S'-2.5'
p4986
ssg15
(dp4987
S'ATL'
p4988
S'-2.5'
p4989
ssg18
(dp4990
S'ATL'
p4991
S'-2.5'
p4992
ssg21
(dp4993
S'ATL'
p4994
S'-2.5'
p4995
ssg24
(dp4996
S'ATL'
p4997
S'-2.5'
p4998
ssg703
(dp4999
S'DAL'
p5000
S'4.5'
p5001
ssg27
(dp5002
S'ATL'
p5003
S'-2.5'
p5004
ssg30
(dp5005
S'PHO'
p5006
S'1.5'
p5007
ssg38
(dp5008
S'ATL'
p5009
S'-2.5'
p5010
ssg41
(dp5011
S'ATL'
p5012
S'-2.5'
p5013
ssg44
(dp5014
S'ATL'
p5015
S'-2.5'
p5016
ssg51
(dp5017
S'ATL'
p5018
S'-2.5'
p5019
ssg54
(dp5020
S'ATL'
p5021
S'4.5'
p5022
ssg58
(dp5023
S'ATL'
p5024
S'-2.5'
p5025
ssg402
(dp5026
S'ATL'
p5027
g2088
ssg61
(dp5028
S'ATL'
p5029
S'-2.5'
p5030
ssg64
(dp5031
S'ATL'
p5032
S'-2.5'
p5033
ssg67
(dp5034
S'ATL'
p5035
S'-2.5'
p5036
ssg70
(dp5037
S'ATL'
p5038
S'-2.5'
p5039
ssg73
(dp5040
S'ATL'
p5041
S'-2.5'
p5042
ssg80
(dp5043
S'ATL'
p5044
S'-2.5'
p5045
ssg83
(dp5046
S'ATL'
p5047
S'-2.5'
p5048
ssg86
(dp5049
S'ATL'
p5050
S'-2.5'
p5051
ssg89
(dp5052
S'ATL'
p5053
S'-2.5'
p5054
ssg96
(dp5055
S'ATL'
p5056
S'-2.5'
p5057
ssg99
(dp5058
S'ATL'
p5059
S'-2.5'
p5060
ssg102
(dp5061
S'ATL'
p5062
S'-2.5'
p5063
ssg442
(dp5064
S'MIN'
p5065
S'1.5'
p5066
ssg105
(dp5067
S'ATL'
p5068
S'-2.5'
p5069
ssg108
(dp5070
S'ATL'
p5071
S'-2.5'
p5072
ssg115
(dp5073
S'ATL'
p5074
S'-2.5'
p5075
ssg118
(dp5076
S'MEM'
p5077
g2088
ssg125
(dp5078
S'ATL'
p5079
S'-2.5'
p5080
ssg128
(dp5081
S'ATL'
p5082
S'-2.5'
p5083
ssg131
(dp5084
S'ATL'
p5085
S'-2.5'
p5086
ssg134
(dp5087
S'POR'
p5088
S'-7'
p5089
ssg138
(dp5090
S'DEN'
p5091
S'-5'
p5092
ssg247
(dp5093
S'ATL'
p5094
S'-2.5'
p5095
ssg148
(dp5096
S'ATL'
p5097
S'-2.5'
p5098
ssg151
(dp5099
S'ATL'
p5100
S'-2.5'
p5101
ssg154
(dp5102
S'ATL'
p5103
S'-2.5'
p5104
ssg157
(dp5105
S'ATL'
p5106
S'-2.5'
p5107
ssg787
(dp5108
S'ORL'
p5109
S'-4'
p5110
ssg160
(dp5111
S'ATL'
p5112
S'-2.5'
p5113
ssg163
(dp5114
S'ATL'
p5115
S'-2.5'
p5116
ssg166
(dp5117
S'ATL'
p5118
S'-2.5'
p5119
ssg169
(dp5120
S'ATL'
p5121
S'-2.5'
p5122
ssg172
(dp5123
S'ATL'
p5124
S'-2.5'
p5125
ssg175
(dp5126
S'ATL'
p5127
S'-2.5'
p5128
ssg178
(dp5129
S'MEM'
p5130
S'6.5'
p5131
ssg809
(dp5132
S'LAL'
p5133
g720
ssg182
(dp5134
S'ATL'
p5135
S'-2.5'
p5136
ssg185
(dp5137
S'ATL'
p5138
S'-2.5'
p5139
ssg188
(dp5140
S'ATL'
p5141
S'-2.5'
p5142
ssg289
(dp5143
S'ATL'
p5144
S'-2.5'
p5145
ssg194
(dp5146
S'ATL'
p5147
S'-2.5'
p5148
ssg197
(dp5149
S'ATL'
p5150
S'-2.5'
p5151
ssg200
(dp5152
S'ATL'
p5153
S'-2.5'
p5154
ssg203
(dp5155
S'ATL'
p5156
S'-2.5'
p5157
ssg206
(dp5158
S'ATL'
p5159
S'-2.5'
p5160
ssg836
(dp5161
S'LAL'
p5162
S'-3'
p5163
ssg209
(dp5164
S'ATL'
p5165
S'-2.5'
p5166
ssg212
(dp5167
S'ATL'
p5168
S'-2.5'
p5169
ssg215
(dp5170
S'ATL'
p5171
S'-2.5'
p5172
ssg218
(dp5173
S'ATL'
p5174
S'-2.5'
p5175
ssg225
(dp5176
S'ATL'
p5177
S'-2.5'
p5178
ssg228
(dp5179
S'ATL'
p5180
S'-2.5'
p5181
ssg235
(dp5182
S'ATL'
p5183
S'-2.5'
p5184
ssg238
(dp5185
S'ATL'
p5186
S'-2.5'
p5187
ssg241
(dp5188
S'ATL'
p5189
S'-2.5'
p5190
ssg244
(dp5191
S'ATL'
p5192
S'-2.5'
p5193
ssg141
(dp5194
S'ATL'
p5195
S'-2.5'
p5196
ssg870
(dp5197
S'POR'
p5198
S'8.5'
p5199
ssg250
(dp5200
S'ATL'
p5201
S'-2.5'
p5202
ssg253
(dp5203
S'ATL'
p5204
S'-2.5'
p5205
ssg256
(dp5206
S'ATL'
p5207
S'-2.5'
p5208
ssg259
(dp5209
S'ATL'
p5210
S'-2.5'
p5211
ssg262
(dp5212
S'ATL'
p5213
S'-2.5'
p5214
ssg265
(dp5215
S'ATL'
p5216
S'-2.5'
p5217
ssg268
(dp5218
S'ATL'
p5219
S'-2.5'
p5220
ssg271
(dp5221
S'ATL'
p5222
S'-2.5'
p5223
ssg605
(dp5224
S'MIA'
p5225
S'-1.5'
p5226
ssg274
(dp5227
S'ATL'
p5228
S'-2.5'
p5229
ssg277
(dp5230
S'ATL'
p5231
S'-2.5'
p5232
ssg280
(dp5233
S'ATL'
p5234
S'-2.5'
p5235
ssg283
(dp5236
S'ATL'
p5237
S'-2.5'
p5238
ssg286
(dp5239
S'ATL'
p5240
S'-2.5'
p5241
ssg292
(dp5242
S'ATL'
p5243
S'-2.5'
p5244
ssg295
(dp5245
S'ATL'
p5246
S'-2.5'
p5247
ssg298
(dp5248
S'BOS'
p5249
g1996
ssg302
(dp5250
S'ATL'
p5251
S'-2.5'
p5252
ssg305
(dp5253
S'ATL'
p5254
S'-2.5'
p5255
ssg308
(dp5256
S'ATL'
p5257
S'-2.5'
p5258
ssg311
(dp5259
S'ATL'
p5260
S'-2.5'
p5261
ssg314
(dp5262
S'DEN'
p5263
S'9.5'
p5264
ssg318
(dp5265
S'ATL'
p5266
S'-2.5'
p5267
ssg325
(dp5268
S'ATL'
p5269
S'-2.5'
p5270
ssg328
(dp5271
S'ATL'
p5272
S'-2.5'
p5273
ssg331
(dp5274
S'ATL'
p5275
S'-2.5'
p5276
ssg334
(dp5277
S'ATL'
p5278
S'-2.5'
p5279
ssg337
(dp5280
S'ATL'
p5281
S'-2.5'
p5282
ssg340
(dp5283
S'ATL'
p5284
S'-2.5'
p5285
ssg343
(dp5286
S'ATL'
p5287
S'-2.5'
p5288
ssg346
(dp5289
S'ATL'
p5290
S'-2.5'
p5291
ssg349
(dp5292
S'ATL'
p5293
S'-2.5'
p5294
ssg352
(dp5295
S'ATL'
p5296
S'-2.5'
p5297
sssS'GS'
p5298
(dp5299
g3
(dp5300
S'LAL'
p5301
S'-9.5'
p5302
ssg7
(dp5303
S'MIA'
p5304
g1996
ssg11
(dp5305
S'LAL'
p5306
S'-13'
p5307
ssg15
(dp5308
S'LAL'
p5309
S'-13'
p5310
ssg18
(dp5311
S'LAL'
p5312
S'-13'
p5313
ssg21
(dp5314
S'LAL'
p5315
S'-13'
p5316
ssg24
(dp5317
S'LAL'
p5318
S'-13'
p5319
ssg703
(dp5320
S'LAC'
p5321
g2088
ssg27
(dp5322
S'LAL'
p5323
S'-13'
p5324
ssg30
(dp5325
S'DAL'
p5326
S'-6.5'
p5327
ssg4006
(dp5328
S'CLE'
p5329
S'-6'
p5330
ssg34
(dp5331
S'MEM'
p5332
S'-9.5'
p5333
ssg38
(dp5334
S'LAL'
p5335
S'-13'
p5336
ssg41
(dp5337
S'LAL'
p5338
S'-13'
p5339
ssg44
(dp5340
S'LAL'
p5341
S'-13'
p5342
ssg51
(dp5343
S'LAL'
p5344
S'-13'
p5345
ssg395
(dp5346
S'BK'
p5347
S'-5.5'
p5348
ssg54
(dp5349
S'TOR'
p5350
S'-4.5'
p5351
ssg58
(dp5352
S'LAL'
p5353
S'-13'
p5354
ssg61
(dp5355
S'LAL'
p5356
S'-13'
p5357
ssg64
(dp5358
S'LAL'
p5359
S'-13'
p5360
ssg67
(dp5361
S'LAL'
p5362
S'-13'
p5363
ssg70
(dp5364
S'LAL'
p5365
S'-13'
p5366
ssg73
(dp5367
S'LAL'
p5368
S'-13'
p5369
ssg83
(dp5370
S'LAL'
p5371
S'-13'
p5372
ssg86
(dp5373
S'LAL'
p5374
S'-13'
p5375
ssg89
(dp5376
S'LAL'
p5377
S'-13'
p5378
ssg1720
(dp5379
S'LAL'
p5380
S'-3.5'
p5381
ssg96
(dp5382
S'LAL'
p5383
S'-13'
p5384
ssg99
(dp5385
S'LAL'
p5386
S'-13'
p5387
ssg102
(dp5388
S'LAL'
p5389
S'-13'
p5390
ssg105
(dp5391
S'LAL'
p5392
S'-13'
p5393
ssg108
(dp5394
S'LAL'
p5395
S'-13'
p5396
ssg4085
(dp5397
S'CLE'
p5398
S'-6'
p5399
ssg115
(dp5400
S'LAL'
p5401
S'-13'
p5402
ssg125
(dp5403
S'LAL'
p5404
S'-13'
p5405
ssg128
(dp5406
S'LAL'
p5407
S'-13'
p5408
ssg131
(dp5409
S'LAL'
p5410
S'-13'
p5411
ssg134
(dp5412
S'LAC'
p5413
S'-7.5'
p5414
ssg247
(dp5415
S'LAL'
p5416
S'-13'
p5417
ssg144
(dp5418
S'DAL'
p5419
S'-5.5'
p5420
ssg148
(dp5421
S'LAL'
p5422
S'-13'
p5423
ssg151
(dp5424
S'LAL'
p5425
S'-13'
p5426
ssg154
(dp5427
S'LAL'
p5428
S'-13'
p5429
ssg157
(dp5430
S'LAL'
p5431
S'-13'
p5432
ssg160
(dp5433
S'LAL'
p5434
S'-13'
p5435
ssg163
(dp5436
S'LAL'
p5437
S'-13'
p5438
ssg166
(dp5439
S'LAL'
p5440
S'-13'
p5441
ssg169
(dp5442
S'LAL'
p5443
S'-13'
p5444
ssg172
(dp5445
S'LAL'
p5446
S'-13'
p5447
ssg175
(dp5448
S'LAL'
p5449
S'-13'
p5450
ssg178
(dp5451
S'DAL'
p5452
S'-8'
p5453
ssg4145
(dp5454
S'CLE'
p5455
S'-6'
p5456
ssg182
(dp5457
S'LAL'
p5458
S'-13'
p5459
ssg185
(dp5460
S'LAL'
p5461
S'-13'
p5462
ssg188
(dp5463
S'LAL'
p5464
S'-13'
p5465
ssg289
(dp5466
S'LAL'
p5467
S'-13'
p5468
ssg1143
(dp5469
S'MEM'
p5470
S'-10.5'
p5471
ssg194
(dp5472
S'LAL'
p5473
S'-13'
p5474
ssg197
(dp5475
S'LAL'
p5476
S'-13'
p5477
ssg200
(dp5478
S'LAL'
p5479
S'-13'
p5480
ssg203
(dp5481
S'LAL'
p5482
S'-13'
p5483
ssg206
(dp5484
S'LAL'
p5485
S'-13'
p5486
ssg1493
(dp5487
S'BOS'
p5488
S'-8.5'
p5489
ssg209
(dp5490
S'LAL'
p5491
S'-13'
p5492
ssg212
(dp5493
S'LAL'
p5494
S'-13'
p5495
ssg215
(dp5496
S'LAL'
p5497
S'-13'
p5498
ssg218
(dp5499
S'LAL'
p5500
S'-13'
p5501
ssg221
(dp5502
S'CHA'
p5503
S'-9'
p5504
ssg225
(dp5505
S'LAL'
p5506
S'-13'
p5507
ssg228
(dp5508
S'LAL'
p5509
S'-13'
p5510
ssg231
(dp5511
S'SA'
p5512
S'-7.5'
p5513
ssg235
(dp5514
S'LAL'
p5515
S'-13'
p5516
ssg238
(dp5517
S'LAL'
p5518
S'-13'
p5519
ssg241
(dp5520
S'LAL'
p5521
S'-13'
p5522
ssg244
(dp5523
S'LAL'
p5524
S'-13'
p5525
ssg141
(dp5526
S'LAL'
p5527
S'-13'
p5528
ssg870
(dp5529
S'SAC'
p5530
S'-10'
p5531
ssg250
(dp5532
S'LAL'
p5533
S'-13'
p5534
ssg253
(dp5535
S'LAL'
p5536
S'-13'
p5537
ssg256
(dp5538
S'LAL'
p5539
S'-13'
p5540
ssg259
(dp5541
S'LAL'
p5542
S'-13'
p5543
ssg262
(dp5544
S'LAL'
p5545
S'-13'
p5546
ssg265
(dp5547
S'LAL'
p5548
S'-13'
p5549
ssg268
(dp5550
S'LAL'
p5551
S'-13'
p5552
ssg271
(dp5553
S'LAL'
p5554
S'-13'
p5555
ssg274
(dp5556
S'LAL'
p5557
S'-13'
p5558
ssg277
(dp5559
S'LAL'
p5560
S'-13'
p5561
ssg280
(dp5562
S'LAL'
p5563
S'-13'
p5564
ssg283
(dp5565
S'LAL'
p5566
S'-13'
p5567
ssg286
(dp5568
S'LAL'
p5569
S'-13'
p5570
ssg292
(dp5571
S'LAL'
p5572
S'-13'
p5573
ssg295
(dp5574
S'LAL'
p5575
S'-13'
p5576
ssg298
(dp5577
S'MIL'
p5578
S'-13.5'
p5579
ssg302
(dp5580
S'LAL'
p5581
S'-13'
p5582
ssg305
(dp5583
S'LAL'
p5584
S'-13'
p5585
ssg308
(dp5586
S'LAL'
p5587
S'-13'
p5588
ssg311
(dp5589
S'LAL'
p5590
S'-13'
p5591
ssg80
(dp5592
S'LAL'
p5593
S'-13'
p5594
ssg318
(dp5595
S'LAL'
p5596
S'-13'
p5597
ssg936
(dp5598
S'PHO'
p5599
S'-12.5'
p5600
ssg325
(dp5601
S'LAL'
p5602
S'-13'
p5603
ssg328
(dp5604
S'LAL'
p5605
S'-13'
p5606
ssg4297
(dp5607
S'CLE'
p5608
S'-6'
p5609
ssg331
(dp5610
S'LAL'
p5611
S'-13'
p5612
ssg334
(dp5613
S'LAL'
p5614
S'-13'
p5615
ssg337
(dp5616
S'LAL'
p5617
S'-13'
p5618
ssg340
(dp5619
S'LAL'
p5620
S'-13'
p5621
ssg343
(dp5622
S'LAL'
p5623
S'-13'
p5624
ssg346
(dp5625
S'LAL'
p5626
S'-13'
p5627
ssg349
(dp5628
S'LAL'
p5629
S'-13'
p5630
ssg352
(dp5631
S'LAL'
p5632
S'-13'
p5633
sssg1641
(dp5634
g3
(dp5635
g1638
S'-10'
p5636
ssg11
(dp5637
S'PHI'
p5638
S'-7.5'
p5639
ssg15
(dp5640
S'PHI'
p5641
S'-7.5'
p5642
ssg18
(dp5643
S'PHI'
p5644
S'-7.5'
p5645
ssg21
(dp5646
S'PHI'
p5647
S'-7.5'
p5648
ssg24
(dp5649
S'PHI'
p5650
S'-7.5'
p5651
ssg27
(dp5652
S'PHI'
p5653
S'-7.5'
p5654
ssg38
(dp5655
S'PHI'
p5656
S'-7.5'
p5657
ssg41
(dp5658
S'PHI'
p5659
S'-7.5'
p5660
ssg44
(dp5661
S'PHI'
p5662
S'-7.5'
p5663
ssg51
(dp5664
S'PHI'
p5665
S'-7.5'
p5666
ssg58
(dp5667
S'PHI'
p5668
S'-7.5'
p5669
ssg61
(dp5670
S'PHI'
p5671
S'-7.5'
p5672
ssg64
(dp5673
S'PHI'
p5674
S'-7.5'
p5675
ssg67
(dp5676
S'PHI'
p5677
S'-7.5'
p5678
ssg70
(dp5679
S'PHI'
p5680
S'-7.5'
p5681
ssg73
(dp5682
S'PHI'
p5683
S'-7.5'
p5684
ssg76
(dp5685
S'MIL'
p5686
S'-6'
p5687
ssg4054
(dp5688
S'CLE'
p5689
S'4.5'
p5690
ssg83
(dp5691
S'PHI'
p5692
S'-7.5'
p5693
ssg86
(dp5694
S'PHI'
p5695
S'-7.5'
p5696
ssg89
(dp5697
S'PHI'
p5698
S'-7.5'
p5699
ssg92
(dp5700
S'DET'
p5701
S'-9.5'
p5702
ssg96
(dp5703
S'PHI'
p5704
S'-7.5'
p5705
ssg99
(dp5706
S'PHI'
p5707
S'-7.5'
p5708
ssg102
(dp5709
S'PHI'
p5710
S'-7.5'
p5711
ssg442
(dp5712
S'BOS'
p5713
S'-10'
p5714
ssg105
(dp5715
S'PHI'
p5716
S'-7.5'
p5717
ssg108
(dp5718
S'PHI'
p5719
S'-7.5'
p5720
ssg115
(dp5721
S'PHI'
p5722
S'-7.5'
p5723
ssg118
(dp5724
S'WAS'
p5725
S'1.5'
p5726
ssg125
(dp5727
S'PHI'
p5728
S'-7.5'
p5729
ssg128
(dp5730
S'PHI'
p5731
S'-7.5'
p5732
ssg131
(dp5733
S'PHI'
p5734
S'-7.5'
p5735
ssg138
(dp5736
S'MIL'
p5737
S'-5'
p5738
ssg141
(dp5739
S'PHI'
p5740
S'-7.5'
p5741
ssg144
(dp5742
S'SA'
p5743
g95
ssg148
(dp5744
S'PHI'
p5745
S'-7.5'
p5746
ssg151
(dp5747
S'PHI'
p5748
S'-7.5'
p5749
ssg154
(dp5750
S'PHI'
p5751
S'-7.5'
p5752
ssg157
(dp5753
S'PHI'
p5754
S'-7.5'
p5755
ssg160
(dp5756
S'PHI'
p5757
S'-7.5'
p5758
ssg163
(dp5759
S'PHI'
p5760
S'-7.5'
p5761
ssg166
(dp5762
S'PHI'
p5763
S'-7.5'
p5764
ssg169
(dp5765
S'PHI'
p5766
S'-7.5'
p5767
ssg172
(dp5768
S'PHI'
p5769
S'-7.5'
p5770
ssg175
(dp5771
S'PHI'
p5772
S'-7.5'
p5773
ssg178
(dp5774
S'HOU'
p5775
g14
ssg809
(dp5776
S'ATL'
p5777
S'-1.5'
p5778
ssg182
(dp5779
S'PHI'
p5780
S'-7.5'
p5781
ssg185
(dp5782
S'PHI'
p5783
S'-7.5'
p5784
ssg188
(dp5785
S'PHI'
p5786
S'-7.5'
p5787
ssg191
(dp5788
S'ORL'
p5789
S'-8'
p5790
ssg194
(dp5791
S'PHI'
p5792
S'-7.5'
p5793
ssg197
(dp5794
S'PHI'
p5795
S'-7.5'
p5796
ssg200
(dp5797
S'PHI'
p5798
S'-7.5'
p5799
ssg203
(dp5800
S'PHI'
p5801
S'-7.5'
p5802
ssg206
(dp5803
S'PHI'
p5804
S'-7.5'
p5805
ssg1493
(dp5806
S'LAC'
p5807
g720
ssg209
(dp5808
S'PHI'
p5809
S'-7.5'
p5810
ssg212
(dp5811
S'PHI'
p5812
S'-7.5'
p5813
ssg215
(dp5814
S'PHI'
p5815
S'-7.5'
p5816
ssg218
(dp5817
S'PHI'
p5818
S'-7.5'
p5819
ssg221
(dp5820
S'DEN'
p5821
S'-9.5'
p5822
ssg225
(dp5823
S'PHI'
p5824
S'-7.5'
p5825
ssg228
(dp5826
S'PHI'
p5827
S'-7.5'
p5828
ssg235
(dp5829
S'PHI'
p5830
S'-7.5'
p5831
ssg238
(dp5832
S'PHI'
p5833
S'-7.5'
p5834
ssg241
(dp5835
S'PHI'
p5836
S'-7.5'
p5837
ssg571
(dp5838
S'DEN'
p5839
S'-10.5'
p5840
ssg244
(dp5841
S'PHI'
p5842
S'-7.5'
p5843
ssg247
(dp5844
S'PHI'
p5845
S'-7.5'
p5846
ssg250
(dp5847
S'PHI'
p5848
S'-7.5'
p5849
ssg253
(dp5850
S'PHI'
p5851
S'-7.5'
p5852
ssg256
(dp5853
S'PHI'
p5854
S'-7.5'
p5855
ssg259
(dp5856
S'PHI'
p5857
S'-7.5'
p5858
ssg262
(dp5859
S'PHI'
p5860
S'-7.5'
p5861
ssg265
(dp5862
S'PHI'
p5863
S'-7.5'
p5864
ssg268
(dp5865
S'PHI'
p5866
S'-7.5'
p5867
ssg271
(dp5868
S'PHI'
p5869
S'-7.5'
p5870
ssg605
(dp5871
S'POR'
p5872
S'-2.5'
p5873
ssg274
(dp5874
S'PHI'
p5875
S'-7.5'
p5876
ssg277
(dp5877
S'PHI'
p5878
S'-7.5'
p5879
ssg280
(dp5880
S'PHI'
p5881
S'-7.5'
p5882
ssg283
(dp5883
S'PHI'
p5884
S'-7.5'
p5885
ssg286
(dp5886
S'PHI'
p5887
S'-7.5'
p5888
ssg289
(dp5889
S'PHI'
p5890
S'-7.5'
p5891
ssg912
(dp5892
S'CHA'
p5893
S'-4'
p5894
ssg292
(dp5895
S'PHI'
p5896
S'-7.5'
p5897
ssg295
(dp5898
S'PHI'
p5899
S'-7.5'
p5900
ssg302
(dp5901
S'PHI'
p5902
S'-7.5'
p5903
ssg305
(dp5904
S'PHI'
p5905
S'-7.5'
p5906
ssg308
(dp5907
S'PHI'
p5908
S'-7.5'
p5909
ssg311
(dp5910
S'PHI'
p5911
S'-7.5'
p5912
ssg80
(dp5913
S'PHI'
p5914
S'-7.5'
p5915
ssg318
(dp5916
S'PHI'
p5917
S'-7.5'
p5918
ssg321
(dp5919
S'CHA'
p5920
S'-4'
p5921
ssg325
(dp5922
S'PHI'
p5923
S'-7.5'
p5924
ssg328
(dp5925
S'PHI'
p5926
S'-7.5'
p5927
ssg331
(dp5928
S'PHI'
p5929
S'-7.5'
p5930
ssg334
(dp5931
S'PHI'
p5932
S'-7.5'
p5933
ssg337
(dp5934
S'PHI'
p5935
S'-7.5'
p5936
ssg340
(dp5937
S'PHI'
p5938
S'-7.5'
p5939
ssg343
(dp5940
S'PHI'
p5941
S'-7.5'
p5942
ssg346
(dp5943
S'PHI'
p5944
S'-7.5'
p5945
ssg349
(dp5946
S'PHI'
p5947
S'-7.5'
p5948
ssg352
(dp5949
S'PHI'
p5950
S'-7.5'
p5951
sssg358
(dp5952
g3
(dp5953
g355
S'-3'
p5954
ssg7
(dp5955
S'WAS'
p5956
S'-8.5'
p5957
ssg11
(dp5958
S'SAC'
p5959
S'-3'
p5960
ssg15
(dp5961
S'SAC'
p5962
S'-3'
p5963
ssg18
(dp5964
S'SAC'
p5965
S'-3'
p5966
ssg21
(dp5967
S'SAC'
p5968
S'-3'
p5969
ssg24
(dp5970
S'SAC'
p5971
S'-3'
p5972
ssg27
(dp5973
S'SAC'
p5974
S'-3'
p5975
ssg34
(dp5976
S'OKC'
p5977
S'4.5'
p5978
ssg38
(dp5979
S'SAC'
p5980
S'-3'
p5981
ssg41
(dp5982
S'SAC'
p5983
S'-3'
p5984
ssg44
(dp5985
S'SAC'
p5986
S'-3'
p5987
ssg51
(dp5988
S'SAC'
p5989
S'-3'
p5990
ssg54
(dp5991
S'NO'
p5992
S'-2'
p5993
ssg58
(dp5994
S'SAC'
p5995
S'-3'
p5996
ssg402
(dp5997
S'MIN'
p5998
S'-6.5'
p5999
ssg61
(dp6000
S'SAC'
p6001
S'-3'
p6002
ssg64
(dp6003
S'SAC'
p6004
S'-3'
p6005
ssg67
(dp6006
S'SAC'
p6007
S'-3'
p6008
ssg70
(dp6009
S'SAC'
p6010
S'-3'
p6011
ssg73
(dp6012
S'SAC'
p6013
S'-3'
p6014
ssg80
(dp6015
S'SAC'
p6016
S'-3'
p6017
ssg4054
(dp6018
S'LAC'
p6019
S'-7.5'
p6020
ssg83
(dp6021
S'SAC'
p6022
S'-3'
p6023
ssg86
(dp6024
S'SAC'
p6025
S'-3'
p6026
ssg89
(dp6027
S'SAC'
p6028
S'-3'
p6029
ssg96
(dp6030
S'SAC'
p6031
S'-3'
p6032
ssg99
(dp6033
S'SAC'
p6034
S'-3'
p6035
ssg102
(dp6036
S'SAC'
p6037
S'-3'
p6038
ssg442
(dp6039
S'MIA'
p6040
S'-6.5'
p6041
ssg105
(dp6042
S'SAC'
p6043
S'-3'
p6044
ssg108
(dp6045
S'SAC'
p6046
S'-3'
p6047
ssg111
(dp6048
S'DAL'
p6049
g95
ssg115
(dp6050
S'SAC'
p6051
S'-3'
p6052
ssg118
(dp6053
S'ATL'
p6054
S'8.5'
p6055
ssg125
(dp6056
S'SAC'
p6057
S'-3'
p6058
ssg128
(dp6059
S'SAC'
p6060
S'-3'
p6061
ssg131
(dp6062
S'SAC'
p6063
S'-3'
p6064
ssg134
(dp6065
S'ORL'
p6066
S'-9'
p6067
ssg138
(dp6068
S'SAC'
p6069
S'-10.5'
p6070
ssg247
(dp6071
S'SAC'
p6072
S'-3'
p6073
ssg144
(dp6074
S'OKC'
p6075
S'4.5'
p6076
ssg148
(dp6077
S'SAC'
p6078
S'-3'
p6079
ssg151
(dp6080
S'SAC'
p6081
S'-3'
p6082
ssg154
(dp6083
S'SAC'
p6084
S'-3'
p6085
ssg157
(dp6086
S'SAC'
p6087
S'-3'
p6088
ssg160
(dp6089
S'SAC'
p6090
S'-3'
p6091
ssg163
(dp6092
S'SAC'
p6093
S'-3'
p6094
ssg166
(dp6095
S'SAC'
p6096
S'-3'
p6097
ssg169
(dp6098
S'SAC'
p6099
S'-3'
p6100
ssg172
(dp6101
S'SAC'
p6102
S'-3'
p6103
ssg175
(dp6104
S'SAC'
p6105
S'-3'
p6106
ssg178
(dp6107
S'CHI'
p6108
S'-3'
p6109
ssg182
(dp6110
S'SAC'
p6111
S'-3'
p6112
ssg185
(dp6113
S'SAC'
p6114
S'-3'
p6115
ssg188
(dp6116
S'SAC'
p6117
S'-3'
p6118
ssg191
(dp6119
S'MIA'
p6120
g790
ssg194
(dp6121
S'SAC'
p6122
S'-3'
p6123
ssg197
(dp6124
S'SAC'
p6125
S'-3'
p6126
ssg200
(dp6127
S'SAC'
p6128
S'-3'
p6129
ssg203
(dp6130
S'SAC'
p6131
S'-3'
p6132
ssg206
(dp6133
S'SAC'
p6134
S'-3'
p6135
ssg1493
(dp6136
S'CLE'
p6137
S'0'
p6138
ssg209
(dp6139
S'SAC'
p6140
S'-3'
p6141
ssg212
(dp6142
S'SAC'
p6143
S'-3'
p6144
ssg215
(dp6145
S'SAC'
p6146
S'-3'
p6147
ssg218
(dp6148
S'SAC'
p6149
S'-3'
p6150
ssg221
(dp6151
S'NO'
p6152
S'-3.5'
p6153
ssg225
(dp6154
S'SAC'
p6155
S'-3'
p6156
ssg228
(dp6157
S'SAC'
p6158
S'-3'
p6159
ssg235
(dp6160
S'SAC'
p6161
S'-3'
p6162
ssg238
(dp6163
S'SAC'
p6164
S'-3'
p6165
ssg241
(dp6166
S'SAC'
p6167
S'-3'
p6168
ssg244
(dp6169
S'SAC'
p6170
S'-3'
p6171
ssg141
(dp6172
S'SAC'
p6173
S'-3'
p6174
ssg250
(dp6175
S'SAC'
p6176
S'-3'
p6177
ssg253
(dp6178
S'SAC'
p6179
S'-3'
p6180
ssg256
(dp6181
S'SAC'
p6182
S'-3'
p6183
ssg259
(dp6184
S'SAC'
p6185
S'-3'
p6186
ssg262
(dp6187
S'SAC'
p6188
S'-3'
p6189
ssg265
(dp6190
S'SAC'
p6191
S'-3'
p6192
ssg268
(dp6193
S'SAC'
p6194
S'-3'
p6195
ssg271
(dp6196
S'SAC'
p6197
S'-3'
p6198
ssg274
(dp6199
S'SAC'
p6200
S'-3'
p6201
ssg4246
(dp6202
S'SAC'
p6203
S'-1'
p6204
ssg277
(dp6205
S'SAC'
p6206
S'-3'
p6207
ssg280
(dp6208
S'SAC'
p6209
S'-3'
p6210
ssg283
(dp6211
S'SAC'
p6212
S'-3'
p6213
ssg286
(dp6214
S'SAC'
p6215
S'-3'
p6216
ssg289
(dp6217
S'SAC'
p6218
S'-3'
p6219
ssg292
(dp6220
S'SAC'
p6221
S'-3'
p6222
ssg295
(dp6223
S'SAC'
p6224
S'-3'
p6225
ssg298
(dp6226
S'MEM'
p6227
S'-3'
p6228
ssg302
(dp6229
S'SAC'
p6230
S'-3'
p6231
ssg305
(dp6232
S'SAC'
p6233
S'-3'
p6234
ssg308
(dp6235
S'SAC'
p6236
S'-3'
p6237
ssg311
(dp6238
S'SAC'
p6239
S'-3'
p6240
ssg314
(dp6241
S'NO'
p6242
S'-15'
p6243
ssg318
(dp6244
S'SAC'
p6245
S'-3'
p6246
ssg321
(dp6247
S'WAS'
p6248
S'-2'
p6249
ssg936
(dp6250
S'DAL'
p6251
S'2.5'
p6252
ssg325
(dp6253
S'SAC'
p6254
S'-3'
p6255
ssg328
(dp6256
S'SAC'
p6257
S'-3'
p6258
ssg331
(dp6259
S'SAC'
p6260
S'-3'
p6261
ssg334
(dp6262
S'SAC'
p6263
S'-3'
p6264
ssg337
(dp6265
S'SAC'
p6266
S'-3'
p6267
ssg340
(dp6268
S'SAC'
p6269
S'-3'
p6270
ssg343
(dp6271
S'SAC'
p6272
S'-3'
p6273
ssg346
(dp6274
S'SAC'
p6275
S'-3'
p6276
ssg349
(dp6277
S'SAC'
p6278
S'-3'
p6279
ssg352
(dp6280
S'SAC'
p6281
S'-3'
p6282
sssg3507
(dp6283
g3
(dp6284
g3504
S'-7.5'
p6285
ssg7
(dp6286
S'HOU'
p6287
S'8.5'
p6288
ssg11
(dp6289
S'ORL'
p6290
S'-1'
p6291
ssg15
(dp6292
S'ORL'
p6293
S'-1'
p6294
ssg18
(dp6295
S'ORL'
p6296
S'-1'
p6297
ssg21
(dp6298
S'ORL'
p6299
S'-1'
p6300
ssg24
(dp6301
S'ORL'
p6302
S'-1'
p6303
ssg703
(dp6304
S'CHA'
p6305
S'-6'
p6306
ssg27
(dp6307
S'ORL'
p6308
S'-1'
p6309
ssg30
(dp6310
S'MEM'
p6311
g10
ssg38
(dp6312
S'ORL'
p6313
S'-1'
p6314
ssg41
(dp6315
S'ORL'
p6316
S'-1'
p6317
ssg44
(dp6318
S'ORL'
p6319
S'-1'
p6320
ssg51
(dp6321
S'ORL'
p6322
S'-1'
p6323
ssg54
(dp6324
S'OKC'
p6325
S'7.5'
p6326
ssg58
(dp6327
S'ORL'
p6328
S'-1'
p6329
ssg402
(dp6330
S'DET'
p6331
S'-6'
p6332
ssg61
(dp6333
S'ORL'
p6334
S'-1'
p6335
ssg64
(dp6336
S'ORL'
p6337
S'-1'
p6338
ssg67
(dp6339
S'ORL'
p6340
S'-1'
p6341
ssg70
(dp6342
S'ORL'
p6343
S'-1'
p6344
ssg73
(dp6345
S'ORL'
p6346
S'-1'
p6347
ssg80
(dp6348
S'ORL'
p6349
S'-1'
p6350
ssg83
(dp6351
S'ORL'
p6352
S'-1'
p6353
ssg86
(dp6354
S'ORL'
p6355
S'-1'
p6356
ssg89
(dp6357
S'ORL'
p6358
S'-1'
p6359
ssg92
(dp6360
S'NY'
p6361
S'-14.5'
p6362
ssg1720
(dp6363
S'DET'
p6364
S'-3'
p6365
ssg96
(dp6366
S'ORL'
p6367
S'-1'
p6368
ssg99
(dp6369
S'ORL'
p6370
S'-1'
p6371
ssg102
(dp6372
S'ORL'
p6373
S'-1'
p6374
ssg442
(dp6375
S'SA'
p6376
S'5.5'
p6377
ssg105
(dp6378
S'ORL'
p6379
S'-1'
p6380
ssg108
(dp6381
S'ORL'
p6382
S'-1'
p6383
ssg111
(dp6384
S'PHO'
p6385
S'2.5'
p6386
ssg115
(dp6387
S'ORL'
p6388
S'-1'
p6389
ssg118
(dp6390
S'CHI'
p6391
S'-1.5'
p6392
ssg122
(dp6393
S'CHA'
p6394
S'-8'
p6395
ssg125
(dp6396
S'ORL'
p6397
S'-1'
p6398
ssg128
(dp6399
S'ORL'
p6400
S'-1'
p6401
ssg131
(dp6402
S'ORL'
p6403
S'-1'
p6404
ssg134
(dp6405
S'SA'
p6406
g790
ssg138
(dp6407
S'PHI'
p6408
S'-10'
p6409
ssS'NOV 05, 2014'
p6410
(dp6411
S'IND'
p6412
S'-3.5'
p6413
ssg141
(dp6414
S'ORL'
p6415
S'-1'
p6416
ssg148
(dp6417
S'ORL'
p6418
S'-1'
p6419
ssg151
(dp6420
S'ORL'
p6421
S'-1'
p6422
ssg154
(dp6423
S'ORL'
p6424
S'-1'
p6425
ssg157
(dp6426
S'ORL'
p6427
S'-1'
p6428
ssg488
(dp6429
S'CLE'
p6430
S'8.5'
p6431
ssg160
(dp6432
S'ORL'
p6433
S'-1'
p6434
ssg163
(dp6435
S'ORL'
p6436
S'-1'
p6437
ssg166
(dp6438
S'ORL'
p6439
S'-1'
p6440
ssg169
(dp6441
S'ORL'
p6442
S'-1'
p6443
ssg172
(dp6444
S'ORL'
p6445
S'-1'
p6446
ssg175
(dp6447
S'ORL'
p6448
S'-1'
p6449
ssg178
(dp6450
S'ATL'
p6451
g79
ssg809
(dp6452
S'MEM'
p6453
S'4.5'
p6454
ssg182
(dp6455
S'ORL'
p6456
S'-1'
p6457
ssg185
(dp6458
S'ORL'
p6459
S'-1'
p6460
ssg188
(dp6461
S'ORL'
p6462
S'-1'
p6463
ssg289
(dp6464
S'ORL'
p6465
S'-1'
p6466
ssg1143
(dp6467
S'ATL'
p6468
S'5.5'
p6469
ssg194
(dp6470
S'ORL'
p6471
S'-1'
p6472
ssg197
(dp6473
S'ORL'
p6474
S'-1'
p6475
ssg200
(dp6476
S'ORL'
p6477
S'-1'
p6478
ssg203
(dp6479
S'ORL'
p6480
S'-1'
p6481
ssg206
(dp6482
S'ORL'
p6483
S'-1'
p6484
ssg209
(dp6485
S'ORL'
p6486
S'-1'
p6487
ssg212
(dp6488
S'ORL'
p6489
S'-1'
p6490
ssg215
(dp6491
S'ORL'
p6492
S'-1'
p6493
ssg218
(dp6494
S'ORL'
p6495
S'-1'
p6496
ssg221
(dp6497
S'LAL'
p6498
S'-10'
p6499
ssg225
(dp6500
S'ORL'
p6501
S'-1'
p6502
ssg228
(dp6503
S'ORL'
p6504
S'-1'
p6505
ssg235
(dp6506
S'ORL'
p6507
S'-1'
p6508
ssg238
(dp6509
S'ORL'
p6510
S'-1'
p6511
ssg241
(dp6512
S'ORL'
p6513
S'-1'
p6514
ssg244
(dp6515
S'ORL'
p6516
S'-1'
p6517
ssg247
(dp6518
S'ORL'
p6519
S'-1'
p6520
ssg250
(dp6521
S'ORL'
p6522
S'-1'
p6523
ssg253
(dp6524
S'ORL'
p6525
S'-1'
p6526
ssg256
(dp6527
S'ORL'
p6528
S'-1'
p6529
ssg259
(dp6530
S'ORL'
p6531
S'-1'
p6532
ssg262
(dp6533
S'ORL'
p6534
S'-1'
p6535
ssg265
(dp6536
S'ORL'
p6537
S'-1'
p6538
ssg268
(dp6539
S'ORL'
p6540
S'-1'
p6541
ssg271
(dp6542
S'ORL'
p6543
S'-1'
p6544
ssg605
(dp6545
S'LAC'
p6546
S'2.5'
p6547
ssg274
(dp6548
S'ORL'
p6549
S'-1'
p6550
ssg277
(dp6551
S'ORL'
p6552
S'-1'
p6553
ssg280
(dp6554
S'ORL'
p6555
S'-1'
p6556
ssg283
(dp6557
S'ORL'
p6558
S'-1'
p6559
ssg286
(dp6560
S'ORL'
p6561
S'-1'
p6562
ssg292
(dp6563
S'ORL'
p6564
S'-1'
p6565
ssg295
(dp6566
S'ORL'
p6567
S'-1'
p6568
ssg302
(dp6569
S'ORL'
p6570
S'-1'
p6571
ssg305
(dp6572
S'ORL'
p6573
S'-1'
p6574
ssg308
(dp6575
S'ORL'
p6576
S'-1'
p6577
ssg311
(dp6578
S'ORL'
p6579
S'-1'
p6580
ssg314
(dp6581
S'MIL'
p6582
S'-11'
p6583
ssg318
(dp6584
S'ORL'
p6585
S'-1'
p6586
ssg321
(dp6587
S'HOU'
p6588
g720
ssg325
(dp6589
S'ORL'
p6590
S'-1'
p6591
ssg328
(dp6592
S'ORL'
p6593
S'-1'
p6594
ssg331
(dp6595
S'ORL'
p6596
S'-1'
p6597
ssg334
(dp6598
S'ORL'
p6599
S'-1'
p6600
ssg337
(dp6601
S'ORL'
p6602
S'-1'
p6603
ssg340
(dp6604
S'ORL'
p6605
S'-1'
p6606
ssg343
(dp6607
S'ORL'
p6608
S'-1'
p6609
ssg346
(dp6610
S'ORL'
p6611
S'-1'
p6612
ssg349
(dp6613
S'ORL'
p6614
S'-1'
p6615
ssg352
(dp6616
S'ORL'
p6617
S'-1'
p6618
sssg5301
(dp6619
g3
(dp6620
g5298
S'9.5'
p6621
ssg11
(dp6622
S'GS'
p6623
S'13'
p6624
ssg15
(dp6625
S'GS'
p6626
S'13'
p6627
ssg18
(dp6628
S'GS'
p6629
S'13'
p6630
ssg21
(dp6631
S'GS'
p6632
S'13'
p6633
ssg24
(dp6634
S'GS'
p6635
S'13'
p6636
ssg27
(dp6637
S'GS'
p6638
S'13'
p6639
ssg38
(dp6640
S'GS'
p6641
S'13'
p6642
ssg41
(dp6643
S'GS'
p6644
S'13'
p6645
ssg44
(dp6646
S'GS'
p6647
S'13'
p6648
ssg47
(dp6649
S'IND'
p6650
g6138
ssg51
(dp6651
S'GS'
p6652
S'13'
p6653
ssg54
(dp6654
S'MEM'
p6655
g790
ssg58
(dp6656
S'GS'
p6657
S'13'
p6658
ssg402
(dp6659
S'NO'
p6660
S'10.5'
p6661
ssg61
(dp6662
S'GS'
p6663
S'13'
p6664
ssg64
(dp6665
S'GS'
p6666
S'13'
p6667
ssg67
(dp6668
S'GS'
p6669
S'13'
p6670
ssg70
(dp6671
S'GS'
p6672
S'13'
p6673
ssg73
(dp6674
S'GS'
p6675
S'13'
p6676
ssg83
(dp6677
S'GS'
p6678
S'13'
p6679
ssg86
(dp6680
S'GS'
p6681
S'13'
p6682
ssg89
(dp6683
S'GS'
p6684
S'13'
p6685
ssg92
(dp6686
S'POR'
p6687
S'10.5'
p6688
ssg1720
(dp6689
S'GS'
p6690
S'3.5'
p6691
ssg96
(dp6692
S'GS'
p6693
S'13'
p6694
ssg99
(dp6695
S'GS'
p6696
S'13'
p6697
ssg102
(dp6698
S'GS'
p6699
S'13'
p6700
ssg105
(dp6701
S'GS'
p6702
S'13'
p6703
ssg108
(dp6704
S'GS'
p6705
S'13'
p6706
ssg111
(dp6707
S'ATL'
p6708
S'11'
p6709
ssg115
(dp6710
S'GS'
p6711
S'13'
p6712
ssg118
(dp6713
S'CHA'
p6714
g1601
ssg125
(dp6715
S'GS'
p6716
S'13'
p6717
ssg128
(dp6718
S'GS'
p6719
S'13'
p6720
ssg131
(dp6721
S'GS'
p6722
S'13'
p6723
ssg138
(dp6724
S'NO'
p6725
S'9.5'
p6726
ssg141
(dp6727
S'GS'
p6728
S'13'
p6729
ssg775
(dp6730
S'NY'
p6731
g14
ssg148
(dp6732
S'GS'
p6733
S'13'
p6734
ssg151
(dp6735
S'GS'
p6736
S'13'
p6737
ssg154
(dp6738
S'GS'
p6739
S'13'
p6740
ssg157
(dp6741
S'GS'
p6742
S'13'
p6743
ssg488
(dp6744
S'PHI'
p6745
g720
ssg160
(dp6746
S'GS'
p6747
S'13'
p6748
ssg163
(dp6749
S'GS'
p6750
S'13'
p6751
ssg166
(dp6752
S'GS'
p6753
S'13'
p6754
ssg169
(dp6755
S'GS'
p6756
S'13'
p6757
ssg172
(dp6758
S'GS'
p6759
S'13'
p6760
ssg175
(dp6761
S'GS'
p6762
S'13'
p6763
ssg178
(dp6764
S'MIL'
p6765
S'9.5'
p6766
ssg809
(dp6767
S'UTA'
p6768
S'-2'
p6769
ssg182
(dp6770
S'GS'
p6771
S'13'
p6772
ssg185
(dp6773
S'GS'
p6774
S'13'
p6775
ssg188
(dp6776
S'GS'
p6777
S'13'
p6778
ssg191
(dp6779
S'DAL'
p6780
g790
ssg194
(dp6781
S'GS'
p6782
S'13'
p6783
ssg197
(dp6784
S'GS'
p6785
S'13'
p6786
ssg200
(dp6787
S'GS'
p6788
S'13'
p6789
ssg203
(dp6790
S'GS'
p6791
S'13'
p6792
ssg206
(dp6793
S'GS'
p6794
S'13'
p6795
ssg1493
(dp6796
S'OKC'
p6797
g790
ssg836
(dp6798
S'UTA'
p6799
g14
ssg209
(dp6800
S'GS'
p6801
S'13'
p6802
ssg212
(dp6803
S'GS'
p6804
S'13'
p6805
ssg215
(dp6806
S'GS'
p6807
S'13'
p6808
ssg218
(dp6809
S'GS'
p6810
S'13'
p6811
ssg221
(dp6812
S'WAS'
p6813
S'10'
p6814
ssg225
(dp6815
S'GS'
p6816
S'13'
p6817
ssg228
(dp6818
S'GS'
p6819
S'13'
p6820
ssg231
(dp6821
S'MEM'
p6822
S'10'
p6823
ssg235
(dp6824
S'GS'
p6825
S'13'
p6826
ssg238
(dp6827
S'GS'
p6828
S'13'
p6829
ssg241
(dp6830
S'GS'
p6831
S'13'
p6832
ssg244
(dp6833
S'GS'
p6834
S'13'
p6835
ssg247
(dp6836
S'GS'
p6837
S'13'
p6838
ssg250
(dp6839
S'GS'
p6840
S'13'
p6841
ssg253
(dp6842
S'GS'
p6843
S'13'
p6844
ssg256
(dp6845
S'GS'
p6846
S'13'
p6847
ssg259
(dp6848
S'GS'
p6849
S'13'
p6850
ssg262
(dp6851
S'GS'
p6852
S'13'
p6853
ssg265
(dp6854
S'GS'
p6855
S'13'
p6856
ssg268
(dp6857
S'GS'
p6858
S'13'
p6859
ssg271
(dp6860
S'GS'
p6861
S'13'
p6862
ssg605
(dp6863
S'SA'
p6864
S'12'
p6865
ssg274
(dp6866
S'GS'
p6867
S'13'
p6868
ssg277
(dp6869
S'GS'
p6870
S'13'
p6871
ssg280
(dp6872
S'GS'
p6873
S'13'
p6874
ssg283
(dp6875
S'GS'
p6876
S'13'
p6877
ssg286
(dp6878
S'GS'
p6879
S'13'
p6880
ssg289
(dp6881
S'GS'
p6882
S'13'
p6883
ssg912
(dp6884
S'DEN'
p6885
S'-2.5'
p6886
ssg292
(dp6887
S'GS'
p6888
S'13'
p6889
ssg295
(dp6890
S'GS'
p6891
S'13'
p6892
ssg298
(dp6893
S'MIA'
p6894
S'9.5'
p6895
ssg302
(dp6896
S'GS'
p6897
S'13'
p6898
ssg305
(dp6899
S'GS'
p6900
S'13'
p6901
ssg308
(dp6902
S'GS'
p6903
S'13'
p6904
ssg311
(dp6905
S'GS'
p6906
S'13'
p6907
ssg80
(dp6908
S'GS'
p6909
S'13'
p6910
ssg318
(dp6911
S'GS'
p6912
S'13'
p6913
ssg325
(dp6914
S'GS'
p6915
S'13'
p6916
ssg328
(dp6917
S'GS'
p6918
S'13'
p6919
ssg331
(dp6920
S'GS'
p6921
S'13'
p6922
ssg334
(dp6923
S'GS'
p6924
S'13'
p6925
ssg337
(dp6926
S'GS'
p6927
S'13'
p6928
ssg340
(dp6929
S'GS'
p6930
S'13'
p6931
ssg343
(dp6932
S'GS'
p6933
S'13'
p6934
ssg346
(dp6935
S'GS'
p6936
S'13'
p6937
ssg349
(dp6938
S'GS'
p6939
S'13'
p6940
ssg352
(dp6941
S'GS'
p6942
S'13'
p6943
sssS'PHI'
p6944
(dp6945
g3
(dp6946
S'MEM'
p6947
S'14.5'
p6948
ssg7
(dp6949
S'UTA'
p6950
g10
ssg11
(dp6951
S'CHI'
p6952
S'7.5'
p6953
ssg15
(dp6954
S'CHI'
p6955
S'7.5'
p6956
ssg18
(dp6957
S'CHI'
p6958
S'7.5'
p6959
ssg21
(dp6960
S'CHI'
p6961
S'7.5'
p6962
ssg24
(dp6963
S'CHI'
p6964
S'7.5'
p6965
ssg703
(dp6966
S'SAC'
p6967
S'9.5'
p6968
ssg27
(dp6969
S'CHI'
p6970
S'7.5'
p6971
ssg30
(dp6972
S'CHA'
p6973
S'6.5'
p6974
ssg34
(dp6975
S'CLE'
p6976
S'13'
p6977
ssg38
(dp6978
S'CHI'
p6979
S'7.5'
p6980
ssg41
(dp6981
S'CHI'
p6982
S'7.5'
p6983
ssg44
(dp6984
S'CHI'
p6985
S'7.5'
p6986
ssg51
(dp6987
S'CHI'
p6988
S'7.5'
p6989
ssg395
(dp6990
S'TOR'
p6991
S'9.5'
p6992
ssg54
(dp6993
S'PHO'
p6994
S'14'
p6995
ssg58
(dp6996
S'CHI'
p6997
S'7.5'
p6998
ssg61
(dp6999
S'CHI'
p7000
S'7.5'
p7001
ssg64
(dp7002
S'CHI'
p7003
S'7.5'
p7004
ssg67
(dp7005
S'CHI'
p7006
S'7.5'
p7007
ssg70
(dp7008
S'CHI'
p7009
S'7.5'
p7010
ssg73
(dp7011
S'CHI'
p7012
S'7.5'
p7013
ssg80
(dp7014
S'CHI'
p7015
S'7.5'
p7016
ssg83
(dp7017
S'CHI'
p7018
S'7.5'
p7019
ssg86
(dp7020
S'CHI'
p7021
S'7.5'
p7022
ssg89
(dp7023
S'CHI'
p7024
S'7.5'
p7025
ssg96
(dp7026
S'CHI'
p7027
S'7.5'
p7028
ssg99
(dp7029
S'CHI'
p7030
S'7.5'
p7031
ssg102
(dp7032
S'CHI'
p7033
S'7.5'
p7034
ssg442
(dp7035
S'LAC'
p7036
S'19.5'
p7037
ssg105
(dp7038
S'CHI'
p7039
S'7.5'
p7040
ssg108
(dp7041
S'CHI'
p7042
S'7.5'
p7043
ssg115
(dp7044
S'CHI'
p7045
S'7.5'
p7046
ssg122
(dp7047
S'CLE'
p7048
S'17'
p7049
ssg125
(dp7050
S'CHI'
p7051
S'7.5'
p7052
ssg128
(dp7053
S'CHI'
p7054
S'7.5'
p7055
ssg131
(dp7056
S'CHI'
p7057
S'7.5'
p7058
ssg134
(dp7059
S'MIL'
p7060
S'8.5'
p7061
ssg138
(dp7062
S'WAS'
p7063
S'10'
p7064
ssg247
(dp7065
S'CHI'
p7066
S'7.5'
p7067
ssg148
(dp7068
S'CHI'
p7069
S'7.5'
p7070
ssg151
(dp7071
S'CHI'
p7072
S'7.5'
p7073
ssg154
(dp7074
S'CHI'
p7075
S'7.5'
p7076
ssg157
(dp7077
S'CHI'
p7078
S'7.5'
p7079
ssg488
(dp7080
S'LAL'
p7081
S'-2'
p7082
ssg160
(dp7083
S'CHI'
p7084
S'7.5'
p7085
ssg163
(dp7086
S'CHI'
p7087
S'7.5'
p7088
ssg166
(dp7089
S'CHI'
p7090
S'7.5'
p7091
ssg169
(dp7092
S'CHI'
p7093
S'7.5'
p7094
ssg172
(dp7095
S'CHI'
p7096
S'7.5'
p7097
ssg175
(dp7098
S'CHI'
p7099
S'7.5'
p7100
ssg182
(dp7101
S'CHI'
p7102
S'7.5'
p7103
ssg185
(dp7104
S'CHI'
p7105
S'7.5'
p7106
ssg188
(dp7107
S'CHI'
p7108
S'7.5'
p7109
ssg289
(dp7110
S'CHI'
p7111
S'7.5'
p7112
ssg194
(dp7113
S'CHI'
p7114
S'7.5'
p7115
ssg197
(dp7116
S'CHI'
p7117
S'7.5'
p7118
ssg200
(dp7119
S'CHI'
p7120
S'7.5'
p7121
ssg203
(dp7122
S'CHI'
p7123
S'7.5'
p7124
ssg206
(dp7125
S'CHI'
p7126
S'7.5'
p7127
ssg1493
(dp7128
S'IND'
p7129
S'11'
p7130
ssg209
(dp7131
S'CHI'
p7132
S'7.5'
p7133
ssg212
(dp7134
S'CHI'
p7135
S'7.5'
p7136
ssg215
(dp7137
S'CHI'
p7138
S'7.5'
p7139
ssg218
(dp7140
S'CHI'
p7141
S'7.5'
p7142
ssg221
(dp7143
S'NY'
p7144
S'8.5'
p7145
ssg225
(dp7146
S'CHI'
p7147
S'7.5'
p7148
ssg228
(dp7149
S'CHI'
p7150
S'7.5'
p7151
ssg235
(dp7152
S'CHI'
p7153
S'7.5'
p7154
ssg238
(dp7155
S'CHI'
p7156
S'7.5'
p7157
ssg241
(dp7158
S'CHI'
p7159
S'7.5'
p7160
ssg244
(dp7161
S'CHI'
p7162
S'7.5'
p7163
ssg141
(dp7164
S'CHI'
p7165
S'7.5'
p7166
ssg870
(dp7167
S'DEN'
p7168
S'7.5'
p7169
ssg250
(dp7170
S'CHI'
p7171
S'7.5'
p7172
ssg253
(dp7173
S'CHI'
p7174
S'7.5'
p7175
ssg256
(dp7176
S'CHI'
p7177
S'7.5'
p7178
ssg259
(dp7179
S'CHI'
p7180
S'7.5'
p7181
ssg262
(dp7182
S'CHI'
p7183
S'7.5'
p7184
ssg265
(dp7185
S'CHI'
p7186
S'7.5'
p7187
ssg268
(dp7188
S'CHI'
p7189
S'7.5'
p7190
ssg271
(dp7191
S'CHI'
p7192
S'7.5'
p7193
ssg605
(dp7194
S'BK'
p7195
S'6.5'
p7196
ssg274
(dp7197
S'CHI'
p7198
S'7.5'
p7199
ssg277
(dp7200
S'CHI'
p7201
S'7.5'
p7202
ssg280
(dp7203
S'CHI'
p7204
S'7.5'
p7205
ssg283
(dp7206
S'CHI'
p7207
S'7.5'
p7208
ssg286
(dp7209
S'CHI'
p7210
S'7.5'
p7211
ssg292
(dp7212
S'CHI'
p7213
S'7.5'
p7214
ssg295
(dp7215
S'CHI'
p7216
S'7.5'
p7217
ssg298
(dp7218
S'OKC'
p7219
S'15'
p7220
ssg302
(dp7221
S'CHI'
p7222
S'7.5'
p7223
ssg305
(dp7224
S'CHI'
p7225
S'7.5'
p7226
ssg308
(dp7227
S'CHI'
p7228
S'7.5'
p7229
ssg311
(dp7230
S'CHI'
p7231
S'7.5'
p7232
ssg314
(dp7233
S'CHA'
p7234
S'12'
p7235
ssg318
(dp7236
S'CHI'
p7237
S'7.5'
p7238
ssg321
(dp7239
S'NY'
p7240
g95
ssg325
(dp7241
S'CHI'
p7242
S'7.5'
p7243
ssg328
(dp7244
S'CHI'
p7245
S'7.5'
p7246
ssg331
(dp7247
S'CHI'
p7248
S'7.5'
p7249
ssg334
(dp7250
S'CHI'
p7251
S'7.5'
p7252
ssg337
(dp7253
S'CHI'
p7254
S'7.5'
p7255
ssg340
(dp7256
S'CHI'
p7257
S'7.5'
p7258
ssg343
(dp7259
S'CHI'
p7260
S'7.5'
p7261
ssg346
(dp7262
S'CHI'
p7263
S'7.5'
p7264
ssg349
(dp7265
S'CHI'
p7266
S'7.5'
p7267
ssg352
(dp7268
S'CHI'
p7269
S'7.5'
p7270
sssS'PHO'
p7271
(dp7272
g3
(dp7273
S'SA'
p7274
g790
ssg11
(dp7275
S'MIN'
p7276
g1996
ssg15
(dp7277
S'MIN'
p7278
g1996
ssg18
(dp7279
S'MIN'
p7280
g1996
ssg21
(dp7281
S'MIN'
p7282
g1996
ssg24
(dp7283
S'MIN'
p7284
g1996
ssg703
(dp7285
S'CLE'
p7286
S'-8'
p7287
ssg27
(dp7288
S'MIN'
p7289
g1996
ssg30
(dp7290
S'UTA'
p7291
S'-1.5'
p7292
ssg34
(dp7293
S'LAC'
p7294
g1601
ssg38
(dp7295
S'MIN'
p7296
g1996
ssg41
(dp7297
S'MIN'
p7298
g1996
ssg44
(dp7299
S'MIN'
p7300
g1996
ssg47
(dp7301
S'TOR'
p7302
S'-1'
p7303
ssg51
(dp7304
S'MIN'
p7305
g1996
ssg395
(dp7306
S'MIA'
p7307
S'1.5'
p7308
ssg54
(dp7309
S'PHI'
p7310
S'-14'
p7311
ssg58
(dp7312
S'MIN'
p7313
g1996
ssg402
(dp7314
S'BK'
p7315
S'-4.5'
p7316
ssg61
(dp7317
S'MIN'
p7318
g1996
ssg64
(dp7319
S'MIN'
p7320
g1996
ssg67
(dp7321
S'MIN'
p7322
g1996
ssg70
(dp7323
S'MIN'
p7324
g1996
ssg73
(dp7325
S'MIN'
p7326
g1996
ssg80
(dp7327
S'MIN'
p7328
g1996
ssg83
(dp7329
S'MIN'
p7330
g1996
ssg86
(dp7331
S'MIN'
p7332
g1996
ssg89
(dp7333
S'MIN'
p7334
g1996
ssg96
(dp7335
S'MIN'
p7336
g1996
ssg99
(dp7337
S'MIN'
p7338
g1996
ssg102
(dp7339
S'MIN'
p7340
g1996
ssg105
(dp7341
S'MIN'
p7342
g1996
ssg108
(dp7343
S'MIN'
p7344
g1996
ssg111
(dp7345
S'WAS'
p7346
S'-2.5'
p7347
ssg115
(dp7348
S'MIN'
p7349
g1996
ssg122
(dp7350
S'MEM'
p7351
S'2.5'
p7352
ssg125
(dp7353
S'MIN'
p7354
g1996
ssg128
(dp7355
S'MIN'
p7356
g1996
ssg131
(dp7357
S'MIN'
p7358
g1996
ssg134
(dp7359
S'SAC'
p7360
S'-9.5'
p7361
ssg247
(dp7362
S'MIN'
p7363
g1996
ssg148
(dp7364
S'MIN'
p7365
g1996
ssg151
(dp7366
S'MIN'
p7367
g1996
ssg154
(dp7368
S'MIN'
p7369
g1996
ssg157
(dp7370
S'MIN'
p7371
g1996
ssg488
(dp7372
S'BK'
p7373
S'-3.5'
p7374
ssg160
(dp7375
S'MIN'
p7376
g1996
ssg163
(dp7377
S'MIN'
p7378
g1996
ssg166
(dp7379
S'MIN'
p7380
g1996
ssg169
(dp7381
S'MIN'
p7382
g1996
ssg172
(dp7383
S'MIN'
p7384
g1996
ssg175
(dp7385
S'MIN'
p7386
g1996
ssg809
(dp7387
S'MIA'
p7388
g14
ssg182
(dp7389
S'MIN'
p7390
g1996
ssg185
(dp7391
S'MIN'
p7392
g1996
ssg188
(dp7393
S'MIN'
p7394
g1996
ssg289
(dp7395
S'MIN'
p7396
g1996
ssg194
(dp7397
S'MIN'
p7398
g1996
ssg197
(dp7399
S'MIN'
p7400
g1996
ssg200
(dp7401
S'MIN'
p7402
g1996
ssg203
(dp7403
S'MIN'
p7404
g1996
ssg206
(dp7405
S'MIN'
p7406
g1996
ssg209
(dp7407
S'MIN'
p7408
g1996
ssg212
(dp7409
S'MIN'
p7410
g1996
ssg215
(dp7411
S'MIN'
p7412
g1996
ssg218
(dp7413
S'MIN'
p7414
g1996
ssg221
(dp7415
S'DET'
p7416
S'3.5'
p7417
ssg225
(dp7418
S'MIN'
p7419
g1996
ssg228
(dp7420
S'MIN'
p7421
g1996
ssg235
(dp7422
S'MIN'
p7423
g1996
ssg238
(dp7424
S'MIN'
p7425
g1996
ssg241
(dp7426
S'MIN'
p7427
g1996
ssg244
(dp7428
S'MIN'
p7429
g1996
ssg141
(dp7430
S'MIN'
p7431
g1996
ssg250
(dp7432
S'MIN'
p7433
g1996
ssg253
(dp7434
S'MIN'
p7435
g1996
ssg256
(dp7436
S'MIN'
p7437
g1996
ssg259
(dp7438
S'MIN'
p7439
g1996
ssg262
(dp7440
S'MIN'
p7441
g1996
ssg265
(dp7442
S'MIN'
p7443
g1996
ssg268
(dp7444
S'MIN'
p7445
g1996
ssg271
(dp7446
S'MIN'
p7447
g1996
ssg605
(dp7448
S'DET'
p7449
S'-9.5'
p7450
ssg274
(dp7451
S'MIN'
p7452
g1996
ssg277
(dp7453
S'MIN'
p7454
g1996
ssg280
(dp7455
S'MIN'
p7456
g1996
ssg283
(dp7457
S'MIN'
p7458
g1996
ssg286
(dp7459
S'MIN'
p7460
g1996
ssg292
(dp7461
S'MIN'
p7462
g1996
ssg295
(dp7463
S'MIN'
p7464
g1996
ssg298
(dp7465
S'ORL'
p7466
S'-4.5'
p7467
ssg302
(dp7468
S'MIN'
p7469
g1996
ssg305
(dp7470
S'MIN'
p7471
g1996
ssg308
(dp7472
S'MIN'
p7473
g1996
ssg311
(dp7474
S'MIN'
p7475
g1996
ssg314
(dp7476
S'DAL'
p7477
S'4.5'
p7478
ssg318
(dp7479
S'MIN'
p7480
g1996
ssg321
(dp7481
S'DET'
p7482
S'1.5'
p7483
ssg936
(dp7484
S'GS'
p7485
S'12.5'
p7486
ssg325
(dp7487
S'MIN'
p7488
g1996
ssg328
(dp7489
S'MIN'
p7490
g1996
ssg331
(dp7491
S'MIN'
p7492
g1996
ssg334
(dp7493
S'MIN'
p7494
g1996
ssg337
(dp7495
S'MIN'
p7496
g1996
ssg340
(dp7497
S'MIN'
p7498
g1996
ssg343
(dp7499
S'MIN'
p7500
g1996
ssg346
(dp7501
S'MIN'
p7502
g1996
ssg349
(dp7503
S'MIN'
p7504
g1996
ssg352
(dp7505
S'MIN'
p7506
g1996
sssg6947
(dp7507
g3
(dp7508
g6944
S'-14.5'
p7509
ssg7
(dp7510
S'ORL'
p7511
S'-1.5'
p7512
ssg11
(dp7513
S'MIA'
p7514
S'-6'
p7515
ssg15
(dp7516
S'MIA'
p7517
S'-6'
p7518
ssg18
(dp7519
S'MIA'
p7520
S'-6'
p7521
ssg21
(dp7522
S'MIA'
p7523
S'-6'
p7524
ssg24
(dp7525
S'MIA'
p7526
S'-6'
p7527
ssg703
(dp7528
S'NO'
p7529
S'-6'
p7530
ssg27
(dp7531
S'MIA'
p7532
S'-6'
p7533
ssg30
(dp7534
S'WAS'
p7535
S'-8'
p7536
ssg34
(dp7537
S'GS'
p7538
S'9.5'
p7539
ssg38
(dp7540
S'MIA'
p7541
S'-6'
p7542
ssg41
(dp7543
S'MIA'
p7544
S'-6'
p7545
ssg44
(dp7546
S'MIA'
p7547
S'-6'
p7548
ssg51
(dp7549
S'MIA'
p7550
S'-6'
p7551
ssg54
(dp7552
S'LAL'
p7553
S'-4'
p7554
ssg58
(dp7555
S'MIA'
p7556
S'-6'
p7557
ssg61
(dp7558
S'MIA'
p7559
S'-6'
p7560
ssg64
(dp7561
S'MIA'
p7562
S'-6'
p7563
ssg67
(dp7564
S'MIA'
p7565
S'-6'
p7566
ssg70
(dp7567
S'MIA'
p7568
S'-6'
p7569
ssg73
(dp7570
S'MIA'
p7571
S'-6'
p7572
ssg76
(dp7573
S'ATL'
p7574
S'-3.5'
p7575
ssg83
(dp7576
S'MIA'
p7577
S'-6'
p7578
ssg86
(dp7579
S'MIA'
p7580
S'-6'
p7581
ssg89
(dp7582
S'MIA'
p7583
S'-6'
p7584
ssg92
(dp7585
S'OKC'
p7586
S'-5.5'
p7587
ssg96
(dp7588
S'MIA'
p7589
S'-6'
p7590
ssg99
(dp7591
S'MIA'
p7592
S'-6'
p7593
ssg102
(dp7594
S'MIA'
p7595
S'-6'
p7596
ssg442
(dp7597
S'DEN'
p7598
S'1.5'
p7599
ssg105
(dp7600
S'MIA'
p7601
S'-6'
p7602
ssg108
(dp7603
S'MIA'
p7604
S'-6'
p7605
ssg115
(dp7606
S'MIA'
p7607
S'-6'
p7608
ssg118
(dp7609
S'UTA'
p7610
S'-7'
p7611
ssg122
(dp7612
S'PHO'
p7613
S'-2.5'
p7614
ssg125
(dp7615
S'MIA'
p7616
S'-6'
p7617
ssg128
(dp7618
S'MIA'
p7619
S'-6'
p7620
ssg131
(dp7621
S'MIA'
p7622
S'-6'
p7623
ssg141
(dp7624
S'MIA'
p7625
S'-6'
p7626
ssg144
(dp7627
S'POR'
p7628
S'-3'
p7629
ssg148
(dp7630
S'MIA'
p7631
S'-6'
p7632
ssg151
(dp7633
S'MIA'
p7634
S'-6'
p7635
ssg154
(dp7636
S'MIA'
p7637
S'-6'
p7638
ssg157
(dp7639
S'MIA'
p7640
S'-6'
p7641
ssg488
(dp7642
S'NO'
p7643
g1996
ssg787
(dp7644
S'SA'
p7645
g14
ssg160
(dp7646
S'MIA'
p7647
S'-6'
p7648
ssg163
(dp7649
S'MIA'
p7650
S'-6'
p7651
ssg166
(dp7652
S'MIA'
p7653
S'-6'
p7654
ssg169
(dp7655
S'MIA'
p7656
S'-6'
p7657
ssg172
(dp7658
S'MIA'
p7659
S'-6'
p7660
ssg175
(dp7661
S'MIA'
p7662
S'-6'
p7663
ssg178
(dp7664
S'UTA'
p7665
S'-6.5'
p7666
ssg809
(dp7667
S'WAS'
p7668
S'-4.5'
p7669
ssg182
(dp7670
S'MIA'
p7671
S'-6'
p7672
ssg185
(dp7673
S'MIA'
p7674
S'-6'
p7675
ssg188
(dp7676
S'MIA'
p7677
S'-6'
p7678
ssg289
(dp7679
S'MIA'
p7680
S'-6'
p7681
ssg1143
(dp7682
S'GS'
p7683
S'10.5'
p7684
ssg194
(dp7685
S'MIA'
p7686
S'-6'
p7687
ssg197
(dp7688
S'MIA'
p7689
S'-6'
p7690
ssg200
(dp7691
S'MIA'
p7692
S'-6'
p7693
ssg203
(dp7694
S'MIA'
p7695
S'-6'
p7696
ssg206
(dp7697
S'MIA'
p7698
S'-6'
p7699
ssg209
(dp7700
S'MIA'
p7701
S'-6'
p7702
ssg212
(dp7703
S'MIA'
p7704
S'-6'
p7705
ssg215
(dp7706
S'MIA'
p7707
S'-6'
p7708
ssg218
(dp7709
S'MIA'
p7710
S'-6'
p7711
ssg552
(dp7712
S'ATL'
p7713
S'-5'
p7714
ssg225
(dp7715
S'MIA'
p7716
S'-6'
p7717
ssg228
(dp7718
S'MIA'
p7719
S'-6'
p7720
ssg231
(dp7721
S'LAL'
p7722
S'-10'
p7723
ssg235
(dp7724
S'MIA'
p7725
S'-6'
p7726
ssg238
(dp7727
S'MIA'
p7728
S'-6'
p7729
ssg241
(dp7730
S'MIA'
p7731
S'-6'
p7732
ssg244
(dp7733
S'MIA'
p7734
S'-6'
p7735
ssg247
(dp7736
S'MIA'
p7737
S'-6'
p7738
ssg250
(dp7739
S'MIA'
p7740
S'-6'
p7741
ssg253
(dp7742
S'MIA'
p7743
S'-6'
p7744
ssg256
(dp7745
S'MIA'
p7746
S'-6'
p7747
ssg259
(dp7748
S'MIA'
p7749
S'-6'
p7750
ssg262
(dp7751
S'MIA'
p7752
S'-6'
p7753
ssg265
(dp7754
S'MIA'
p7755
S'-6'
p7756
ssg268
(dp7757
S'MIA'
p7758
S'-6'
p7759
ssg271
(dp7760
S'MIA'
p7761
S'-6'
p7762
ssg605
(dp7763
S'CHA'
p7764
S'-10'
p7765
ssg274
(dp7766
S'MIA'
p7767
S'-6'
p7768
ssg277
(dp7769
S'MIA'
p7770
S'-6'
p7771
ssg280
(dp7772
S'MIA'
p7773
S'-6'
p7774
ssg283
(dp7775
S'MIA'
p7776
S'-6'
p7777
ssg286
(dp7778
S'MIA'
p7779
S'-6'
p7780
ssg912
(dp7781
S'SAC'
p7782
S'-4'
p7783
ssg292
(dp7784
S'MIA'
p7785
S'-6'
p7786
ssg295
(dp7787
S'MIA'
p7788
S'-6'
p7789
ssg298
(dp7790
S'HOU'
p7791
g14
ssg302
(dp7792
S'MIA'
p7793
S'-6'
p7794
ssg305
(dp7795
S'MIA'
p7796
S'-6'
p7797
ssg308
(dp7798
S'MIA'
p7799
S'-6'
p7800
ssg311
(dp7801
S'MIA'
p7802
S'-6'
p7803
ssg80
(dp7804
S'MIA'
p7805
S'-6'
p7806
ssg318
(dp7807
S'MIA'
p7808
S'-6'
p7809
ssg325
(dp7810
S'MIA'
p7811
S'-6'
p7812
ssg328
(dp7813
S'MIA'
p7814
S'-6'
p7815
ssg331
(dp7816
S'MIA'
p7817
S'-6'
p7818
ssg334
(dp7819
S'MIA'
p7820
S'-6'
p7821
ssg337
(dp7822
S'MIA'
p7823
S'-6'
p7824
ssg340
(dp7825
S'MIA'
p7826
S'-6'
p7827
ssg343
(dp7828
S'MIA'
p7829
S'-6'
p7830
ssg346
(dp7831
S'MIA'
p7832
S'-6'
p7833
ssg349
(dp7834
S'MIA'
p7835
S'-6'
p7836
ssg352
(dp7837
S'MIA'
p7838
S'-6'
p7839
sssg3176
(dp7840
g7
(dp7841
S'POR'
p7842
S'-9'
p7843
ssg11
(dp7844
S'DET'
p7845
S'-6.5'
p7846
ssg15
(dp7847
S'DET'
p7848
S'-6.5'
p7849
ssg18
(dp7850
S'DET'
p7851
S'-6.5'
p7852
ssg21
(dp7853
S'DET'
p7854
S'-6.5'
p7855
ssg24
(dp7856
S'DET'
p7857
S'-6.5'
p7858
ssg703
(dp7859
S'GS'
p7860
S'-7'
p7861
ssg27
(dp7862
S'DET'
p7863
S'-6.5'
p7864
ssg30
(dp7865
S'DEN'
p7866
S'-10'
p7867
ssg34
(dp7868
S'PHO'
p7869
S'-9'
p7870
ssg2319
(dp7871
S'DEN'
p7872
S'-7.5'
p7873
ssg38
(dp7874
S'DET'
p7875
S'-6.5'
p7876
ssg41
(dp7877
S'DET'
p7878
S'-6.5'
p7879
ssg44
(dp7880
S'DET'
p7881
S'-6.5'
p7882
ssg2329
(dp7883
S'DEN'
p7884
S'-7.5'
p7885
ssg51
(dp7886
S'DET'
p7887
S'-6.5'
p7888
ssg395
(dp7889
S'MIN'
p7890
S'-6.5'
p7891
ssg58
(dp7892
S'DET'
p7893
S'-6.5'
p7894
ssg61
(dp7895
S'DET'
p7896
S'-6.5'
p7897
ssg64
(dp7898
S'DET'
p7899
S'-6.5'
p7900
ssg67
(dp7901
S'DET'
p7902
S'-6.5'
p7903
ssg70
(dp7904
S'DET'
p7905
S'-6.5'
p7906
ssg73
(dp7907
S'DET'
p7908
S'-6.5'
p7909
ssg80
(dp7910
S'DET'
p7911
S'-6.5'
p7912
ssg4054
(dp7913
S'HOU'
p7914
S'7.5'
p7915
ssg83
(dp7916
S'DET'
p7917
S'-6.5'
p7918
ssg86
(dp7919
S'DET'
p7920
S'-6.5'
p7921
ssg89
(dp7922
S'DET'
p7923
S'-6.5'
p7924
ssg1720
(dp7925
S'POR'
p7926
g720
ssg96
(dp7927
S'DET'
p7928
S'-6.5'
p7929
ssg99
(dp7930
S'DET'
p7931
S'-6.5'
p7932
ssg102
(dp7933
S'DET'
p7934
S'-6.5'
p7935
ssg442
(dp7936
S'PHI'
p7937
S'-19.5'
p7938
ssg105
(dp7939
S'DET'
p7940
S'-6.5'
p7941
ssg108
(dp7942
S'DET'
p7943
S'-6.5'
p7944
ssg115
(dp7945
S'DET'
p7946
S'-6.5'
p7947
ssg122
(dp7948
S'BK'
p7949
S'-8.5'
p7950
ssg125
(dp7951
S'DET'
p7952
S'-6.5'
p7953
ssg128
(dp7954
S'DET'
p7955
S'-6.5'
p7956
ssg131
(dp7957
S'DET'
p7958
S'-6.5'
p7959
ssg134
(dp7960
S'GS'
p7961
S'7.5'
p7962
ssg138
(dp7963
S'POR'
p7964
g14
ssg2387
(dp7965
S'DEN'
p7966
S'-7.5'
p7967
ssg6410
(dp7968
S'OKC'
p7969
S'-5'
p7970
ssg141
(dp7971
S'DET'
p7972
S'-6.5'
p7973
ssg2393
(dp7974
S'DEN'
p7975
S'-7.5'
p7976
ssg148
(dp7977
S'DET'
p7978
S'-6.5'
p7979
ssg151
(dp7980
S'DET'
p7981
S'-6.5'
p7982
ssg154
(dp7983
S'DET'
p7984
S'-6.5'
p7985
ssg157
(dp7986
S'DET'
p7987
S'-6.5'
p7988
ssg160
(dp7989
S'DET'
p7990
S'-6.5'
p7991
ssg163
(dp7992
S'DET'
p7993
S'-6.5'
p7994
ssg166
(dp7995
S'DET'
p7996
S'-6.5'
p7997
ssg169
(dp7998
S'DET'
p7999
S'-6.5'
p8000
ssg172
(dp8001
S'DET'
p8002
S'-6.5'
p8003
ssg175
(dp8004
S'DET'
p8005
S'-6.5'
p8006
ssg182
(dp8007
S'DET'
p8008
S'-6.5'
p8009
ssg185
(dp8010
S'DET'
p8011
S'-6.5'
p8012
ssg188
(dp8013
S'DET'
p8014
S'-6.5'
p8015
ssg289
(dp8016
S'DET'
p8017
S'-6.5'
p8018
ssg2432
(dp8019
S'DEN'
p8020
S'-7.5'
p8021
ssg194
(dp8022
S'DET'
p8023
S'-6.5'
p8024
ssg197
(dp8025
S'DET'
p8026
S'-6.5'
p8027
ssg200
(dp8028
S'DET'
p8029
S'-6.5'
p8030
ssg203
(dp8031
S'DET'
p8032
S'-6.5'
p8033
ssg206
(dp8034
S'DET'
p8035
S'-6.5'
p8036
ssg1493
(dp8037
S'CHI'
p8038
S'-2'
p8039
ssg836
(dp8040
S'TOR'
p8041
S'-3.5'
p8042
ssg209
(dp8043
S'DET'
p8044
S'-6.5'
p8045
ssg212
(dp8046
S'DET'
p8047
S'-6.5'
p8048
ssg215
(dp8049
S'DET'
p8050
S'-6.5'
p8051
ssg2459
(dp8052
S'DEN'
p8053
S'-7.5'
p8054
ssg218
(dp8055
S'DET'
p8056
S'-6.5'
p8057
ssg221
(dp8058
S'IND'
p8059
g720
ssg225
(dp8060
S'DET'
p8061
S'-6.5'
p8062
ssg228
(dp8063
S'DET'
p8064
S'-6.5'
p8065
ssg235
(dp8066
S'DET'
p8067
S'-6.5'
p8068
ssg238
(dp8069
S'DET'
p8070
S'-6.5'
p8071
ssg241
(dp8072
S'DET'
p8073
S'-6.5'
p8074
ssg2478
(dp8075
S'DEN'
p8076
S'-7.5'
p8077
ssg2579
(dp8078
S'DEN'
p8079
S'-7.5'
p8080
ssg2485
(dp8081
S'DEN'
p8082
S'-7.5'
p8083
ssg2489
(dp8084
S'DEN'
p8085
S'-7.5'
p8086
ssg244
(dp8087
S'DET'
p8088
S'-6.5'
p8089
ssg340
(dp8090
S'DET'
p8091
S'-6.5'
p8092
ssg247
(dp8093
S'DET'
p8094
S'-6.5'
p8095
ssg250
(dp8096
S'DET'
p8097
S'-6.5'
p8098
ssg253
(dp8099
S'DET'
p8100
S'-6.5'
p8101
ssg256
(dp8102
S'DET'
p8103
S'-6.5'
p8104
ssg259
(dp8105
S'DET'
p8106
S'-6.5'
p8107
ssg262
(dp8108
S'DET'
p8109
S'-6.5'
p8110
ssS'FEB 05, 2015'
p8111
(dp8112
S'SA'
p8113
S'-3'
p8114
ssg265
(dp8115
S'DET'
p8116
S'-6.5'
p8117
ssg268
(dp8118
S'DET'
p8119
S'-6.5'
p8120
ssg271
(dp8121
S'DET'
p8122
S'-6.5'
p8123
ssg605
(dp8124
S'WAS'
p8125
S'-2.5'
p8126
ssg274
(dp8127
S'DET'
p8128
S'-6.5'
p8129
ssg277
(dp8130
S'DET'
p8131
S'-6.5'
p8132
ssg280
(dp8133
S'DET'
p8134
S'-6.5'
p8135
ssg283
(dp8136
S'DET'
p8137
S'-6.5'
p8138
ssg286
(dp8139
S'DET'
p8140
S'-6.5'
p8141
ssg2438
(dp8142
S'DEN'
p8143
S'-7.5'
p8144
ssg292
(dp8145
S'DET'
p8146
S'-6.5'
p8147
ssg295
(dp8148
S'DET'
p8149
S'-6.5'
p8150
ssg298
(dp8151
S'POR'
p8152
g1996
ssg302
(dp8153
S'DET'
p8154
S'-6.5'
p8155
ssg305
(dp8156
S'DET'
p8157
S'-6.5'
p8158
ssg308
(dp8159
S'DET'
p8160
S'-6.5'
p8161
ssg311
(dp8162
S'DET'
p8163
S'-6.5'
p8164
ssg314
(dp8165
S'SAC'
p8166
S'-11'
p8167
ssg318
(dp8168
S'DET'
p8169
S'-6.5'
p8170
ssg325
(dp8171
S'DET'
p8172
S'-6.5'
p8173
ssg328
(dp8174
S'DET'
p8175
S'-6.5'
p8176
ssg331
(dp8177
S'DET'
p8178
S'-6.5'
p8179
ssg2561
(dp8180
S'DEN'
p8181
S'-7.5'
p8182
ssg2567
(dp8183
S'DEN'
p8184
S'-7.5'
p8185
ssg334
(dp8186
S'DET'
p8187
S'-6.5'
p8188
ssg337
(dp8189
S'DET'
p8190
S'-6.5'
p8191
ssg2575
(dp8192
S'DEN'
p8193
S'-7.5'
p8194
ssg343
(dp8195
S'DET'
p8196
S'-6.5'
p8197
ssg346
(dp8198
S'DET'
p8199
S'-6.5'
p8200
ssg349
(dp8201
S'DET'
p8202
S'-6.5'
p8203
ssg352
(dp8204
S'DET'
p8205
S'-6.5'
p8206
sssg3751
(dp8207
g7
(dp8208
S'NY'
p8209
S'3.5'
p8210
ssg11
(dp8211
S'HOU'
p8212
g14
ssg15
(dp8213
S'HOU'
p8214
g14
ssg18
(dp8215
S'HOU'
p8216
g14
ssg21
(dp8217
S'HOU'
p8218
g14
ssg24
(dp8219
S'HOU'
p8220
g14
ssg703
(dp8221
S'PHI'
p8222
S'-9.5'
p8223
ssg27
(dp8224
S'HOU'
p8225
g14
ssg38
(dp8226
S'HOU'
p8227
g14
ssg41
(dp8228
S'HOU'
p8229
g14
ssg44
(dp8230
S'HOU'
p8231
g14
ssg47
(dp8232
S'DET'
p8233
S'3.5'
p8234
ssg51
(dp8235
S'HOU'
p8236
g14
ssg58
(dp8237
S'HOU'
p8238
g14
ssg61
(dp8239
S'HOU'
p8240
g14
ssg64
(dp8241
S'HOU'
p8242
g14
ssg67
(dp8243
S'HOU'
p8244
g14
ssg70
(dp8245
S'HOU'
p8246
g14
ssg73
(dp8247
S'HOU'
p8248
g14
ssg80
(dp8249
S'HOU'
p8250
g14
ssg83
(dp8251
S'HOU'
p8252
g14
ssg86
(dp8253
S'HOU'
p8254
g14
ssg89
(dp8255
S'HOU'
p8256
g14
ssg92
(dp8257
S'NO'
p8258
S'6.5'
p8259
ssg1720
(dp8260
S'BK'
p8261
S'-1'
p8262
ssg96
(dp8263
S'HOU'
p8264
g14
ssg99
(dp8265
S'HOU'
p8266
g14
ssg102
(dp8267
S'HOU'
p8268
g14
ssg105
(dp8269
S'HOU'
p8270
g14
ssg108
(dp8271
S'HOU'
p8272
g14
ssg115
(dp8273
S'HOU'
p8274
g14
ssg118
(dp8275
S'NY'
p8276
S'-4.5'
p8277
ssg125
(dp8278
S'HOU'
p8279
g14
ssg128
(dp8280
S'HOU'
p8281
g14
ssg131
(dp8282
S'HOU'
p8283
g14
ssg134
(dp8284
S'PHO'
p8285
S'9.5'
p8286
ssg138
(dp8287
S'HOU'
p8288
S'10.5'
p8289
ssg141
(dp8290
S'HOU'
p8291
g14
ssg144
(dp8292
S'DET'
p8293
S'2.5'
p8294
ssg148
(dp8295
S'HOU'
p8296
g14
ssg151
(dp8297
S'HOU'
p8298
g14
ssg154
(dp8299
S'HOU'
p8300
g14
ssg157
(dp8301
S'HOU'
p8302
g14
ssg787
(dp8303
S'BOS'
p8304
S'2.5'
p8305
ssg160
(dp8306
S'HOU'
p8307
g14
ssg163
(dp8308
S'HOU'
p8309
g14
ssg166
(dp8310
S'HOU'
p8311
g14
ssg169
(dp8312
S'HOU'
p8313
g14
ssg172
(dp8314
S'HOU'
p8315
g14
ssg175
(dp8316
S'HOU'
p8317
g14
ssg809
(dp8318
S'CLE'
p8319
S'-1.5'
p8320
ssg182
(dp8321
S'HOU'
p8322
g14
ssg185
(dp8323
S'HOU'
p8324
g14
ssg188
(dp8325
S'HOU'
p8326
g14
ssg289
(dp8327
S'HOU'
p8328
g14
ssg194
(dp8329
S'HOU'
p8330
g14
ssg197
(dp8331
S'HOU'
p8332
g14
ssg200
(dp8333
S'HOU'
p8334
g14
ssg203
(dp8335
S'HOU'
p8336
g14
ssg206
(dp8337
S'HOU'
p8338
g14
ssg1493
(dp8339
S'POR'
p8340
g10
ssg209
(dp8341
S'HOU'
p8342
g14
ssg212
(dp8343
S'HOU'
p8344
g14
ssg215
(dp8345
S'HOU'
p8346
g14
ssg218
(dp8347
S'HOU'
p8348
g14
ssg552
(dp8349
S'CLE'
p8350
S'-3'
p8351
ssg225
(dp8352
S'HOU'
p8353
g14
ssg228
(dp8354
S'HOU'
p8355
g14
ssg231
(dp8356
S'DAL'
p8357
g10
ssg235
(dp8358
S'HOU'
p8359
g14
ssg238
(dp8360
S'HOU'
p8361
g14
ssg241
(dp8362
S'HOU'
p8363
g14
ssg571
(dp8364
S'MIN'
p8365
S'-4.5'
p8366
ssg244
(dp8367
S'HOU'
p8368
g14
ssg247
(dp8369
S'HOU'
p8370
g14
ssg870
(dp8371
S'GS'
p8372
S'10'
p8373
ssg250
(dp8374
S'HOU'
p8375
g14
ssg253
(dp8376
S'HOU'
p8377
g14
ssg256
(dp8378
S'HOU'
p8379
g14
ssg259
(dp8380
S'HOU'
p8381
g14
ssg262
(dp8382
S'HOU'
p8383
g14
ssg265
(dp8384
S'HOU'
p8385
g14
ssg268
(dp8386
S'HOU'
p8387
g14
ssg271
(dp8388
S'HOU'
p8389
g14
ssg274
(dp8390
S'HOU'
p8391
g14
ssg4246
(dp8392
S'HOU'
p8393
g1996
ssg277
(dp8394
S'HOU'
p8395
g14
ssg280
(dp8396
S'HOU'
p8397
g14
ssg283
(dp8398
S'HOU'
p8399
g14
ssg286
(dp8400
S'HOU'
p8401
g14
ssg912
(dp8402
S'MEM'
p8403
g790
ssg292
(dp8404
S'HOU'
p8405
g14
ssg295
(dp8406
S'HOU'
p8407
g14
ssg298
(dp8408
S'SA'
p8409
S'10.5'
p8410
ssg302
(dp8411
S'HOU'
p8412
g14
ssg305
(dp8413
S'HOU'
p8414
g14
ssg308
(dp8415
S'HOU'
p8416
g14
ssg311
(dp8417
S'HOU'
p8418
g14
ssg314
(dp8419
S'LAC'
p8420
S'11'
p8421
ssg318
(dp8422
S'HOU'
p8423
g14
ssg325
(dp8424
S'HOU'
p8425
g14
ssg328
(dp8426
S'HOU'
p8427
g14
ssg331
(dp8428
S'HOU'
p8429
g14
ssg334
(dp8430
S'HOU'
p8431
g14
ssg337
(dp8432
S'HOU'
p8433
g14
ssg340
(dp8434
S'HOU'
p8435
g14
ssg343
(dp8436
S'HOU'
p8437
g14
ssg346
(dp8438
S'HOU'
p8439
g14
ssg349
(dp8440
S'HOU'
p8441
g14
ssg352
(dp8442
S'HOU'
p8443
g14
sssg2592
(dp8444
g3
(dp8445
S'NO'
p8446
S'-15.5'
p8447
ssg11
(dp8448
S'DEN'
p8449
S'-N/A'
p8450
ssg15
(dp8451
S'DEN'
p8452
S'-N/A'
p8453
ssg18
(dp8454
S'DEN'
p8455
S'-N/A'
p8456
ssg21
(dp8457
S'DEN'
p8458
S'-N/A'
p8459
ssg24
(dp8460
S'DEN'
p8461
S'-N/A'
p8462
ssg27
(dp8463
S'DEN'
p8464
S'-N/A'
p8465
ssg34
(dp8466
S'HOU'
p8467
S'-4.5'
p8468
ssg38
(dp8469
S'DEN'
p8470
S'-N/A'
p8471
ssg41
(dp8472
S'DEN'
p8473
S'-N/A'
p8474
ssg44
(dp8475
S'DEN'
p8476
S'-N/A'
p8477
ssg51
(dp8478
S'DEN'
p8479
S'-N/A'
p8480
ssg54
(dp8481
S'WAS'
p8482
S'-7.5'
p8483
ssg58
(dp8484
S'DEN'
p8485
S'-N/A'
p8486
ssg402
(dp8487
S'BOS'
p8488
S'7.5'
p8489
ssg61
(dp8490
S'DEN'
p8491
S'-N/A'
p8492
ssg64
(dp8493
S'DEN'
p8494
S'-N/A'
p8495
ssg67
(dp8496
S'DEN'
p8497
S'-N/A'
p8498
ssg70
(dp8499
S'DEN'
p8500
S'-N/A'
p8501
ssg73
(dp8502
S'DEN'
p8503
S'-N/A'
p8504
ssg83
(dp8505
S'DEN'
p8506
S'-N/A'
p8507
ssg86
(dp8508
S'DEN'
p8509
S'-N/A'
p8510
ssg89
(dp8511
S'DEN'
p8512
S'-N/A'
p8513
ssg92
(dp8514
S'MEM'
p8515
S'5.5'
p8516
ssg96
(dp8517
S'DEN'
p8518
S'-N/A'
p8519
ssg99
(dp8520
S'DEN'
p8521
S'-N/A'
p8522
ssg102
(dp8523
S'DEN'
p8524
S'-N/A'
p8525
ssg105
(dp8526
S'DEN'
p8527
S'-N/A'
p8528
ssg108
(dp8529
S'DEN'
p8530
S'-N/A'
p8531
ssg115
(dp8532
S'DEN'
p8533
S'-N/A'
p8534
ssg122
(dp8535
S'ORL'
p8536
S'-10.5'
p8537
ssg125
(dp8538
S'DEN'
p8539
S'-N/A'
p8540
ssg128
(dp8541
S'DEN'
p8542
S'-N/A'
p8543
ssg131
(dp8544
S'DEN'
p8545
S'-N/A'
p8546
ssg134
(dp8547
S'TOR'
p8548
S'-8'
p8549
ssg138
(dp8550
S'DAL'
p8551
S'-2.5'
p8552
ssg6410
(dp8553
S'LAC'
p8554
g95
ssg141
(dp8555
S'DEN'
p8556
S'-N/A'
p8557
ssg144
(dp8558
S'HOU'
p8559
S'-4.5'
p8560
ssg148
(dp8561
S'DEN'
p8562
S'-N/A'
p8563
ssg151
(dp8564
S'DEN'
p8565
S'-N/A'
p8566
ssg154
(dp8567
S'DEN'
p8568
S'-N/A'
p8569
ssg157
(dp8570
S'DEN'
p8571
S'-N/A'
p8572
ssg787
(dp8573
S'MIA'
p8574
S'-4'
p8575
ssg160
(dp8576
S'DEN'
p8577
S'-N/A'
p8578
ssg163
(dp8579
S'DEN'
p8580
S'-N/A'
p8581
ssg166
(dp8582
S'DEN'
p8583
S'-N/A'
p8584
ssg169
(dp8585
S'DEN'
p8586
S'-N/A'
p8587
ssg172
(dp8588
S'DEN'
p8589
S'-N/A'
p8590
ssg175
(dp8591
S'DEN'
p8592
S'-N/A'
p8593
ssg178
(dp8594
S'NO'
p8595
g790
ssg809
(dp8596
S'POR'
p8597
g1996
ssg182
(dp8598
S'DEN'
p8599
S'-N/A'
p8600
ssg185
(dp8601
S'DEN'
p8602
S'-N/A'
p8603
ssg188
(dp8604
S'DEN'
p8605
S'-N/A'
p8606
ssg191
(dp8607
S'DEN'
p8608
S'-12.5'
p8609
ssg194
(dp8610
S'DEN'
p8611
S'-N/A'
p8612
ssg197
(dp8613
S'DEN'
p8614
S'-N/A'
p8615
ssg200
(dp8616
S'DEN'
p8617
S'-N/A'
p8618
ssg203
(dp8619
S'DEN'
p8620
S'-N/A'
p8621
ssg206
(dp8622
S'DEN'
p8623
S'-N/A'
p8624
ssg1493
(dp8625
S'LAL'
p8626
S'-4'
p8627
ssg209
(dp8628
S'DEN'
p8629
S'-N/A'
p8630
ssg212
(dp8631
S'DEN'
p8632
S'-N/A'
p8633
ssg215
(dp8634
S'DEN'
p8635
S'-N/A'
p8636
ssg218
(dp8637
S'DEN'
p8638
S'-N/A'
p8639
ssg225
(dp8640
S'DEN'
p8641
S'-N/A'
p8642
ssg228
(dp8643
S'DEN'
p8644
S'-N/A'
p8645
ssg231
(dp8646
S'MIL'
p8647
g720
ssg235
(dp8648
S'DEN'
p8649
S'-N/A'
p8650
ssg238
(dp8651
S'DEN'
p8652
S'-N/A'
p8653
ssg241
(dp8654
S'DEN'
p8655
S'-N/A'
p8656
ssg244
(dp8657
S'DEN'
p8658
S'-N/A'
p8659
ssg247
(dp8660
S'DEN'
p8661
S'-N/A'
p8662
ssg250
(dp8663
S'DEN'
p8664
S'-N/A'
p8665
ssg253
(dp8666
S'DEN'
p8667
S'-N/A'
p8668
ssg256
(dp8669
S'DEN'
p8670
S'-N/A'
p8671
ssg259
(dp8672
S'DEN'
p8673
S'-N/A'
p8674
ssg262
(dp8675
S'DEN'
p8676
S'-N/A'
p8677
ssg265
(dp8678
S'DEN'
p8679
S'-N/A'
p8680
ssg268
(dp8681
S'DEN'
p8682
S'-N/A'
p8683
ssg271
(dp8684
S'DEN'
p8685
S'-N/A'
p8686
ssg605
(dp8687
S'MIN'
p8688
S'-8.5'
p8689
ssg274
(dp8690
S'DEN'
p8691
S'-N/A'
p8692
ssg4246
(dp8693
S'CLE'
p8694
S'-7'
p8695
ssg277
(dp8696
S'DEN'
p8697
S'-N/A'
p8698
ssg280
(dp8699
S'DEN'
p8700
S'-N/A'
p8701
ssg283
(dp8702
S'DEN'
p8703
S'-N/A'
p8704
ssg286
(dp8705
S'DEN'
p8706
S'-N/A'
p8707
ssg289
(dp8708
S'DEN'
p8709
S'-N/A'
p8710
ssg292
(dp8711
S'DEN'
p8712
S'-N/A'
p8713
ssg295
(dp8714
S'DEN'
p8715
S'-N/A'
p8716
ssg298
(dp8717
S'PHI'
p8718
S'-15'
p8719
ssg302
(dp8720
S'DEN'
p8721
S'-N/A'
p8722
ssg305
(dp8723
S'DEN'
p8724
S'-N/A'
p8725
ssg308
(dp8726
S'DEN'
p8727
S'-N/A'
p8728
ssg311
(dp8729
S'DEN'
p8730
S'-N/A'
p8731
ssg80
(dp8732
S'DEN'
p8733
S'-N/A'
p8734
ssg318
(dp8735
S'DEN'
p8736
S'-N/A'
p8737
ssg321
(dp8738
S'MIL'
p8739
S'-15'
p8740
ssg325
(dp8741
S'DEN'
p8742
S'-N/A'
p8743
ssg328
(dp8744
S'DEN'
p8745
S'-N/A'
p8746
ssg331
(dp8747
S'DEN'
p8748
S'-N/A'
p8749
ssg334
(dp8750
S'DEN'
p8751
S'-N/A'
p8752
ssg337
(dp8753
S'DEN'
p8754
S'-N/A'
p8755
ssg340
(dp8756
S'DEN'
p8757
S'-N/A'
p8758
ssg343
(dp8759
S'DEN'
p8760
S'-N/A'
p8761
ssg346
(dp8762
S'DEN'
p8763
S'-N/A'
p8764
ssg349
(dp8765
S'DEN'
p8766
S'-N/A'
p8767
ssg352
(dp8768
S'DEN'
p8769
S'-N/A'
p8770
sssg688
(dp8771
g3
(dp8772
S'MIA'
p8773
S'5.5'
p8774
ssg7
(dp8775
g2840
S'-1.5'
p8776
ssg11
(dp8777
S'BK'
p8778
S'-8.5'
p8779
ssg15
(dp8780
S'BK'
p8781
S'-8.5'
p8782
ssg18
(dp8783
S'BK'
p8784
S'-8.5'
p8785
ssg21
(dp8786
S'BK'
p8787
S'-8.5'
p8788
ssg24
(dp8789
S'BK'
p8790
S'-8.5'
p8791
ssg27
(dp8792
S'BK'
p8793
S'-8.5'
p8794
ssg38
(dp8795
S'BK'
p8796
S'-8.5'
p8797
ssg41
(dp8798
S'BK'
p8799
S'-8.5'
p8800
ssg44
(dp8801
S'BK'
p8802
S'-8.5'
p8803
ssg47
(dp8804
S'LAL'
p8805
S'-0'
p8806
ssg51
(dp8807
S'BK'
p8808
S'-8.5'
p8809
ssg54
(dp8810
S'MIL'
p8811
S'1.5'
p8812
ssg58
(dp8813
S'BK'
p8814
S'-8.5'
p8815
ssg402
(dp8816
S'MIA'
p8817
S'8.5'
p8818
ssg61
(dp8819
S'BK'
p8820
S'-8.5'
p8821
ssg64
(dp8822
S'BK'
p8823
S'-8.5'
p8824
ssg67
(dp8825
S'BK'
p8826
S'-8.5'
p8827
ssg70
(dp8828
S'BK'
p8829
S'-8.5'
p8830
ssg73
(dp8831
S'BK'
p8832
S'-8.5'
p8833
ssg83
(dp8834
S'BK'
p8835
S'-8.5'
p8836
ssg86
(dp8837
S'BK'
p8838
S'-8.5'
p8839
ssg89
(dp8840
S'BK'
p8841
S'-8.5'
p8842
ssg92
(dp8843
S'CHA'
p8844
S'-4.5'
p8845
ssg1720
(dp8846
S'DAL'
p8847
S'2.5'
p8848
ssg96
(dp8849
S'BK'
p8850
S'-8.5'
p8851
ssg99
(dp8852
S'BK'
p8853
S'-8.5'
p8854
ssg102
(dp8855
S'BK'
p8856
S'-8.5'
p8857
ssg105
(dp8858
S'BK'
p8859
S'-8.5'
p8860
ssg108
(dp8861
S'BK'
p8862
S'-8.5'
p8863
ssg115
(dp8864
S'BK'
p8865
S'-8.5'
p8866
ssg125
(dp8867
S'BK'
p8868
S'-8.5'
p8869
ssg128
(dp8870
S'BK'
p8871
S'-8.5'
p8872
ssg131
(dp8873
S'BK'
p8874
S'-8.5'
p8875
ssg134
(dp8876
S'BOS'
p8877
g720
ssg138
(dp8878
S'BOS'
p8879
g790
ssg6410
(dp8880
S'WAS'
p8881
S'3.5'
p8882
ssg141
(dp8883
S'BK'
p8884
S'-8.5'
p8885
ssg144
(dp8886
S'BOS'
p8887
S'-12'
p8888
ssg148
(dp8889
S'BK'
p8890
S'-8.5'
p8891
ssg151
(dp8892
S'BK'
p8893
S'-8.5'
p8894
ssg154
(dp8895
S'BK'
p8896
S'-8.5'
p8897
ssg157
(dp8898
S'BK'
p8899
S'-8.5'
p8900
ssg787
(dp8901
S'POR'
p8902
S'-2.5'
p8903
ssg160
(dp8904
S'BK'
p8905
S'-8.5'
p8906
ssg163
(dp8907
S'BK'
p8908
S'-8.5'
p8909
ssg166
(dp8910
S'BK'
p8911
S'-8.5'
p8912
ssg169
(dp8913
S'BK'
p8914
S'-8.5'
p8915
ssg2699
(dp8916
S'NO'
p8917
S'-5'
p8918
ssg172
(dp8919
S'BK'
p8920
S'-8.5'
p8921
ssg175
(dp8922
S'BK'
p8923
S'-8.5'
p8924
ssg178
(dp8925
S'DET'
p8926
S'-4.5'
p8927
ssg182
(dp8928
S'BK'
p8929
S'-8.5'
p8930
ssg185
(dp8931
S'BK'
p8932
S'-8.5'
p8933
ssg188
(dp8934
S'BK'
p8935
S'-8.5'
p8936
ssg289
(dp8937
S'BK'
p8938
S'-8.5'
p8939
ssg194
(dp8940
S'BK'
p8941
S'-8.5'
p8942
ssg197
(dp8943
S'BK'
p8944
S'-8.5'
p8945
ssg200
(dp8946
S'BK'
p8947
S'-8.5'
p8948
ssg203
(dp8949
S'BK'
p8950
S'-8.5'
p8951
ssg206
(dp8952
S'BK'
p8953
S'-8.5'
p8954
ssg1493
(dp8955
S'PHI'
p8956
S'-11'
p8957
ssg209
(dp8958
S'BK'
p8959
S'-8.5'
p8960
ssg212
(dp8961
S'BK'
p8962
S'-8.5'
p8963
ssg215
(dp8964
S'BK'
p8965
S'-8.5'
p8966
ssg218
(dp8967
S'BK'
p8968
S'-8.5'
p8969
ssg221
(dp8970
S'LAC'
p8971
S'-2'
p8972
ssg225
(dp8973
S'BK'
p8974
S'-8.5'
p8975
ssg228
(dp8976
S'BK'
p8977
S'-8.5'
p8978
ssg235
(dp8979
S'BK'
p8980
S'-8.5'
p8981
ssg238
(dp8982
S'BK'
p8983
S'-8.5'
p8984
ssg241
(dp8985
S'BK'
p8986
S'-8.5'
p8987
ssg244
(dp8988
S'BK'
p8989
S'-8.5'
p8990
ssg247
(dp8991
S'BK'
p8992
S'-8.5'
p8993
ssg250
(dp8994
S'BK'
p8995
S'-8.5'
p8996
ssg253
(dp8997
S'BK'
p8998
S'-8.5'
p8999
ssg256
(dp9000
S'BK'
p9001
S'-8.5'
p9002
ssg259
(dp9003
S'BK'
p9004
S'-8.5'
p9005
ssg262
(dp9006
S'BK'
p9007
S'-8.5'
p9008
ssg265
(dp9009
S'BK'
p9010
S'-8.5'
p9011
ssg268
(dp9012
S'BK'
p9013
S'-8.5'
p9014
ssg271
(dp9015
S'BK'
p9016
S'-8.5'
p9017
ssg605
(dp9018
S'TOR'
p9019
g1601
ssg274
(dp9020
S'BK'
p9021
S'-8.5'
p9022
ssg277
(dp9023
S'BK'
p9024
S'-8.5'
p9025
ssg280
(dp9026
S'BK'
p9027
S'-8.5'
p9028
ssg283
(dp9029
S'BK'
p9030
S'-8.5'
p9031
ssg286
(dp9032
S'BK'
p9033
S'-8.5'
p9034
ssg912
(dp9035
S'DET'
p9036
S'4.5'
p9037
ssg292
(dp9038
S'BK'
p9039
S'-8.5'
p9040
ssg295
(dp9041
S'BK'
p9042
S'-8.5'
p9043
ssg298
(dp9044
S'NY'
p9045
S'-13.5'
p9046
ssg302
(dp9047
S'BK'
p9048
S'-8.5'
p9049
ssg305
(dp9050
S'BK'
p9051
S'-8.5'
p9052
ssg308
(dp9053
S'BK'
p9054
S'-8.5'
p9055
ssg311
(dp9056
S'BK'
p9057
S'-8.5'
p9058
ssg80
(dp9059
S'BK'
p9060
S'-8.5'
p9061
ssg318
(dp9062
S'BK'
p9063
S'-8.5'
p9064
ssg325
(dp9065
S'BK'
p9066
S'-8.5'
p9067
ssg328
(dp9068
S'BK'
p9069
S'-8.5'
p9070
ssg331
(dp9071
S'BK'
p9072
S'-8.5'
p9073
ssg334
(dp9074
S'BK'
p9075
S'-8.5'
p9076
ssg337
(dp9077
S'BK'
p9078
S'-8.5'
p9079
ssg340
(dp9080
S'BK'
p9081
S'-8.5'
p9082
ssg343
(dp9083
S'BK'
p9084
S'-8.5'
p9085
ssg346
(dp9086
S'BK'
p9087
S'-8.5'
p9088
ssg349
(dp9089
S'BK'
p9090
S'-8.5'
p9091
ssg352
(dp9092
S'BK'
p9093
S'-8.5'
p9094
sssg7274
(dp9095
g3
(dp9096
g7271
S'-4'
p9097
ssg7
(dp9098
S'BOS'
p9099
S'-3.5'
p9100
ssg11
(dp9101
S'BOS'
p9102
S'-2.5'
p9103
ssg15
(dp9104
S'BOS'
p9105
S'-2.5'
p9106
ssg18
(dp9107
S'BOS'
p9108
S'-2.5'
p9109
ssg21
(dp9110
S'BOS'
p9111
S'-2.5'
p9112
ssg24
(dp9113
S'BOS'
p9114
S'-2.5'
p9115
ssg703
(dp9116
S'POR'
p9117
S'-7.5'
p9118
ssg27
(dp9119
S'BOS'
p9120
S'-2.5'
p9121
ssg34
(dp9122
S'NY'
p9123
S'-7.5'
p9124
ssg38
(dp9125
S'BOS'
p9126
S'-2.5'
p9127
ssg41
(dp9128
S'BOS'
p9129
S'-2.5'
p9130
ssg44
(dp9131
S'BOS'
p9132
S'-2.5'
p9133
ssg51
(dp9134
S'BOS'
p9135
S'-2.5'
p9136
ssg58
(dp9137
S'BOS'
p9138
S'-2.5'
p9139
ssg61
(dp9140
S'BOS'
p9141
S'-2.5'
p9142
ssg64
(dp9143
S'BOS'
p9144
S'-2.5'
p9145
ssg67
(dp9146
S'BOS'
p9147
S'-2.5'
p9148
ssg70
(dp9149
S'BOS'
p9150
S'-2.5'
p9151
ssg73
(dp9152
S'BOS'
p9153
S'-2.5'
p9154
ssg83
(dp9155
S'BOS'
p9156
S'-2.5'
p9157
ssg86
(dp9158
S'BOS'
p9159
S'-2.5'
p9160
ssg89
(dp9161
S'BOS'
p9162
S'-2.5'
p9163
ssg92
(dp9164
S'DEN'
p9165
S'-13'
p9166
ssg96
(dp9167
S'BOS'
p9168
S'-2.5'
p9169
ssg99
(dp9170
S'BOS'
p9171
S'-2.5'
p9172
ssg102
(dp9173
S'BOS'
p9174
S'-2.5'
p9175
ssg442
(dp9176
S'WAS'
p9177
S'-5.5'
p9178
ssg105
(dp9179
S'BOS'
p9180
S'-2.5'
p9181
ssg108
(dp9182
S'BOS'
p9183
S'-2.5'
p9184
ssg115
(dp9185
S'BOS'
p9186
S'-2.5'
p9187
ssg125
(dp9188
S'BOS'
p9189
S'-2.5'
p9190
ssg128
(dp9191
S'BOS'
p9192
S'-2.5'
p9193
ssg131
(dp9194
S'BOS'
p9195
S'-2.5'
p9196
ssg134
(dp9197
S'WAS'
p9198
S'-4'
p9199
ssg138
(dp9200
S'ORL'
p9201
S'-10'
p9202
ssg141
(dp9203
S'BOS'
p9204
S'-2.5'
p9205
ssg144
(dp9206
S'CHI'
p9207
S'-5'
p9208
ssg148
(dp9209
S'BOS'
p9210
S'-2.5'
p9211
ssg151
(dp9212
S'BOS'
p9213
S'-2.5'
p9214
ssg154
(dp9215
S'BOS'
p9216
S'-2.5'
p9217
ssg157
(dp9218
S'BOS'
p9219
S'-2.5'
p9220
ssg787
(dp9221
S'MEM'
p9222
S'-3'
p9223
ssg160
(dp9224
S'BOS'
p9225
S'-2.5'
p9226
ssg163
(dp9227
S'BOS'
p9228
S'-2.5'
p9229
ssg166
(dp9230
S'BOS'
p9231
S'-2.5'
p9232
ssg797
(dp9233
S'MIA'
p9234
g95
ssg169
(dp9235
S'BOS'
p9236
S'-2.5'
p9237
ssg172
(dp9238
S'BOS'
p9239
S'-2.5'
p9240
ssg175
(dp9241
S'BOS'
p9242
S'-2.5'
p9243
ssg178
(dp9244
S'ORL'
p9245
S'-13.5'
p9246
ssg182
(dp9247
S'BOS'
p9248
S'-2.5'
p9249
ssg185
(dp9250
S'BOS'
p9251
S'-2.5'
p9252
ssg188
(dp9253
S'BOS'
p9254
S'-2.5'
p9255
ssg191
(dp9256
S'BOS'
p9257
S'-5.5'
p9258
ssg194
(dp9259
S'BOS'
p9260
S'-2.5'
p9261
ssg197
(dp9262
S'BOS'
p9263
S'-2.5'
p9264
ssg200
(dp9265
S'BOS'
p9266
S'-2.5'
p9267
ssg203
(dp9268
S'BOS'
p9269
S'-2.5'
p9270
ssg206
(dp9271
S'BOS'
p9272
S'-2.5'
p9273
ssg209
(dp9274
S'BOS'
p9275
S'-2.5'
p9276
ssg212
(dp9277
S'BOS'
p9278
S'-2.5'
p9279
ssg215
(dp9280
S'BOS'
p9281
S'-2.5'
p9282
ssg218
(dp9283
S'BOS'
p9284
S'-2.5'
p9285
ssg221
(dp9286
S'MIL'
p9287
S'-12'
p9288
ssg552
(dp9289
S'MIN'
p9290
S'-5.5'
p9291
ssg225
(dp9292
S'BOS'
p9293
S'-2.5'
p9294
ssg228
(dp9295
S'BOS'
p9296
S'-2.5'
p9297
ssg231
(dp9298
S'GS'
p9299
S'7.5'
p9300
ssg235
(dp9301
S'BOS'
p9302
S'-2.5'
p9303
ssg238
(dp9304
S'BOS'
p9305
S'-2.5'
p9306
ssg241
(dp9307
S'BOS'
p9308
S'-2.5'
p9309
ssg244
(dp9310
S'BOS'
p9311
S'-2.5'
p9312
ssg247
(dp9313
S'BOS'
p9314
S'-2.5'
p9315
ssg250
(dp9316
S'BOS'
p9317
S'-2.5'
p9318
ssg253
(dp9319
S'BOS'
p9320
S'-2.5'
p9321
ssg256
(dp9322
S'BOS'
p9323
S'-2.5'
p9324
ssg259
(dp9325
S'BOS'
p9326
S'-2.5'
p9327
ssg262
(dp9328
S'BOS'
p9329
S'-2.5'
p9330
ssg8111
(dp9331
S'LAC'
p9332
g14
ssg265
(dp9333
S'BOS'
p9334
S'-2.5'
p9335
ssg268
(dp9336
S'BOS'
p9337
S'-2.5'
p9338
ssg271
(dp9339
S'BOS'
p9340
S'-2.5'
p9341
ssg605
(dp9342
S'LAL'
p9343
S'-12'
p9344
ssg274
(dp9345
S'BOS'
p9346
S'-2.5'
p9347
ssg277
(dp9348
S'BOS'
p9349
S'-2.5'
p9350
ssg280
(dp9351
S'BOS'
p9352
S'-2.5'
p9353
ssg283
(dp9354
S'BOS'
p9355
S'-2.5'
p9356
ssg904
(dp9357
S'POR'
p9358
S'-4.5'
p9359
ssg286
(dp9360
S'BOS'
p9361
S'-2.5'
p9362
ssg289
(dp9363
S'BOS'
p9364
S'-2.5'
p9365
ssg292
(dp9366
S'BOS'
p9367
S'-2.5'
p9368
ssg295
(dp9369
S'BOS'
p9370
S'-2.5'
p9371
ssg298
(dp9372
S'SAC'
p9373
S'-10.5'
p9374
ssg302
(dp9375
S'BOS'
p9376
S'-2.5'
p9377
ssg305
(dp9378
S'BOS'
p9379
S'-2.5'
p9380
ssg308
(dp9381
S'BOS'
p9382
S'-2.5'
p9383
ssg311
(dp9384
S'BOS'
p9385
S'-2.5'
p9386
ssg80
(dp9387
S'BOS'
p9388
S'-2.5'
p9389
ssg318
(dp9390
S'BOS'
p9391
S'-2.5'
p9392
ssg325
(dp9393
S'BOS'
p9394
S'-2.5'
p9395
ssg942
(dp9396
S'MIA'
p9397
g95
ssg328
(dp9398
S'BOS'
p9399
S'-2.5'
p9400
ssg331
(dp9401
S'BOS'
p9402
S'-2.5'
p9403
ssg334
(dp9404
S'BOS'
p9405
S'-2.5'
p9406
ssg337
(dp9407
S'BOS'
p9408
S'-2.5'
p9409
ssg340
(dp9410
S'BOS'
p9411
S'-2.5'
p9412
ssg343
(dp9413
S'BOS'
p9414
S'-2.5'
p9415
ssg346
(dp9416
S'BOS'
p9417
S'-2.5'
p9418
ssg349
(dp9419
S'BOS'
p9420
S'-2.5'
p9421
ssg352
(dp9422
S'BOS'
p9423
S'-2.5'
p9424
sss.