(dp0
S'MIL'
p1
(dp2
S'NOV 04, 2014'
p3
(dp4
S'CLE'
p5
S'4.5'
p6
ssS'DEC 02, 2014'
p7
(dp8
S'NOP'
p9
S'8'
p10
ssS'DEC 23, 2014'
p11
(dp12
S'TOR'
p13
S'3'
p14
ssS'JAN 29, 2015'
p15
(dp16
S'TOR'
p17
g14
ssS'JAN 20, 2015'
p18
(dp19
S'TOR'
p20
g14
ssS'NOV 25, 2014'
p21
(dp22
S'TOR'
p23
g14
ssS'DEC 26, 2014'
p24
(dp25
S'TOR'
p26
g14
ssS'DEC 31, 2014'
p27
(dp28
S'TOR'
p29
g14
ssS'APR 04, 2015'
p30
(dp31
S'ORL'
p32
S'-9'
p33
ssS'FEB 11, 2015'
p34
(dp35
S'BKN'
p36
S'-1'
p37
ssS'MAR 28, 2015'
p38
(dp39
S'TOR'
p40
g14
ssS'DEC 22, 2014'
p41
(dp42
S'TOR'
p43
g14
ssS'JAN 14, 2015'
p44
(dp45
S'TOR'
p46
g14
ssS'APR 01, 2015'
p47
(dp48
S'NYK'
p49
S'-7'
p50
ssS'APR 14, 2015'
p51
(dp52
S'TOR'
p53
g14
ssS'FEB 01, 2015'
p54
(dp55
S'IND'
p56
S'-1.5'
p57
ssS'APR 13, 2015'
p58
(dp59
S'TOR'
p60
g14
ssS'NOV 28, 2014'
p61
(dp62
S'TOR'
p63
g14
ssS'NOV 16, 2014'
p64
(dp65
S'TOR'
p66
g14
ssS'MAR 17, 2015'
p67
(dp68
S'TOR'
p69
g14
ssS'JAN 15, 2015'
p70
(dp71
S'TOR'
p72
g14
ssS'NOV 19, 2014'
p73
(dp74
S'TOR'
p75
g14
ssS'NOV 10, 2014'
p76
(dp77
S'CHI'
p78
S'6'
p79
ssS'FEB 22, 2015'
p80
(dp81
S'TOR'
p82
g14
ssS'APR 15, 2015'
p83
(dp84
S'TOR'
p85
g14
ssS'DEC 30, 2014'
p86
(dp87
S'TOR'
p88
g14
ssS'FEB 23, 2015'
p89
(dp90
S'TOR'
p91
g14
ssS'MAR 04, 2015'
p92
(dp93
S'BOS'
p94
S'5'
p95
ssS'JAN 25, 2015'
p96
(dp97
S'TOR'
p98
g14
ssS'JAN 27, 2015'
p99
(dp100
S'TOR'
p101
g14
ssS'JAN 28, 2015'
p102
(dp103
S'TOR'
p104
g14
ssS'MAR 15, 2015'
p105
(dp106
S'TOR'
p107
g14
ssS'OCT 31, 2014'
p108
(dp109
S'TOR'
p110
g14
ssS'APR 12, 2015'
p111
(dp112
S'DET'
p113
S'6.5'
p114
ssS'MAR 13, 2015'
p115
(dp116
S'TOR'
p117
g14
ssS'MAR 03, 2015'
p118
(dp119
S'DEN'
p120
S'-5.5'
p121
ssS'FEB 02, 2015'
p122
(dp123
S'TOR'
p124
g79
ssS'JAN 26, 2015'
p125
(dp126
S'TOR'
p127
g14
ssS'NOV 22, 2014'
p128
(dp129
S'TOR'
p130
g14
ssS'FEB 27, 2015'
p131
(dp132
S'TOR'
p133
g14
ssS'APR 11, 2015'
p134
(dp135
S'PHI'
p136
S'-8.5'
p137
ssS'JAN 04, 2015'
p138
(dp139
S'CHI'
p140
g95
ssS'MAR 22, 2015'
p141
(dp142
S'TOR'
p143
g14
ssS'NOV 03, 2014'
p144
(dp145
S'MIN'
p146
S'15'
p147
ssS'JAN 24, 2015'
p148
(dp149
S'TOR'
p150
g14
ssS'DEC 25, 2014'
p151
(dp152
S'TOR'
p153
g14
ssS'DEC 19, 2014'
p154
(dp155
S'TOR'
p156
g14
ssS'DEC 29, 2014'
p157
(dp158
S'TOR'
p159
g14
ssS'MAR 20, 2015'
p160
(dp161
S'TOR'
p162
g14
ssS'MAR 29, 2015'
p163
(dp164
S'TOR'
p165
g14
ssS'MAR 26, 2015'
p166
(dp167
S'TOR'
p168
g14
ssS'OCT 28, 2014'
p169
(dp170
S'TOR'
p171
g14
ssS'FEB 26, 2015'
p172
(dp173
S'TOR'
p174
g14
ssS'JAN 13, 2015'
p175
(dp176
S'TOR'
p177
g14
ssS'APR 02, 2015'
p178
(dp179
S'LAL'
p180
S'-9.5'
p181
ssS'FEB 24, 2015'
p182
(dp183
S'TOR'
p184
g14
ssS'NOV 30, 2014'
p185
(dp186
S'TOR'
p187
g14
ssS'JAN 18, 2015'
p188
(dp189
S'TOR'
p190
g14
ssS'JAN 11, 2015'
p191
(dp192
S'TOR'
p193
g79
ssS'MAR 27, 2015'
p194
(dp195
S'TOR'
p196
g14
ssS'MAR 30, 2015'
p197
(dp198
S'TOR'
p199
g14
ssS'DEC 15, 2014'
p200
(dp201
S'TOR'
p202
g14
ssS'MAR 25, 2015'
p203
(dp204
S'TOR'
p205
g14
ssS'FEB 19, 2015'
p206
(dp207
S'TOR'
p208
g14
ssS'NOV 20, 2014'
p209
(dp210
S'TOR'
p211
g14
ssS'NOV 29, 2014'
p212
(dp213
S'TOR'
p214
g14
ssS'JAN 19, 2015'
p215
(dp216
S'TOR'
p217
g14
ssS'MAR 16, 2015'
p218
(dp219
S'TOR'
p220
g14
ssS'FEB 12, 2015'
p221
(dp222
S'SAS'
p223
S'12'
p224
ssS'FEB 20, 2015'
p225
(dp226
S'TOR'
p227
g14
ssS'NOV 18, 2014'
p228
(dp229
S'TOR'
p230
g14
ssS'NOV 11, 2014'
p231
(dp232
S'OKC'
p233
S'-2'
p234
ssS'MAR 19, 2015'
p235
(dp236
S'TOR'
p237
g14
ssS'DEC 20, 2014'
p238
(dp239
S'TOR'
p240
g14
ssS'JAN 30, 2015'
p241
(dp242
S'TOR'
p243
g14
ssS'MAR 31, 2015'
p244
(dp245
S'TOR'
p246
g14
ssS'OCT 29, 2014'
p247
(dp248
S'TOR'
p249
g14
ssS'MAR 18, 2015'
p250
(dp251
S'TOR'
p252
g14
ssS'OCT 30, 2014'
p253
(dp254
S'TOR'
p255
g14
ssS'MAR 14, 2015'
p256
(dp257
S'TOR'
p258
g14
ssS'MAR 23, 2015'
p259
(dp260
S'TOR'
p261
g14
ssS'NOV 23, 2014'
p262
(dp263
S'TOR'
p264
g14
ssS'DEC 14, 2014'
p265
(dp266
S'TOR'
p267
g14
ssS'NOV 24, 2014'
p268
(dp269
S'TOR'
p270
g14
ssS'FEB 25, 2015'
p271
(dp272
S'TOR'
p273
g14
ssS'FEB 21, 2015'
p274
(dp275
S'TOR'
p276
g14
ssS'NOV 15, 2014'
p277
(dp278
S'TOR'
p279
g14
ssS'JAN 23, 2015'
p280
(dp281
S'TOR'
p282
g14
ssS'NOV 26, 2014'
p283
(dp284
S'TOR'
p285
g14
ssS'NOV 13, 2014'
p286
(dp287
S'TOR'
p288
g14
ssS'JAN 17, 2015'
p289
(dp290
S'TOR'
p291
g14
ssS'JAN 31, 2015'
p292
(dp293
S'TOR'
p294
g14
ssS'MAR 21, 2015'
p295
(dp296
S'TOR'
p297
g14
ssS'APR 03, 2015'
p298
(dp299
S'GSW'
p300
S'13.5'
p301
ssS'DEC 21, 2014'
p302
(dp303
S'TOR'
p304
g14
ssS'DEC 28, 2014'
p305
(dp306
S'TOR'
p307
g14
ssS'NOV 14, 2014'
p308
(dp309
S'TOR'
p310
g14
ssS'DEC 27, 2014'
p311
(dp312
S'TOR'
p313
g14
ssS'DEC 04, 2014'
p314
(dp315
S'WAS'
p316
S'11'
p317
ssS'DEC 18, 2014'
p318
(dp319
S'TOR'
p320
g14
ssS'NOV 01, 2014'
p321
(dp322
S'OKC'
p323
S'15'
p324
ssS'NOV 17, 2014'
p325
(dp326
S'TOR'
p327
g14
ssS'JAN 16, 2015'
p328
(dp329
S'TOR'
p330
g14
ssS'DEC 16, 2014'
p331
(dp332
S'TOR'
p333
g14
ssS'DEC 13, 2014'
p334
(dp335
S'TOR'
p336
g14
ssS'MAR 24, 2015'
p337
(dp338
S'TOR'
p339
g14
ssS'JAN 22, 2015'
p340
(dp341
S'TOR'
p342
g14
ssS'DEC 17, 2014'
p343
(dp344
S'TOR'
p345
g14
ssS'JAN 21, 2015'
p346
(dp347
S'TOR'
p348
g14
ssS'NOV 21, 2014'
p349
(dp350
S'TOR'
p351
g14
ssS'FEB 28, 2015'
p352
(dp353
S'TOR'
p354
g14
sssg300
(dp355
g3
(dp356
S'LAL'
p357
S'-9.5'
p358
ssg7
(dp359
S'MIA'
p360
S'1'
p361
ssg11
(dp362
S'LAL'
p363
S'-13'
p364
ssg15
(dp365
S'LAL'
p366
S'-13'
p367
ssg18
(dp368
S'LAL'
p369
S'-13'
p370
ssg21
(dp371
S'LAL'
p372
S'-13'
p373
ssg24
(dp374
S'LAL'
p375
S'-13'
p376
ssS'DEC 03, 2014'
p377
(dp378
S'LAC'
p379
S'7'
p380
ssg27
(dp381
S'LAL'
p382
S'-13'
p383
ssg30
(dp384
S'DAL'
p385
S'-6.5'
p386
ssS'MAR 06, 2015'
p387
(dp388
S'CLE'
p389
S'-6'
p390
ssg34
(dp391
S'MEM'
p392
S'-9.5'
p393
ssg38
(dp394
S'LAL'
p395
S'-13'
p396
ssg41
(dp397
S'LAL'
p398
S'-13'
p399
ssg44
(dp400
S'LAL'
p401
S'-13'
p402
ssg51
(dp403
S'LAL'
p404
S'-13'
p405
ssS'FEB 03, 2015'
p406
(dp407
g36
S'-5.5'
p408
ssg54
(dp409
S'TOR'
p410
S'-4.5'
p411
ssg58
(dp412
S'LAL'
p413
S'-13'
p414
ssg61
(dp415
S'LAL'
p416
S'-13'
p417
ssg64
(dp418
S'LAL'
p419
S'-13'
p420
ssg67
(dp421
S'LAL'
p422
S'-13'
p423
ssg70
(dp424
S'LAL'
p425
S'-13'
p426
ssg73
(dp427
S'LAL'
p428
S'-13'
p429
ssg83
(dp430
S'LAL'
p431
S'-13'
p432
ssg86
(dp433
S'LAL'
p434
S'-13'
p435
ssg89
(dp436
S'LAL'
p437
S'-13'
p438
ssS'DEC 10, 2014'
p439
(dp440
S'LAL'
p441
S'-3.5'
p442
ssg96
(dp443
S'LAL'
p444
S'-13'
p445
ssg99
(dp446
S'LAL'
p447
S'-13'
p448
ssg102
(dp449
S'LAL'
p450
S'-13'
p451
ssg105
(dp452
S'LAL'
p453
S'-13'
p454
ssg108
(dp455
S'LAL'
p456
S'-13'
p457
ssS'FEB 06, 2015'
p458
(dp459
S'CLE'
p460
S'-6'
p461
ssg115
(dp462
S'LAL'
p463
S'-13'
p464
ssg125
(dp465
S'LAL'
p466
S'-13'
p467
ssg128
(dp468
S'LAL'
p469
S'-13'
p470
ssg131
(dp471
S'LAL'
p472
S'-13'
p473
ssg134
(dp474
S'LAC'
p475
S'-7.5'
p476
ssg247
(dp477
S'LAL'
p478
S'-13'
p479
ssg144
(dp480
S'DAL'
p481
S'-5.5'
p482
ssg148
(dp483
S'LAL'
p484
S'-13'
p485
ssg151
(dp486
S'LAL'
p487
S'-13'
p488
ssg154
(dp489
S'LAL'
p490
S'-13'
p491
ssg157
(dp492
S'LAL'
p493
S'-13'
p494
ssg160
(dp495
S'LAL'
p496
S'-13'
p497
ssg163
(dp498
S'LAL'
p499
S'-13'
p500
ssg166
(dp501
S'LAL'
p502
S'-13'
p503
ssg169
(dp504
S'LAL'
p505
S'-13'
p506
ssg172
(dp507
S'LAL'
p508
S'-13'
p509
ssg175
(dp510
S'LAL'
p511
S'-13'
p512
ssg178
(dp513
S'DAL'
p514
S'-8'
p515
ssS'JAN 06, 2015'
p516
(dp517
S'CLE'
p518
S'-6'
p519
ssg182
(dp520
S'LAL'
p521
S'-13'
p522
ssg185
(dp523
S'LAL'
p524
S'-13'
p525
ssg188
(dp526
S'LAL'
p527
S'-13'
p528
ssg289
(dp529
S'LAL'
p530
S'-13'
p531
ssS'MAR 05, 2015'
p532
(dp533
S'MEM'
p534
S'-10.5'
p535
ssg194
(dp536
S'LAL'
p537
S'-13'
p538
ssg197
(dp539
S'LAL'
p540
S'-13'
p541
ssg200
(dp542
S'LAL'
p543
S'-13'
p544
ssg203
(dp545
S'LAL'
p546
S'-13'
p547
ssg206
(dp548
S'LAL'
p549
S'-13'
p550
ssS'JAN 03, 2015'
p551
(dp552
S'BOS'
p553
S'-8.5'
p554
ssg209
(dp555
S'LAL'
p556
S'-13'
p557
ssg212
(dp558
S'LAL'
p559
S'-13'
p560
ssg215
(dp561
S'LAL'
p562
S'-13'
p563
ssg218
(dp564
S'LAL'
p565
S'-13'
p566
ssg221
(dp567
S'CHA'
p568
S'-9'
p569
ssg225
(dp570
S'LAL'
p571
S'-13'
p572
ssg228
(dp573
S'LAL'
p574
S'-13'
p575
ssg231
(dp576
g223
S'-7.5'
p577
ssg235
(dp578
S'LAL'
p579
S'-13'
p580
ssg238
(dp581
S'LAL'
p582
S'-13'
p583
ssg241
(dp584
S'LAL'
p585
S'-13'
p586
ssg244
(dp587
S'LAL'
p588
S'-13'
p589
ssg141
(dp590
S'LAL'
p591
S'-13'
p592
ssS'MAR 02, 2015'
p593
(dp594
S'SAC'
p595
S'-10'
p596
ssg250
(dp597
S'LAL'
p598
S'-13'
p599
ssg253
(dp600
S'LAL'
p601
S'-13'
p602
ssg256
(dp603
S'LAL'
p604
S'-13'
p605
ssg259
(dp606
S'LAL'
p607
S'-13'
p608
ssg262
(dp609
S'LAL'
p610
S'-13'
p611
ssg265
(dp612
S'LAL'
p613
S'-13'
p614
ssg268
(dp615
S'LAL'
p616
S'-13'
p617
ssg271
(dp618
S'LAL'
p619
S'-13'
p620
ssg274
(dp621
S'LAL'
p622
S'-13'
p623
ssg277
(dp624
S'LAL'
p625
S'-13'
p626
ssg280
(dp627
S'LAL'
p628
S'-13'
p629
ssg283
(dp630
S'LAL'
p631
S'-13'
p632
ssg286
(dp633
S'LAL'
p634
S'-13'
p635
ssg292
(dp636
S'LAL'
p637
S'-13'
p638
ssg295
(dp639
S'LAL'
p640
S'-13'
p641
ssg298
(dp642
S'MIL'
p643
S'-13.5'
p644
ssg302
(dp645
S'LAL'
p646
S'-13'
p647
ssg305
(dp648
S'LAL'
p649
S'-13'
p650
ssg308
(dp651
S'LAL'
p652
S'-13'
p653
ssg311
(dp654
S'LAL'
p655
S'-13'
p656
ssg80
(dp657
S'LAL'
p658
S'-13'
p659
ssg318
(dp660
S'LAL'
p661
S'-13'
p662
ssS'FEB 04, 2015'
p663
(dp664
S'PHX'
p665
S'-12.5'
p666
ssg325
(dp667
S'LAL'
p668
S'-13'
p669
ssg328
(dp670
S'LAL'
p671
S'-13'
p672
ssS'APR 06, 2015'
p673
(dp674
S'CLE'
p675
S'-6'
p676
ssg331
(dp677
S'LAL'
p678
S'-13'
p679
ssg334
(dp680
S'LAL'
p681
S'-13'
p682
ssg337
(dp683
S'LAL'
p684
S'-13'
p685
ssg340
(dp686
S'LAL'
p687
S'-13'
p688
ssg343
(dp689
S'LAL'
p690
S'-13'
p691
ssg346
(dp692
S'LAL'
p693
S'-13'
p694
ssg349
(dp695
S'LAL'
p696
S'-13'
p697
ssg352
(dp698
S'LAL'
p699
S'-13'
p700
sssS'MIN'
p701
(dp702
g3
(dp703
S'HOU'
p704
g14
ssg7
(dp705
S'DEN'
p706
S'-33.5'
p707
ssg11
(dp708
g665
S'-1'
p709
ssg15
(dp710
g665
S'-1'
p711
ssg18
(dp712
g665
S'-1'
p713
ssg21
(dp714
g665
S'-1'
p715
ssg24
(dp716
g665
S'-1'
p717
ssg27
(dp718
g665
S'-1'
p719
ssg34
(dp720
S'POR'
p721
S'-4'
p722
ssg38
(dp723
g665
S'-1'
p724
ssg41
(dp725
g665
S'-1'
p726
ssg44
(dp727
g665
S'-1'
p728
ssg51
(dp729
g665
S'-1'
p730
ssg406
(dp731
S'LAC'
p732
S'6.5'
p733
ssg58
(dp734
g665
S'-1'
p735
ssS'DEC 11, 2014'
p736
(dp737
g704
S'6.5'
p738
ssg61
(dp739
g665
S'-1'
p740
ssg64
(dp741
g665
S'-1'
p742
ssg67
(dp743
g665
S'-1'
p744
ssg70
(dp745
g665
S'-1'
p746
ssg73
(dp747
g665
S'-1'
p748
ssg83
(dp749
g665
S'-1'
p750
ssg86
(dp751
g665
S'-1'
p752
ssg89
(dp753
g665
S'-1'
p754
ssg92
(dp755
S'ORL'
p756
S'4.5'
p757
ssg96
(dp758
g665
S'-1'
p759
ssg99
(dp760
g665
S'-1'
p761
ssg102
(dp762
g665
S'-1'
p763
ssS'MAR 01, 2015'
p764
(dp765
S'UTA'
p766
S'-1.5'
p767
ssg105
(dp768
g665
S'-1'
p769
ssg108
(dp770
g665
S'-1'
p771
ssg115
(dp772
g665
S'-1'
p773
ssg122
(dp774
S'DAL'
p775
S'10'
p776
ssg125
(dp777
g665
S'-1'
p778
ssg128
(dp779
g665
S'-1'
p780
ssg131
(dp781
g665
S'-1'
p782
ssg138
(dp783
S'TOR'
p784
S'10'
p785
ssg141
(dp786
g665
S'-1'
p787
ssg144
(dp788
S'MIL'
p789
S'-15'
p790
ssg148
(dp791
g665
S'-1'
p792
ssg151
(dp793
g665
S'-1'
p794
ssg154
(dp795
g665
S'-1'
p796
ssg157
(dp797
g665
S'-1'
p798
ssS'JAN 12, 2015'
p799
(dp800
S'ORL'
p801
S'-1.5'
p802
ssg160
(dp803
g665
S'-1'
p804
ssg163
(dp805
g665
S'-1'
p806
ssg166
(dp807
g665
S'-1'
p808
ssg169
(dp809
g665
S'-1'
p810
ssg172
(dp811
g665
S'-1'
p812
ssg175
(dp813
g665
S'-1'
p814
ssg178
(dp815
S'MIA'
p816
S'-2'
p817
ssg182
(dp818
g665
S'-1'
p819
ssg185
(dp820
g665
S'-1'
p821
ssg188
(dp822
g665
S'-1'
p823
ssg289
(dp824
g665
S'-1'
p825
ssg194
(dp826
g665
S'-1'
p827
ssg197
(dp828
g665
S'-1'
p829
ssg200
(dp830
g665
S'-1'
p831
ssg203
(dp832
g665
S'-1'
p833
ssg206
(dp834
g665
S'-1'
p835
ssg209
(dp836
g665
S'-1'
p837
ssg212
(dp838
g665
S'-1'
p839
ssg215
(dp840
g665
S'-1'
p841
ssg218
(dp842
g665
S'-1'
p843
ssS'DEC 01, 2014'
p844
(dp845
g223
S'5.5'
p846
ssg225
(dp847
g665
S'-1'
p848
ssg228
(dp849
g665
S'-1'
p850
ssg235
(dp851
g665
S'-1'
p852
ssg238
(dp853
g665
S'-1'
p854
ssg241
(dp855
g665
S'-1'
p856
ssS'JAN 01, 2015'
p857
(dp858
S'SAC'
p859
S'4.5'
p860
ssg244
(dp861
g665
S'-1'
p862
ssg247
(dp863
g665
S'-1'
p864
ssg250
(dp865
g665
S'-1'
p866
ssg253
(dp867
g665
S'-1'
p868
ssg256
(dp869
g665
S'-1'
p870
ssg259
(dp871
g665
S'-1'
p872
ssg262
(dp873
g665
S'-1'
p874
ssg265
(dp875
g665
S'-1'
p876
ssg268
(dp877
g665
S'-1'
p878
ssg271
(dp879
g665
S'-1'
p880
ssS'DEC 12, 2014'
p881
(dp882
S'OKC'
p883
S'8.5'
p884
ssg274
(dp885
g665
S'-1'
p886
ssg277
(dp887
g665
S'-1'
p888
ssg280
(dp889
g665
S'-1'
p890
ssg283
(dp891
g665
S'-1'
p892
ssg286
(dp893
g665
S'-1'
p894
ssg292
(dp895
g665
S'-1'
p896
ssg295
(dp897
g665
S'-1'
p898
ssg298
(dp899
S'DEN'
p900
S'-7'
p901
ssg302
(dp902
g665
S'-1'
p903
ssg305
(dp904
g665
S'-1'
p905
ssg308
(dp906
g665
S'-1'
p907
ssg311
(dp908
g665
S'-1'
p909
ssg80
(dp910
g665
S'-1'
p911
ssg318
(dp912
g665
S'-1'
p913
ssg325
(dp914
g665
S'-1'
p915
ssg328
(dp916
g665
S'-1'
p917
ssg331
(dp918
g665
S'-1'
p919
ssg334
(dp920
g665
S'-1'
p921
ssg337
(dp922
g665
S'-1'
p923
ssg340
(dp924
g665
S'-1'
p925
ssg343
(dp926
g665
S'-1'
p927
ssg346
(dp928
g665
S'-1'
p929
ssg349
(dp930
g665
S'-1'
p931
ssg352
(dp932
g665
S'-1'
p933
sssS'MIA'
p934
(dp935
S'NOV 08, 2014'
p936
(dp937
g9
S'-2'
p938
ssg3
(dp939
S'IND'
p940
S'-5.5'
p941
ssg7
(dp942
g300
S'-1'
p943
ssg11
(dp944
S'MEM'
p945
g79
ssg15
(dp946
S'MEM'
p947
g79
ssg18
(dp948
S'MEM'
p949
g79
ssg21
(dp950
S'MEM'
p951
g79
ssg24
(dp952
S'MEM'
p953
g79
ssg377
(dp954
g36
S'-9'
p955
ssg27
(dp956
S'MEM'
p957
g79
ssg30
(dp958
S'DET'
p959
S'-4.5'
p960
ssg38
(dp961
S'MEM'
p962
g79
ssg41
(dp963
S'MEM'
p964
g79
ssg44
(dp965
S'MEM'
p966
g79
ssg47
(dp967
g36
S'2'
p968
ssg51
(dp969
S'MEM'
p970
g79
ssg406
(dp971
g665
S'-1.5'
p972
ssg58
(dp973
S'MEM'
p974
g79
ssg736
(dp975
S'IND'
p976
S'-8.5'
p977
ssg61
(dp978
S'MEM'
p979
g79
ssg64
(dp980
S'MEM'
p981
g79
ssg67
(dp982
S'MEM'
p983
g79
ssg70
(dp984
S'MEM'
p985
g79
ssg73
(dp986
S'MEM'
p987
g79
ssg76
(dp988
S'CLE'
p989
S'5.5'
p990
ssg80
(dp991
S'MEM'
p992
g79
ssg83
(dp993
S'MEM'
p994
g79
ssg86
(dp995
S'MEM'
p996
g79
ssg89
(dp997
S'MEM'
p998
g79
ssg96
(dp999
S'MEM'
p1000
g79
ssg99
(dp1001
S'MEM'
p1002
g79
ssg102
(dp1003
S'MEM'
p1004
g79
ssg764
(dp1005
g704
S'6.5'
p1006
ssg105
(dp1007
S'MEM'
p1008
g79
ssg108
(dp1009
S'MEM'
p1010
g79
ssg115
(dp1011
S'MEM'
p1012
g79
ssg125
(dp1013
S'MEM'
p1014
g79
ssg128
(dp1015
S'MEM'
p1016
g79
ssg131
(dp1017
S'MEM'
p1018
g79
ssg247
(dp1019
S'MEM'
p1020
g79
ssS'JAN 02, 2015'
p1021
(dp1022
S'BOS'
p1023
S'3.5'
p1024
ssg148
(dp1025
S'MEM'
p1026
g79
ssg151
(dp1027
S'MEM'
p1028
g79
ssg154
(dp1029
S'MEM'
p1030
g79
ssg157
(dp1031
S'MEM'
p1032
g79
ssS'MAR 12, 2015'
p1033
(dp1034
S'OKC'
p1035
S'4'
p1036
ssg160
(dp1037
S'MEM'
p1038
g79
ssg163
(dp1039
S'MEM'
p1040
g79
ssg166
(dp1041
S'MEM'
p1042
g79
ssS'DEC 06, 2014'
p1043
(dp1044
g223
S'-5'
p1045
ssg169
(dp1046
S'MEM'
p1047
g79
ssg172
(dp1048
S'MEM'
p1049
g79
ssg175
(dp1050
S'MEM'
p1051
g79
ssg178
(dp1052
S'MIN'
p1053
g968
ssS'NOV 02, 2014'
p1054
(dp1055
g665
S'-3'
p1056
ssg182
(dp1057
S'MEM'
p1058
g79
ssg185
(dp1059
S'MEM'
p1060
g79
ssg188
(dp1061
S'MEM'
p1062
g79
ssg191
(dp1063
g704
S'-4'
p1064
ssS'NOV 09, 2014'
p1065
(dp1066
g9
S'-2'
p1067
ssg194
(dp1068
S'MEM'
p1069
g79
ssg197
(dp1070
S'MEM'
p1071
g79
ssg200
(dp1072
S'MEM'
p1073
g79
ssg203
(dp1074
S'MEM'
p1075
g79
ssg206
(dp1076
S'MEM'
p1077
g79
ssS'APR 10, 2015'
p1078
(dp1079
S'CHA'
p1080
S'-7'
p1081
ssg209
(dp1082
S'MEM'
p1083
g79
ssg212
(dp1084
S'MEM'
p1085
g79
ssg215
(dp1086
S'MEM'
p1087
g79
ssg218
(dp1088
S'MEM'
p1089
g79
ssS'DEC 07, 2014'
p1090
(dp1091
g9
S'-2'
p1092
ssS'DEC 08, 2014'
p1093
(dp1094
g9
S'-2'
p1095
ssg225
(dp1096
S'MEM'
p1097
g79
ssg228
(dp1098
S'MEM'
p1099
g79
ssg235
(dp1100
S'MEM'
p1101
g79
ssg238
(dp1102
S'MEM'
p1103
g79
ssg241
(dp1104
S'MEM'
p1105
g79
ssg244
(dp1106
S'MEM'
p1107
g79
ssg141
(dp1108
S'MEM'
p1109
g79
ssg593
(dp1110
S'DET'
p1111
g1036
ssg250
(dp1112
S'MEM'
p1113
g79
ssg253
(dp1114
S'MEM'
p1115
g79
ssg256
(dp1116
S'MEM'
p1117
g79
ssg259
(dp1118
S'MEM'
p1119
g79
ssg262
(dp1120
S'MEM'
p1121
g79
ssS'DEC 09, 2014'
p1122
(dp1123
g9
S'-2'
p1124
ssg265
(dp1125
S'MEM'
p1126
g79
ssg268
(dp1127
S'MEM'
p1128
g79
ssg271
(dp1129
S'MEM'
p1130
g79
ssg881
(dp1131
S'UTA'
p1132
S'1.5'
p1133
ssg274
(dp1134
S'MEM'
p1135
g79
ssg277
(dp1136
S'MEM'
p1137
g79
ssg280
(dp1138
S'MEM'
p1139
g79
ssg283
(dp1140
S'MEM'
p1141
g79
ssS'DEC 05, 2014'
p1142
(dp1143
g36
S'-2'
p1144
ssg286
(dp1145
S'MEM'
p1146
g79
ssg289
(dp1147
S'MEM'
p1148
g79
ssS'MAR 11, 2015'
p1149
(dp1150
S'ATL'
p1151
S'-4'
p1152
ssg292
(dp1153
S'MEM'
p1154
g79
ssg295
(dp1155
S'MEM'
p1156
g79
ssg298
(dp1157
S'LAL'
p1158
S'-9.5'
p1159
ssg302
(dp1160
S'MEM'
p1161
g79
ssg305
(dp1162
S'MEM'
p1163
g79
ssg308
(dp1164
S'MEM'
p1165
g79
ssg311
(dp1166
S'MEM'
p1167
g79
ssg314
(dp1168
S'ATL'
p1169
S'-6'
p1170
ssg318
(dp1171
S'MEM'
p1172
g79
ssg663
(dp1173
S'CLE'
p1174
S'9.5'
p1175
ssg325
(dp1176
S'MEM'
p1177
g79
ssS'NOV 06, 2014'
p1178
(dp1179
g223
S'-5'
p1180
ssg328
(dp1181
S'MEM'
p1182
g79
ssg331
(dp1183
S'MEM'
p1184
g79
ssg334
(dp1185
S'MEM'
p1186
g79
ssg337
(dp1187
S'MEM'
p1188
g79
ssg340
(dp1189
S'MEM'
p1190
g79
ssS'NOV 07, 2014'
p1191
(dp1192
g9
S'-2'
p1193
ssg343
(dp1194
S'MEM'
p1195
g79
ssg346
(dp1196
S'MEM'
p1197
g79
ssg349
(dp1198
S'MEM'
p1199
g79
ssg352
(dp1200
S'MEM'
p1201
g79
sssS'ATL'
p1202
(dp1203
g3
(dp1204
g36
g1036
ssg7
(dp1205
S'TOR'
p1206
S'19.5'
p1207
ssg11
(dp1208
S'UTA'
p1209
S'2.5'
p1210
ssg15
(dp1211
S'UTA'
p1212
S'2.5'
p1213
ssg18
(dp1214
S'UTA'
p1215
S'2.5'
p1216
ssg21
(dp1217
S'UTA'
p1218
S'2.5'
p1219
ssg24
(dp1220
S'UTA'
p1221
S'2.5'
p1222
ssg27
(dp1223
S'UTA'
p1224
S'2.5'
p1225
ssg30
(dp1226
g36
S'-10.5'
p1227
ssg38
(dp1228
S'UTA'
p1229
S'2.5'
p1230
ssg41
(dp1231
S'UTA'
p1232
S'2.5'
p1233
ssg44
(dp1234
S'UTA'
p1235
S'2.5'
p1236
ssg51
(dp1237
S'UTA'
p1238
S'2.5'
p1239
ssg54
(dp1240
S'UTA'
p1241
S'-4.5'
p1242
ssg58
(dp1243
S'UTA'
p1244
S'2.5'
p1245
ssg736
(dp1246
S'UTA'
p1247
S'-7'
p1248
ssg61
(dp1249
S'UTA'
p1250
S'2.5'
p1251
ssg64
(dp1252
S'UTA'
p1253
S'2.5'
p1254
ssg67
(dp1255
S'UTA'
p1256
S'2.5'
p1257
ssg70
(dp1258
S'UTA'
p1259
S'2.5'
p1260
ssg73
(dp1261
S'UTA'
p1262
S'2.5'
p1263
ssg76
(dp1264
S'MEM'
p1265
S'3.5'
p1266
ssg80
(dp1267
S'UTA'
p1268
S'2.5'
p1269
ssg83
(dp1270
S'UTA'
p1271
S'2.5'
p1272
ssg86
(dp1273
S'UTA'
p1274
S'2.5'
p1275
ssg89
(dp1276
S'UTA'
p1277
S'2.5'
p1278
ssg96
(dp1279
S'UTA'
p1280
S'2.5'
p1281
ssg99
(dp1282
S'UTA'
p1283
S'2.5'
p1284
ssg102
(dp1285
S'UTA'
p1286
S'2.5'
p1287
ssg764
(dp1288
S'POR'
p1289
g79
ssg105
(dp1290
S'UTA'
p1291
S'2.5'
p1292
ssg108
(dp1293
S'UTA'
p1294
S'2.5'
p1295
ssg111
(dp1296
S'LAL'
p1297
S'-11'
p1298
ssg115
(dp1299
S'UTA'
p1300
S'2.5'
p1301
ssg118
(dp1302
g704
S'-8.5'
p1303
ssg122
(dp1304
g9
S'-3'
p1305
ssg125
(dp1306
S'UTA'
p1307
S'2.5'
p1308
ssg128
(dp1309
S'UTA'
p1310
S'2.5'
p1311
ssg131
(dp1312
S'UTA'
p1313
S'2.5'
p1314
ssg134
(dp1315
g36
S'-7'
p1316
ssg247
(dp1317
S'UTA'
p1318
S'2.5'
p1319
ssg148
(dp1320
S'UTA'
p1321
S'2.5'
p1322
ssg151
(dp1323
S'UTA'
p1324
S'2.5'
p1325
ssg154
(dp1326
S'UTA'
p1327
S'2.5'
p1328
ssg157
(dp1329
S'UTA'
p1330
S'2.5'
p1331
ssg160
(dp1332
S'UTA'
p1333
S'2.5'
p1334
ssg163
(dp1335
S'UTA'
p1336
S'2.5'
p1337
ssS'JAN 05, 2015'
p1338
(dp1339
g36
S'-5'
p1340
ssg166
(dp1341
S'UTA'
p1342
S'2.5'
p1343
ssg169
(dp1344
S'UTA'
p1345
S'2.5'
p1346
ssg172
(dp1347
S'UTA'
p1348
S'2.5'
p1349
ssg175
(dp1350
S'UTA'
p1351
S'2.5'
p1352
ssg178
(dp1353
S'WAS'
p1354
S'-6'
p1355
ssg1054
(dp1356
S'CHI'
p1357
S'1.5'
p1358
ssg182
(dp1359
S'UTA'
p1360
S'2.5'
p1361
ssg185
(dp1362
S'UTA'
p1363
S'2.5'
p1364
ssg188
(dp1365
S'UTA'
p1366
S'2.5'
p1367
ssg191
(dp1368
S'CHA'
p1369
S'-2'
p1370
ssg532
(dp1371
S'WAS'
p1372
S'-5.5'
p1373
ssg194
(dp1374
S'UTA'
p1375
S'2.5'
p1376
ssg197
(dp1377
S'UTA'
p1378
S'2.5'
p1379
ssg200
(dp1380
S'UTA'
p1381
S'2.5'
p1382
ssg203
(dp1383
S'UTA'
p1384
S'2.5'
p1385
ssg206
(dp1386
S'UTA'
p1387
S'2.5'
p1388
ssg209
(dp1389
S'UTA'
p1390
S'2.5'
p1391
ssg212
(dp1392
S'UTA'
p1393
S'2.5'
p1394
ssg215
(dp1395
S'UTA'
p1396
S'2.5'
p1397
ssg218
(dp1398
S'UTA'
p1399
S'2.5'
p1400
ssg221
(dp1401
S'TOR'
p1402
S'-4'
p1403
ssg844
(dp1404
S'MEM'
p1405
g95
ssg225
(dp1406
S'UTA'
p1407
S'2.5'
p1408
ssg228
(dp1409
S'UTA'
p1410
S'2.5'
p1411
ssg235
(dp1412
S'UTA'
p1413
S'2.5'
p1414
ssg238
(dp1415
S'UTA'
p1416
S'2.5'
p1417
ssg241
(dp1418
S'UTA'
p1419
S'2.5'
p1420
ssg244
(dp1421
S'UTA'
p1422
S'2.5'
p1423
ssg141
(dp1424
S'UTA'
p1425
S'2.5'
p1426
ssg250
(dp1427
S'UTA'
p1428
S'2.5'
p1429
ssg253
(dp1430
S'UTA'
p1431
S'2.5'
p1432
ssg256
(dp1433
S'UTA'
p1434
S'2.5'
p1435
ssg259
(dp1436
S'UTA'
p1437
S'2.5'
p1438
ssg262
(dp1439
S'UTA'
p1440
S'2.5'
p1441
ssg265
(dp1442
S'UTA'
p1443
S'2.5'
p1444
ssg268
(dp1445
S'UTA'
p1446
S'2.5'
p1447
ssg271
(dp1448
S'UTA'
p1449
S'2.5'
p1450
ssg881
(dp1451
S'ORL'
p1452
S'-9'
p1453
ssg274
(dp1454
S'UTA'
p1455
S'2.5'
p1456
ssg277
(dp1457
S'UTA'
p1458
S'2.5'
p1459
ssg280
(dp1460
S'UTA'
p1461
S'2.5'
p1462
ssg283
(dp1463
S'UTA'
p1464
S'2.5'
p1465
ssg286
(dp1466
S'UTA'
p1467
S'2.5'
p1468
ssg289
(dp1469
S'UTA'
p1470
S'2.5'
p1471
ssg1149
(dp1472
S'MIA'
p1473
g1036
ssg292
(dp1474
S'UTA'
p1475
S'2.5'
p1476
ssg295
(dp1477
S'UTA'
p1478
S'2.5'
p1479
ssg302
(dp1480
S'UTA'
p1481
S'2.5'
p1482
ssg305
(dp1483
S'UTA'
p1484
S'2.5'
p1485
ssg308
(dp1486
S'UTA'
p1487
S'2.5'
p1488
ssg311
(dp1489
S'UTA'
p1490
S'2.5'
p1491
ssg314
(dp1492
S'MIA'
p1493
g79
ssg318
(dp1494
S'UTA'
p1495
S'2.5'
p1496
ssg325
(dp1497
S'UTA'
p1498
S'2.5'
p1499
ssg328
(dp1500
S'UTA'
p1501
S'2.5'
p1502
ssg331
(dp1503
S'UTA'
p1504
S'2.5'
p1505
ssg334
(dp1506
S'UTA'
p1507
S'2.5'
p1508
ssg337
(dp1509
S'UTA'
p1510
S'2.5'
p1511
ssg340
(dp1512
S'UTA'
p1513
S'2.5'
p1514
ssg343
(dp1515
S'UTA'
p1516
S'2.5'
p1517
ssg346
(dp1518
S'UTA'
p1519
S'2.5'
p1520
ssg349
(dp1521
S'UTA'
p1522
S'2.5'
p1523
ssg352
(dp1524
S'UTA'
p1525
S'2.5'
p1526
sssS'BOS'
p1527
(dp1528
g3
(dp1529
S'CHA'
p1530
g95
ssg7
(dp1531
g223
S'3.5'
p1532
ssg11
(dp1533
g223
S'2.5'
p1534
ssg15
(dp1535
g223
S'2.5'
p1536
ssg18
(dp1537
g223
S'2.5'
p1538
ssg21
(dp1539
g223
S'2.5'
p1540
ssg24
(dp1541
g223
S'2.5'
p1542
ssg377
(dp1543
g49
g1036
ssg27
(dp1544
g223
S'2.5'
p1545
ssg30
(dp1546
S'TOR'
p1547
g968
ssg38
(dp1548
g223
S'2.5'
p1549
ssg41
(dp1550
g223
S'2.5'
p1551
ssg44
(dp1552
g223
S'2.5'
p1553
ssg51
(dp1554
g223
S'2.5'
p1555
ssg54
(dp1556
S'DAL'
p1557
g79
ssg58
(dp1558
g223
S'2.5'
p1559
ssg736
(dp1560
S'OKC'
p1561
S'-7.5'
p1562
ssg61
(dp1563
g223
S'2.5'
p1564
ssg64
(dp1565
g223
S'2.5'
p1566
ssg67
(dp1567
g223
S'2.5'
p1568
ssg70
(dp1569
g223
S'2.5'
p1570
ssg73
(dp1571
g223
S'2.5'
p1572
ssg76
(dp1573
g49
S'-3'
p1574
ssg80
(dp1575
g223
S'2.5'
p1576
ssg83
(dp1577
g223
S'2.5'
p1578
ssg86
(dp1579
g223
S'2.5'
p1580
ssg89
(dp1581
g223
S'2.5'
p1582
ssg92
(dp1583
S'MIL'
p1584
S'-5'
p1585
ssg96
(dp1586
g223
S'2.5'
p1587
ssg99
(dp1588
g223
S'2.5'
p1589
ssg102
(dp1590
g223
S'2.5'
p1591
ssg764
(dp1592
S'CHI'
p1593
S'10'
p1594
ssg105
(dp1595
g223
S'2.5'
p1596
ssg108
(dp1597
g223
S'2.5'
p1598
ssg115
(dp1599
g223
S'2.5'
p1600
ssg118
(dp1601
S'CLE'
p1602
S'11'
p1603
ssg125
(dp1604
g223
S'2.5'
p1605
ssg128
(dp1606
g223
S'2.5'
p1607
ssg131
(dp1608
g223
S'2.5'
p1609
ssg134
(dp1610
S'IND'
p1611
S'-2'
p1612
ssg138
(dp1613
S'IND'
p1614
S'-4'
p1615
ssg141
(dp1616
g223
S'2.5'
p1617
ssg144
(dp1618
S'IND'
p1619
S'12'
p1620
ssg1021
(dp1621
S'MIA'
p1622
S'-3.5'
p1623
ssg148
(dp1624
g223
S'2.5'
p1625
ssg151
(dp1626
g223
S'2.5'
p1627
ssg154
(dp1628
g223
S'2.5'
p1629
ssg157
(dp1630
g223
S'2.5'
p1631
ssg1033
(dp1632
S'SAC'
p1633
S'-2.5'
p1634
ssg160
(dp1635
g223
S'2.5'
p1636
ssg163
(dp1637
g223
S'2.5'
p1638
ssg166
(dp1639
g223
S'2.5'
p1640
ssg169
(dp1641
g223
S'2.5'
p1642
ssg172
(dp1643
g223
S'2.5'
p1644
ssg175
(dp1645
g223
S'2.5'
p1646
ssg178
(dp1647
S'DEN'
p1648
S'-3.5'
p1649
ssg182
(dp1650
g223
S'2.5'
p1651
ssg185
(dp1652
g223
S'2.5'
p1653
ssg188
(dp1654
g223
S'2.5'
p1655
ssg191
(dp1656
g223
S'5.5'
p1657
ssg194
(dp1658
g223
S'2.5'
p1659
ssg197
(dp1660
g223
S'2.5'
p1661
ssg200
(dp1662
g223
S'2.5'
p1663
ssg203
(dp1664
g223
S'2.5'
p1665
ssg206
(dp1666
g223
S'2.5'
p1667
ssg551
(dp1668
g300
S'8.5'
p1669
ssg209
(dp1670
g223
S'2.5'
p1671
ssg212
(dp1672
g223
S'2.5'
p1673
ssg215
(dp1674
g223
S'2.5'
p1675
ssg218
(dp1676
g223
S'2.5'
p1677
ssg225
(dp1678
g223
S'2.5'
p1679
ssg228
(dp1680
g223
S'2.5'
p1681
ssg235
(dp1682
g223
S'2.5'
p1683
ssg238
(dp1684
g223
S'2.5'
p1685
ssg241
(dp1686
g223
S'2.5'
p1687
ssg244
(dp1688
g223
S'2.5'
p1689
ssg247
(dp1690
g223
S'2.5'
p1691
ssg593
(dp1692
g49
S'-1'
p1693
ssg250
(dp1694
g223
S'2.5'
p1695
ssg253
(dp1696
g223
S'2.5'
p1697
ssg256
(dp1698
g223
S'2.5'
p1699
ssg259
(dp1700
g223
S'2.5'
p1701
ssg262
(dp1702
g223
S'2.5'
p1703
ssg265
(dp1704
g223
S'2.5'
p1705
ssg268
(dp1706
g223
S'2.5'
p1707
ssg271
(dp1708
g223
S'2.5'
p1709
ssg881
(dp1710
g49
S'-6.5'
p1711
ssg274
(dp1712
g223
S'2.5'
p1713
ssg277
(dp1714
g223
S'2.5'
p1715
ssg280
(dp1716
g223
S'2.5'
p1717
ssg283
(dp1718
g223
S'2.5'
p1719
ssg286
(dp1720
g223
S'2.5'
p1721
ssg289
(dp1722
g223
S'2.5'
p1723
ssg292
(dp1724
g223
S'2.5'
p1725
ssg295
(dp1726
g223
S'2.5'
p1727
ssg298
(dp1728
S'UTA'
p1729
S'-1'
p1730
ssg302
(dp1731
g223
S'2.5'
p1732
ssg305
(dp1733
g223
S'2.5'
p1734
ssg308
(dp1735
g223
S'2.5'
p1736
ssg311
(dp1737
g223
S'2.5'
p1738
ssg314
(dp1739
S'CLE'
p1740
S'9'
p1741
ssg318
(dp1742
g223
S'2.5'
p1743
ssg321
(dp1744
S'POR'
p1745
S'12'
p1746
ssg325
(dp1747
g223
S'2.5'
p1748
ssg328
(dp1749
g223
S'2.5'
p1750
ssg331
(dp1751
g223
S'2.5'
p1752
ssg334
(dp1753
g223
S'2.5'
p1754
ssg337
(dp1755
g223
S'2.5'
p1756
ssg340
(dp1757
g223
S'2.5'
p1758
ssg343
(dp1759
g223
S'2.5'
p1760
ssg346
(dp1761
g223
S'2.5'
p1762
ssg349
(dp1763
g223
S'2.5'
p1764
ssg352
(dp1765
g223
S'2.5'
p1766
sssS'DET'
p1767
(dp1768
g3
(dp1769
S'CHI'
p1770
S'10'
p1771
ssg7
(dp1772
S'CLE'
p1773
S'-8'
p1774
ssg11
(dp1775
S'LAC'
p1776
S'6.5'
p1777
ssg15
(dp1778
S'LAC'
p1779
S'6.5'
p1780
ssg18
(dp1781
S'LAC'
p1782
S'6.5'
p1783
ssg21
(dp1784
S'LAC'
p1785
S'6.5'
p1786
ssg24
(dp1787
S'LAC'
p1788
S'6.5'
p1789
ssg377
(dp1790
S'TOR'
p1791
S'8.5'
p1792
ssg27
(dp1793
S'LAC'
p1794
S'6.5'
p1795
ssg30
(dp1796
S'MIA'
p1797
S'4.5'
p1798
ssg38
(dp1799
S'LAC'
p1800
S'6.5'
p1801
ssg41
(dp1802
S'LAC'
p1803
S'6.5'
p1804
ssg44
(dp1805
S'LAC'
p1806
S'6.5'
p1807
ssg47
(dp1808
S'SAC'
p1809
S'-3.5'
p1810
ssg51
(dp1811
S'LAC'
p1812
S'6.5'
p1813
ssg54
(dp1814
g49
S'-4.5'
p1815
ssg58
(dp1816
S'LAC'
p1817
S'6.5'
p1818
ssg736
(dp1819
S'WAS'
p1820
g79
ssg61
(dp1821
S'LAC'
p1822
S'6.5'
p1823
ssg64
(dp1824
S'LAC'
p1825
S'6.5'
p1826
ssg67
(dp1827
S'LAC'
p1828
S'6.5'
p1829
ssg70
(dp1830
S'LAC'
p1831
S'6.5'
p1832
ssg73
(dp1833
S'LAC'
p1834
S'6.5'
p1835
ssg83
(dp1836
S'LAC'
p1837
S'6.5'
p1838
ssg86
(dp1839
S'LAC'
p1840
S'6.5'
p1841
ssg89
(dp1842
S'LAC'
p1843
S'6.5'
p1844
ssg92
(dp1845
S'CHI'
p1846
S'9.5'
p1847
ssg439
(dp1848
S'WAS'
p1849
g14
ssg96
(dp1850
S'LAC'
p1851
S'6.5'
p1852
ssg99
(dp1853
S'LAC'
p1854
S'6.5'
p1855
ssg102
(dp1856
S'LAC'
p1857
S'6.5'
p1858
ssg105
(dp1859
S'LAC'
p1860
S'6.5'
p1861
ssg108
(dp1862
S'LAC'
p1863
S'6.5'
p1864
ssg111
(dp1865
S'MIL'
p1866
S'-6.5'
p1867
ssg115
(dp1868
S'LAC'
p1869
S'6.5'
p1870
ssg125
(dp1871
S'LAC'
p1872
S'6.5'
p1873
ssg128
(dp1874
S'LAC'
p1875
S'6.5'
p1876
ssg131
(dp1877
S'LAC'
p1878
S'6.5'
p1879
ssg138
(dp1880
S'CHA'
p1881
S'5.5'
p1882
ssg141
(dp1883
S'LAC'
p1884
S'6.5'
p1885
ssg144
(dp1886
S'SAC'
p1887
S'-2.5'
p1888
ssg148
(dp1889
S'LAC'
p1890
S'6.5'
p1891
ssg151
(dp1892
S'LAC'
p1893
S'6.5'
p1894
ssg154
(dp1895
S'LAC'
p1896
S'6.5'
p1897
ssg157
(dp1898
S'LAC'
p1899
S'6.5'
p1900
ssg160
(dp1901
S'LAC'
p1902
S'6.5'
p1903
ssg163
(dp1904
S'LAC'
p1905
S'6.5'
p1906
ssg166
(dp1907
S'LAC'
p1908
S'6.5'
p1909
ssg169
(dp1910
S'LAC'
p1911
S'6.5'
p1912
ssg172
(dp1913
S'LAC'
p1914
S'6.5'
p1915
ssg175
(dp1916
S'LAC'
p1917
S'6.5'
p1918
ssg178
(dp1919
S'IND'
p1920
S'4.5'
p1921
ssg182
(dp1922
S'LAC'
p1923
S'6.5'
p1924
ssg185
(dp1925
S'LAC'
p1926
S'6.5'
p1927
ssg188
(dp1928
S'LAC'
p1929
S'6.5'
p1930
ssg289
(dp1931
S'LAC'
p1932
S'6.5'
p1933
ssg194
(dp1934
S'LAC'
p1935
S'6.5'
p1936
ssg197
(dp1937
S'LAC'
p1938
S'6.5'
p1939
ssg200
(dp1940
S'LAC'
p1941
S'6.5'
p1942
ssg203
(dp1943
S'LAC'
p1944
S'6.5'
p1945
ssg206
(dp1946
S'LAC'
p1947
S'6.5'
p1948
ssg209
(dp1949
S'LAC'
p1950
S'6.5'
p1951
ssg212
(dp1952
S'LAC'
p1953
S'6.5'
p1954
ssg215
(dp1955
S'LAC'
p1956
S'6.5'
p1957
ssg218
(dp1958
S'LAC'
p1959
S'6.5'
p1960
ssg221
(dp1961
g665
S'-3.5'
p1962
ssg225
(dp1963
S'LAC'
p1964
S'6.5'
p1965
ssg228
(dp1966
S'LAC'
p1967
S'6.5'
p1968
ssg235
(dp1969
S'LAC'
p1970
S'6.5'
p1971
ssg238
(dp1972
S'LAC'
p1973
S'6.5'
p1974
ssg241
(dp1975
S'LAC'
p1976
S'6.5'
p1977
ssg244
(dp1978
S'LAC'
p1979
S'6.5'
p1980
ssg247
(dp1981
S'LAC'
p1982
S'6.5'
p1983
ssg593
(dp1984
S'MIA'
p1985
S'-4'
p1986
ssg250
(dp1987
S'LAC'
p1988
S'6.5'
p1989
ssg253
(dp1990
S'LAC'
p1991
S'6.5'
p1992
ssg256
(dp1993
S'LAC'
p1994
S'6.5'
p1995
ssg259
(dp1996
S'LAC'
p1997
S'6.5'
p1998
ssg262
(dp1999
S'LAC'
p2000
S'6.5'
p2001
ssg265
(dp2002
S'LAC'
p2003
S'6.5'
p2004
ssg268
(dp2005
S'LAC'
p2006
S'6.5'
p2007
ssg271
(dp2008
S'LAC'
p2009
S'6.5'
p2010
ssg881
(dp2011
g665
S'9.5'
p2012
ssg274
(dp2013
S'LAC'
p2014
S'6.5'
p2015
ssg277
(dp2016
S'LAC'
p2017
S'6.5'
p2018
ssg280
(dp2019
S'LAC'
p2020
S'6.5'
p2021
ssg283
(dp2022
S'LAC'
p2023
S'6.5'
p2024
ssg286
(dp2025
S'LAC'
p2026
S'6.5'
p2027
ssg1149
(dp2028
S'IND'
p2029
S'-4.5'
p2030
ssg292
(dp2031
S'LAC'
p2032
S'6.5'
p2033
ssg295
(dp2034
S'LAC'
p2035
S'6.5'
p2036
ssg298
(dp2037
g9
g95
ssg302
(dp2038
S'LAC'
p2039
S'6.5'
p2040
ssg305
(dp2041
S'LAC'
p2042
S'6.5'
p2043
ssg308
(dp2044
S'LAC'
p2045
S'6.5'
p2046
ssg311
(dp2047
S'LAC'
p2048
S'6.5'
p2049
ssg80
(dp2050
S'LAC'
p2051
S'6.5'
p2052
ssg318
(dp2053
S'LAC'
p2054
S'6.5'
p2055
ssg321
(dp2056
g665
S'-1.5'
p2057
ssg325
(dp2058
S'LAC'
p2059
S'6.5'
p2060
ssg328
(dp2061
S'LAC'
p2062
S'6.5'
p2063
ssg331
(dp2064
S'LAC'
p2065
S'6.5'
p2066
ssg334
(dp2067
S'LAC'
p2068
S'6.5'
p2069
ssg337
(dp2070
S'LAC'
p2071
S'6.5'
p2072
ssg340
(dp2073
S'LAC'
p2074
S'6.5'
p2075
ssg343
(dp2076
S'LAC'
p2077
S'6.5'
p2078
ssg346
(dp2079
S'LAC'
p2080
S'6.5'
p2081
ssg349
(dp2082
S'LAC'
p2083
S'6.5'
p2084
ssg352
(dp2085
S'LAC'
p2086
S'6.5'
p2087
sssg49
(dp2088
g3
(dp2089
S'TOR'
p2090
S'5.5'
p2091
ssg7
(dp2092
S'SAC'
p2093
S'-3.5'
p2094
ssg11
(dp2095
S'CHA'
p2096
g361
ssg15
(dp2097
S'CHA'
p2098
g361
ssg18
(dp2099
S'CHA'
p2100
g361
ssg21
(dp2101
S'CHA'
p2102
g361
ssg24
(dp2103
S'CHA'
p2104
g361
ssg377
(dp2105
S'BOS'
p2106
S'-4'
p2107
ssg27
(dp2108
S'CHA'
p2109
g361
ssg34
(dp2110
g223
S'7.5'
p2111
ssg38
(dp2112
S'CHA'
p2113
g361
ssg41
(dp2114
S'CHA'
p2115
g361
ssg44
(dp2116
S'CHA'
p2117
g361
ssg47
(dp2118
S'MIL'
p2119
g380
ssg51
(dp2120
S'CHA'
p2121
g361
ssg54
(dp2122
S'DET'
p2123
S'4.5'
p2124
ssg58
(dp2125
S'CHA'
p2126
g361
ssg736
(dp2127
S'ORL'
p2128
S'-6.5'
p2129
ssg61
(dp2130
S'CHA'
p2131
g361
ssg64
(dp2132
S'CHA'
p2133
g361
ssg67
(dp2134
S'CHA'
p2135
g361
ssg70
(dp2136
S'CHA'
p2137
g361
ssg73
(dp2138
S'CHA'
p2139
g361
ssg76
(dp2140
S'BOS'
p2141
g14
ssg83
(dp2142
S'CHA'
p2143
g361
ssg86
(dp2144
S'CHA'
p2145
g361
ssg89
(dp2146
S'CHA'
p2147
g361
ssg92
(dp2148
S'WAS'
p2149
S'14.5'
p2150
ssg96
(dp2151
S'CHA'
p2152
g361
ssg99
(dp2153
S'CHA'
p2154
g361
ssg102
(dp2155
S'CHA'
p2156
g361
ssg105
(dp2157
S'CHA'
p2158
g361
ssg108
(dp2159
S'CHA'
p2160
g361
ssg111
(dp2161
g36
S'-3.5'
p2162
ssg115
(dp2163
S'CHA'
p2164
g361
ssg118
(dp2165
S'SAC'
p2166
S'4.5'
p2167
ssg125
(dp2168
S'CHA'
p2169
g361
ssg128
(dp2170
S'CHA'
p2171
g361
ssg131
(dp2172
S'CHA'
p2173
g361
ssg134
(dp2174
S'CLE'
p2175
S'10.5'
p2176
ssg138
(dp2177
g36
S'9.5'
p2178
ssg141
(dp2179
S'CHA'
p2180
g361
ssg1021
(dp2181
S'LAL'
p2182
S'-3'
p2183
ssg148
(dp2184
S'CHA'
p2185
g361
ssg151
(dp2186
S'CHA'
p2187
g361
ssg154
(dp2188
S'CHA'
p2189
g361
ssg157
(dp2190
S'CHA'
p2191
g361
ssg160
(dp2192
S'CHA'
p2193
g361
ssg163
(dp2194
S'CHA'
p2195
g361
ssg166
(dp2196
S'CHA'
p2197
g361
ssg169
(dp2198
S'CHA'
p2199
g361
ssg172
(dp2200
S'CHA'
p2201
g361
ssg175
(dp2202
S'CHA'
p2203
g361
ssg182
(dp2204
S'CHA'
p2205
g361
ssg185
(dp2206
S'CHA'
p2207
g361
ssg188
(dp2208
S'CHA'
p2209
g361
ssg289
(dp2210
S'CHA'
p2211
g361
ssg194
(dp2212
S'CHA'
p2213
g361
ssg197
(dp2214
S'CHA'
p2215
g361
ssg200
(dp2216
S'CHA'
p2217
g361
ssg203
(dp2218
S'CHA'
p2219
g361
ssg206
(dp2220
S'CHA'
p2221
g361
ssg209
(dp2222
S'CHA'
p2223
g361
ssg212
(dp2224
S'CHA'
p2225
g361
ssg215
(dp2226
S'CHA'
p2227
g361
ssg218
(dp2228
S'CHA'
p2229
g361
ssg221
(dp2230
S'PHI'
p2231
S'-8.5'
p2232
ssg225
(dp2233
S'CHA'
p2234
g361
ssg228
(dp2235
S'CHA'
p2236
g361
ssg235
(dp2237
S'CHA'
p2238
g361
ssg238
(dp2239
S'CHA'
p2240
g361
ssg241
(dp2241
S'CHA'
p2242
g361
ssg244
(dp2243
S'CHA'
p2244
g361
ssg247
(dp2245
S'CHA'
p2246
g361
ssg593
(dp2247
S'BOS'
p2248
g361
ssg250
(dp2249
S'CHA'
p2250
g361
ssg253
(dp2251
S'CHA'
p2252
g361
ssg256
(dp2253
S'CHA'
p2254
g361
ssg259
(dp2255
S'CHA'
p2256
g361
ssg262
(dp2257
S'CHA'
p2258
g361
ssg265
(dp2259
S'CHA'
p2260
g361
ssg268
(dp2261
S'CHA'
p2262
g361
ssg271
(dp2263
S'CHA'
p2264
g361
ssg881
(dp2265
S'BOS'
p2266
S'6.5'
p2267
ssg274
(dp2268
S'CHA'
p2269
g361
ssg277
(dp2270
S'CHA'
p2271
g361
ssg280
(dp2272
S'CHA'
p2273
g361
ssg283
(dp2274
S'CHA'
p2275
g361
ssg286
(dp2276
S'CHA'
p2277
g361
ssg292
(dp2278
S'CHA'
p2279
g361
ssg295
(dp2280
S'CHA'
p2281
g361
ssg298
(dp2282
S'IND'
p2283
S'13.5'
p2284
ssg302
(dp2285
S'CHA'
p2286
g361
ssg305
(dp2287
S'CHA'
p2288
g361
ssg308
(dp2289
S'CHA'
p2290
g361
ssg311
(dp2291
S'CHA'
p2292
g361
ssg80
(dp2293
S'CHA'
p2294
g361
ssg318
(dp2295
S'CHA'
p2296
g361
ssg321
(dp2297
S'PHI'
p2298
S'-5'
p2299
ssg325
(dp2300
S'CHA'
p2301
g361
ssg328
(dp2302
S'CHA'
p2303
g361
ssg331
(dp2304
S'CHA'
p2305
g361
ssg334
(dp2306
S'CHA'
p2307
g361
ssg337
(dp2308
S'CHA'
p2309
g361
ssg340
(dp2310
S'CHA'
p2311
g361
ssg343
(dp2312
S'CHA'
p2313
g361
ssg346
(dp2314
S'CHA'
p2315
g361
ssg349
(dp2316
S'CHA'
p2317
g361
ssg352
(dp2318
S'CHA'
p2319
g361
sssg706
(dp2320
g7
(dp2321
S'MIN'
p2322
S'33.5'
p2323
ssg11
(dp2324
S'OKC'
p2325
S'N/A'
p2326
ssg15
(dp2327
S'OKC'
p2328
g2326
ssg18
(dp2329
S'OKC'
p2330
g2326
ssg21
(dp2331
S'OKC'
p2332
g2326
ssg24
(dp2333
S'OKC'
p2334
g2326
ssg377
(dp2335
S'ORL'
p2336
S'-3'
p2337
ssg27
(dp2338
S'OKC'
p2339
g2326
ssg30
(dp2340
S'LAC'
p2341
S'10'
p2342
ssS'MAR 09, 2015'
p2343
(dp2344
S'LAC'
p2345
S'7.5'
p2346
ssg38
(dp2347
S'OKC'
p2348
g2326
ssg41
(dp2349
S'OKC'
p2350
g2326
ssg44
(dp2351
S'OKC'
p2352
g2326
ssS'JAN 09, 2015'
p2353
(dp2354
S'LAC'
p2355
S'7.5'
p2356
ssg51
(dp2357
S'OKC'
p2358
g2326
ssg58
(dp2359
S'OKC'
p2360
g2326
ssg736
(dp2361
S'POR'
p2362
S'-2.5'
p2363
ssg61
(dp2364
S'OKC'
p2365
g2326
ssg64
(dp2366
S'OKC'
p2367
g2326
ssg67
(dp2368
S'OKC'
p2369
g2326
ssg70
(dp2370
S'OKC'
p2371
g2326
ssg73
(dp2372
S'OKC'
p2373
g2326
ssg80
(dp2374
S'OKC'
p2375
g2326
ssg83
(dp2376
S'OKC'
p2377
g2326
ssg86
(dp2378
S'OKC'
p2379
g2326
ssg89
(dp2380
S'OKC'
p2381
g2326
ssg92
(dp2382
g223
S'13'
p2383
ssg96
(dp2384
S'OKC'
p2385
g2326
ssg99
(dp2386
S'OKC'
p2387
g2326
ssg102
(dp2388
S'OKC'
p2389
g2326
ssg764
(dp2390
S'MEM'
p2391
S'-1.5'
p2392
ssg105
(dp2393
S'OKC'
p2394
g2326
ssg108
(dp2395
S'OKC'
p2396
g2326
ssg115
(dp2397
S'OKC'
p2398
g2326
ssg118
(dp2399
S'MIL'
p2400
S'5.5'
p2401
ssg125
(dp2402
S'OKC'
p2403
g2326
ssg128
(dp2404
S'OKC'
p2405
g2326
ssg131
(dp2406
S'OKC'
p2407
g2326
ssg138
(dp2408
S'UTA'
p2409
g95
ssS'APR 08, 2015'
p2410
(dp2411
S'LAC'
p2412
S'7.5'
p2413
ssg141
(dp2414
S'OKC'
p2415
g2326
ssS'MAR 08, 2015'
p2416
(dp2417
S'LAC'
p2418
S'7.5'
p2419
ssg148
(dp2420
S'OKC'
p2421
g2326
ssg151
(dp2422
S'OKC'
p2423
g2326
ssg154
(dp2424
S'OKC'
p2425
g2326
ssg157
(dp2426
S'OKC'
p2427
g2326
ssg1033
(dp2428
S'TOR'
p2429
S'10'
p2430
ssg160
(dp2431
S'OKC'
p2432
g2326
ssg163
(dp2433
S'OKC'
p2434
g2326
ssg166
(dp2435
S'OKC'
p2436
g2326
ssg169
(dp2437
S'OKC'
p2438
g2326
ssg172
(dp2439
S'OKC'
p2440
g2326
ssg175
(dp2441
S'OKC'
p2442
g2326
ssg178
(dp2443
S'BOS'
p2444
S'3.5'
p2445
ssg182
(dp2446
S'OKC'
p2447
g2326
ssg185
(dp2448
S'OKC'
p2449
g2326
ssg188
(dp2450
S'OKC'
p2451
g2326
ssg191
(dp2452
S'OKC'
p2453
S'12.5'
p2454
ssS'FEB 09, 2015'
p2455
(dp2456
S'LAC'
p2457
S'7.5'
p2458
ssg194
(dp2459
S'OKC'
p2460
g2326
ssS'FEB 10, 2015'
p2461
(dp2462
S'LAC'
p2463
S'7.5'
p2464
ssg197
(dp2465
S'OKC'
p2466
g2326
ssg200
(dp2467
S'OKC'
p2468
g2326
ssg203
(dp2469
S'OKC'
p2470
g2326
ssg206
(dp2471
S'OKC'
p2472
g2326
ssg551
(dp2473
g9
S'4.5'
p2474
ssg209
(dp2475
S'OKC'
p2476
g2326
ssg212
(dp2477
S'OKC'
p2478
g2326
ssg215
(dp2479
S'OKC'
p2480
g2326
ssS'MAR 07, 2015'
p2481
(dp2482
S'LAC'
p2483
S'7.5'
p2484
ssg218
(dp2485
S'OKC'
p2486
g2326
ssg221
(dp2487
S'CHI'
p2488
S'9.5'
p2489
ssg238
(dp2490
S'OKC'
p2491
g2326
ssg228
(dp2492
S'OKC'
p2493
g2326
ssg235
(dp2494
S'OKC'
p2495
g2326
ssg225
(dp2496
S'OKC'
p2497
g2326
ssg241
(dp2498
S'OKC'
p2499
g2326
ssS'JAN 07, 2015'
p2500
(dp2501
S'LAC'
p2502
S'7.5'
p2503
ssg857
(dp2504
S'CHI'
p2505
S'10.5'
p2506
ssS'JAN 08, 2015'
p2507
(dp2508
S'LAC'
p2509
S'7.5'
p2510
ssS'FEB 08, 2015'
p2511
(dp2512
S'LAC'
p2513
S'7.5'
p2514
ssg244
(dp2515
S'OKC'
p2516
g2326
ssg340
(dp2517
S'OKC'
p2518
g2326
ssg247
(dp2519
S'OKC'
p2520
g2326
ssg593
(dp2521
S'PHI'
p2522
S'-7.5'
p2523
ssg250
(dp2524
S'OKC'
p2525
g2326
ssg253
(dp2526
S'OKC'
p2527
g2326
ssg256
(dp2528
S'OKC'
p2529
g2326
ssg259
(dp2530
S'OKC'
p2531
g2326
ssg262
(dp2532
S'OKC'
p2533
g2326
ssg265
(dp2534
S'OKC'
p2535
g2326
ssg268
(dp2536
S'OKC'
p2537
g2326
ssg271
(dp2538
S'OKC'
p2539
g2326
ssg274
(dp2540
S'OKC'
p2541
g2326
ssg277
(dp2542
S'OKC'
p2543
g2326
ssg280
(dp2544
S'OKC'
p2545
g2326
ssg283
(dp2546
S'OKC'
p2547
g2326
ssg286
(dp2548
S'OKC'
p2549
g2326
ssg289
(dp2550
S'OKC'
p2551
g2326
ssg1149
(dp2552
S'LAL'
p2553
S'2.5'
p2554
ssg292
(dp2555
S'OKC'
p2556
g2326
ssg295
(dp2557
S'OKC'
p2558
g2326
ssg298
(dp2559
S'MIN'
p2560
g380
ssg302
(dp2561
S'OKC'
p2562
g2326
ssg305
(dp2563
S'OKC'
p2564
g2326
ssg308
(dp2565
S'OKC'
p2566
g2326
ssg311
(dp2567
S'OKC'
p2568
g2326
ssg314
(dp2569
S'UTA'
p2570
S'-9.5'
p2571
ssg318
(dp2572
S'OKC'
p2573
g2326
ssg321
(dp2574
S'ORL'
p2575
S'-12.5'
p2576
ssg325
(dp2577
S'OKC'
p2578
g2326
ssg328
(dp2579
S'OKC'
p2580
g2326
ssg331
(dp2581
S'OKC'
p2582
g2326
ssS'APR 07, 2015'
p2583
(dp2584
S'LAC'
p2585
S'7.5'
p2586
ssg343
(dp2587
S'OKC'
p2588
g2326
ssS'FEB 07, 2015'
p2589
(dp2590
S'LAC'
p2591
S'7.5'
p2592
ssg334
(dp2593
S'OKC'
p2594
g2326
ssg337
(dp2595
S'OKC'
p2596
g2326
ssS'JAN 10, 2015'
p2597
(dp2598
S'LAC'
p2599
S'7.5'
p2600
ssS'APR 09, 2015'
p2601
(dp2602
S'LAC'
p2603
S'7.5'
p2604
ssg346
(dp2605
S'OKC'
p2606
g2326
ssg349
(dp2607
S'OKC'
p2608
g2326
ssg352
(dp2609
S'OKC'
p2610
g2326
sssS'DAL'
p2611
(dp2612
g7
(dp2613
S'IND'
p2614
S'1.5'
p2615
ssg11
(dp2616
S'CLE'
p2617
S'14.5'
p2618
ssg15
(dp2619
S'CLE'
p2620
S'14.5'
p2621
ssg18
(dp2622
S'CLE'
p2623
S'14.5'
p2624
ssg21
(dp2625
S'CLE'
p2626
S'14.5'
p2627
ssg24
(dp2628
S'CLE'
p2629
S'14.5'
p2630
ssg377
(dp2631
S'UTA'
p2632
S'-4.5'
p2633
ssg27
(dp2634
S'CLE'
p2635
S'14.5'
p2636
ssg30
(dp2637
g300
S'6.5'
p2638
ssg38
(dp2639
S'CLE'
p2640
S'14.5'
p2641
ssg41
(dp2642
S'CLE'
p2643
S'14.5'
p2644
ssg44
(dp2645
S'CLE'
p2646
S'14.5'
p2647
ssg47
(dp2648
S'CLE'
p2649
S'-7.5'
p2650
ssg51
(dp2651
S'CLE'
p2652
S'14.5'
p2653
ssg406
(dp2654
g9
S'-8'
p2655
ssg54
(dp2656
S'BOS'
p2657
S'-6'
p2658
ssg58
(dp2659
S'CLE'
p2660
S'14.5'
p2661
ssg61
(dp2662
S'CLE'
p2663
S'14.5'
p2664
ssg64
(dp2665
S'CLE'
p2666
S'14.5'
p2667
ssg67
(dp2668
S'CLE'
p2669
S'14.5'
p2670
ssg70
(dp2671
S'CLE'
p2672
S'14.5'
p2673
ssg73
(dp2674
S'CLE'
p2675
S'14.5'
p2676
ssg80
(dp2677
S'CLE'
p2678
S'14.5'
p2679
ssg83
(dp2680
S'CLE'
p2681
S'14.5'
p2682
ssg86
(dp2683
S'CLE'
p2684
S'14.5'
p2685
ssg89
(dp2686
S'CLE'
p2687
S'14.5'
p2688
ssg439
(dp2689
S'IND'
p2690
S'-2.5'
p2691
ssg96
(dp2692
S'CLE'
p2693
S'14.5'
p2694
ssg99
(dp2695
S'CLE'
p2696
S'14.5'
p2697
ssg102
(dp2698
S'CLE'
p2699
S'14.5'
p2700
ssg105
(dp2701
S'CLE'
p2702
S'14.5'
p2703
ssg108
(dp2704
S'CLE'
p2705
S'14.5'
p2706
ssg111
(dp2707
g704
S'-5'
p2708
ssg115
(dp2709
S'CLE'
p2710
S'14.5'
p2711
ssg122
(dp2712
S'MIN'
p2713
S'-10'
p2714
ssg125
(dp2715
S'CLE'
p2716
S'14.5'
p2717
ssg128
(dp2718
S'CLE'
p2719
S'14.5'
p2720
ssg131
(dp2721
S'CLE'
p2722
S'14.5'
p2723
ssg138
(dp2724
S'OKC'
p2725
S'2.5'
p2726
ssg247
(dp2727
S'CLE'
p2728
S'14.5'
p2729
ssg144
(dp2730
g300
S'5.5'
p2731
ssg148
(dp2732
S'CLE'
p2733
S'14.5'
p2734
ssg151
(dp2735
S'CLE'
p2736
S'14.5'
p2737
ssg154
(dp2738
S'CLE'
p2739
S'14.5'
p2740
ssg157
(dp2741
S'CLE'
p2742
S'14.5'
p2743
ssg799
(dp2744
S'POR'
p2745
S'1.5'
p2746
ssg160
(dp2747
S'CLE'
p2748
S'14.5'
p2749
ssg163
(dp2750
S'CLE'
p2751
S'14.5'
p2752
ssg166
(dp2753
S'CLE'
p2754
S'14.5'
p2755
ssg169
(dp2756
S'CLE'
p2757
S'14.5'
p2758
ssg172
(dp2759
S'CLE'
p2760
S'14.5'
p2761
ssg175
(dp2762
S'CLE'
p2763
S'14.5'
p2764
ssg178
(dp2765
g300
g10
ssg1054
(dp2766
S'CHA'
p2767
S'-4'
p2768
ssg182
(dp2769
S'CLE'
p2770
S'14.5'
p2771
ssg185
(dp2772
S'CLE'
p2773
S'14.5'
p2774
ssg188
(dp2775
S'CLE'
p2776
S'14.5'
p2777
ssg191
(dp2778
S'LAL'
p2779
S'-4'
p2780
ssg194
(dp2781
S'CLE'
p2782
S'14.5'
p2783
ssg197
(dp2784
S'CLE'
p2785
S'14.5'
p2786
ssg200
(dp2787
S'CLE'
p2788
S'14.5'
p2789
ssg203
(dp2790
S'CLE'
p2791
S'14.5'
p2792
ssg206
(dp2793
S'CLE'
p2794
S'14.5'
p2795
ssg209
(dp2796
S'CLE'
p2797
S'14.5'
p2798
ssg212
(dp2799
S'CLE'
p2800
S'14.5'
p2801
ssg215
(dp2802
S'CLE'
p2803
S'14.5'
p2804
ssg218
(dp2805
S'CLE'
p2806
S'14.5'
p2807
ssg225
(dp2808
S'CLE'
p2809
S'14.5'
p2810
ssg228
(dp2811
S'CLE'
p2812
S'14.5'
p2813
ssg231
(dp2814
S'SAC'
p2815
S'-8'
p2816
ssg235
(dp2817
S'CLE'
p2818
S'14.5'
p2819
ssg238
(dp2820
S'CLE'
p2821
S'14.5'
p2822
ssg241
(dp2823
S'CLE'
p2824
S'14.5'
p2825
ssg244
(dp2826
S'CLE'
p2827
S'14.5'
p2828
ssg141
(dp2829
S'CLE'
p2830
S'14.5'
p2831
ssg250
(dp2832
S'CLE'
p2833
S'14.5'
p2834
ssg253
(dp2835
S'CLE'
p2836
S'14.5'
p2837
ssg256
(dp2838
S'CLE'
p2839
S'14.5'
p2840
ssg259
(dp2841
S'CLE'
p2842
S'14.5'
p2843
ssg262
(dp2844
S'CLE'
p2845
S'14.5'
p2846
ssg265
(dp2847
S'CLE'
p2848
S'14.5'
p2849
ssg268
(dp2850
S'CLE'
p2851
S'14.5'
p2852
ssg271
(dp2853
S'CLE'
p2854
S'14.5'
p2855
ssg274
(dp2856
S'CLE'
p2857
S'14.5'
p2858
ssg277
(dp2859
S'CLE'
p2860
S'14.5'
p2861
ssg280
(dp2862
S'CLE'
p2863
S'14.5'
p2864
ssg283
(dp2865
S'CLE'
p2866
S'14.5'
p2867
ssg286
(dp2868
S'CLE'
p2869
S'14.5'
p2870
ssg289
(dp2871
S'CLE'
p2872
S'14.5'
p2873
ssg1149
(dp2874
S'TOR'
p2875
g968
ssg292
(dp2876
S'CLE'
p2877
S'14.5'
p2878
ssg295
(dp2879
S'CLE'
p2880
S'14.5'
p2881
ssg302
(dp2882
S'CLE'
p2883
S'14.5'
p2884
ssg305
(dp2885
S'CLE'
p2886
S'14.5'
p2887
ssg308
(dp2888
S'CLE'
p2889
S'14.5'
p2890
ssg311
(dp2891
S'CLE'
p2892
S'14.5'
p2893
ssg314
(dp2894
g665
S'-4.5'
p2895
ssg318
(dp2896
S'CLE'
p2897
S'14.5'
p2898
ssg321
(dp2899
g9
S'-8.5'
p2900
ssg663
(dp2901
g704
S'-2.5'
p2902
ssg325
(dp2903
S'CLE'
p2904
S'14.5'
p2905
ssg328
(dp2906
S'CLE'
p2907
S'14.5'
p2908
ssg331
(dp2909
S'CLE'
p2910
S'14.5'
p2911
ssg334
(dp2912
S'CLE'
p2913
S'14.5'
p2914
ssg337
(dp2915
S'CLE'
p2916
S'14.5'
p2917
ssg340
(dp2918
S'CLE'
p2919
S'14.5'
p2920
ssg343
(dp2921
S'CLE'
p2922
S'14.5'
p2923
ssg346
(dp2924
S'CLE'
p2925
S'14.5'
p2926
ssg349
(dp2927
S'CLE'
p2928
S'14.5'
p2929
ssg352
(dp2930
S'CLE'
p2931
S'14.5'
p2932
sssg36
(dp2933
g3
(dp2934
g1202
S'-4'
p2935
ssg7
(dp2936
S'CHA'
p2937
S'-7.5'
p2938
ssg11
(dp2939
S'IND'
p2940
S'8.5'
p2941
ssg15
(dp2942
S'IND'
p2943
S'8.5'
p2944
ssg18
(dp2945
S'IND'
p2946
S'8.5'
p2947
ssg21
(dp2948
S'IND'
p2949
S'8.5'
p2950
ssg24
(dp2951
S'IND'
p2952
S'8.5'
p2953
ssg377
(dp2954
S'MIA'
p2955
g1741
ssg27
(dp2956
S'IND'
p2957
S'8.5'
p2958
ssg30
(dp2959
S'ATL'
p2960
S'10.5'
p2961
ssg34
(dp2962
S'MIL'
p2963
g361
ssg38
(dp2964
S'IND'
p2965
S'8.5'
p2966
ssg41
(dp2967
S'IND'
p2968
S'8.5'
p2969
ssg44
(dp2970
S'IND'
p2971
S'8.5'
p2972
ssg47
(dp2973
S'MIA'
p2974
S'-2'
p2975
ssg51
(dp2976
S'IND'
p2977
S'8.5'
p2978
ssg406
(dp2979
g300
S'5.5'
p2980
ssg54
(dp2981
S'ORL'
p2982
S'-2.5'
p2983
ssg58
(dp2984
S'IND'
p2985
S'8.5'
p2986
ssg736
(dp2987
g665
S'4.5'
p2988
ssg61
(dp2989
S'IND'
p2990
S'8.5'
p2991
ssg64
(dp2992
S'IND'
p2993
S'8.5'
p2994
ssg67
(dp2995
S'IND'
p2996
S'8.5'
p2997
ssg70
(dp2998
S'IND'
p2999
S'8.5'
p3000
ssg73
(dp3001
S'IND'
p3002
S'8.5'
p3003
ssg83
(dp3004
S'IND'
p3005
S'8.5'
p3006
ssg86
(dp3007
S'IND'
p3008
S'8.5'
p3009
ssg89
(dp3010
S'IND'
p3011
S'8.5'
p3012
ssg92
(dp3013
S'TOR'
p3014
S'-2'
p3015
ssg439
(dp3016
S'SAC'
p3017
g361
ssg96
(dp3018
S'IND'
p3019
S'8.5'
p3020
ssg99
(dp3021
S'IND'
p3022
S'8.5'
p3023
ssg102
(dp3024
S'IND'
p3025
S'8.5'
p3026
ssg105
(dp3027
S'IND'
p3028
S'8.5'
p3029
ssg108
(dp3030
S'IND'
p3031
S'8.5'
p3032
ssg111
(dp3033
g49
S'3.5'
p3034
ssg115
(dp3035
S'IND'
p3036
S'8.5'
p3037
ssg122
(dp3038
S'LAC'
p3039
S'8.5'
p3040
ssg125
(dp3041
S'IND'
p3042
S'8.5'
p3043
ssg128
(dp3044
S'IND'
p3045
S'8.5'
p3046
ssg131
(dp3047
S'IND'
p3048
S'8.5'
p3049
ssg134
(dp3050
S'ATL'
p3051
g380
ssg138
(dp3052
g49
S'-9.5'
p3053
ssg141
(dp3054
S'IND'
p3055
S'8.5'
p3056
ssg148
(dp3057
S'IND'
p3058
S'8.5'
p3059
ssg151
(dp3060
S'IND'
p3061
S'8.5'
p3062
ssg154
(dp3063
S'IND'
p3064
S'8.5'
p3065
ssg157
(dp3066
S'IND'
p3067
S'8.5'
p3068
ssg799
(dp3069
g665
S'3.5'
p3070
ssg160
(dp3071
S'IND'
p3072
S'8.5'
p3073
ssg163
(dp3074
S'IND'
p3075
S'8.5'
p3076
ssg1338
(dp3077
S'ATL'
p3078
g95
ssg166
(dp3079
S'IND'
p3080
S'8.5'
p3081
ssg169
(dp3082
S'IND'
p3083
S'8.5'
p3084
ssg172
(dp3085
S'IND'
p3086
S'8.5'
p3087
ssg175
(dp3088
S'IND'
p3089
S'8.5'
p3090
ssg178
(dp3091
S'TOR'
p3092
S'7.5'
p3093
ssg182
(dp3094
S'IND'
p3095
S'8.5'
p3096
ssg185
(dp3097
S'IND'
p3098
S'8.5'
p3099
ssg188
(dp3100
S'IND'
p3101
S'8.5'
p3102
ssg289
(dp3103
S'IND'
p3104
S'8.5'
p3105
ssg194
(dp3106
S'IND'
p3107
S'8.5'
p3108
ssg197
(dp3109
S'IND'
p3110
S'8.5'
p3111
ssg200
(dp3112
S'IND'
p3113
S'8.5'
p3114
ssg203
(dp3115
S'IND'
p3116
S'8.5'
p3117
ssg206
(dp3118
S'IND'
p3119
S'8.5'
p3120
ssg209
(dp3121
S'IND'
p3122
S'8.5'
p3123
ssg212
(dp3124
S'IND'
p3125
S'8.5'
p3126
ssg215
(dp3127
S'IND'
p3128
S'8.5'
p3129
ssg218
(dp3130
S'IND'
p3131
S'8.5'
p3132
ssg225
(dp3133
S'IND'
p3134
S'8.5'
p3135
ssg228
(dp3136
S'IND'
p3137
S'8.5'
p3138
ssg235
(dp3139
S'IND'
p3140
S'8.5'
p3141
ssg238
(dp3142
S'IND'
p3143
S'8.5'
p3144
ssg241
(dp3145
S'IND'
p3146
S'8.5'
p3147
ssg244
(dp3148
S'IND'
p3149
S'8.5'
p3150
ssg247
(dp3151
S'IND'
p3152
S'8.5'
p3153
ssg250
(dp3154
S'IND'
p3155
S'8.5'
p3156
ssg253
(dp3157
S'IND'
p3158
S'8.5'
p3159
ssg256
(dp3160
S'IND'
p3161
S'8.5'
p3162
ssg259
(dp3163
S'IND'
p3164
S'8.5'
p3165
ssg262
(dp3166
S'IND'
p3167
S'8.5'
p3168
ssg265
(dp3169
S'IND'
p3170
S'8.5'
p3171
ssg268
(dp3172
S'IND'
p3173
S'8.5'
p3174
ssg271
(dp3175
S'IND'
p3176
S'8.5'
p3177
ssg881
(dp3178
S'PHI'
p3179
S'-6.5'
p3180
ssg274
(dp3181
S'IND'
p3182
S'8.5'
p3183
ssg277
(dp3184
S'IND'
p3185
S'8.5'
p3186
ssg280
(dp3187
S'IND'
p3188
S'8.5'
p3189
ssg283
(dp3190
S'IND'
p3191
S'8.5'
p3192
ssg1142
(dp3193
S'MIA'
p3194
g968
ssg286
(dp3195
S'IND'
p3196
S'8.5'
p3197
ssg292
(dp3198
S'IND'
p3199
S'8.5'
p3200
ssg295
(dp3201
S'IND'
p3202
S'8.5'
p3203
ssg298
(dp3204
S'CHA'
p3205
S'-5.5'
p3206
ssg302
(dp3207
S'IND'
p3208
S'8.5'
p3209
ssg305
(dp3210
S'IND'
p3211
S'8.5'
p3212
ssg308
(dp3213
S'IND'
p3214
S'8.5'
p3215
ssg311
(dp3216
S'IND'
p3217
S'8.5'
p3218
ssg80
(dp3219
S'IND'
p3220
S'8.5'
p3221
ssg318
(dp3222
S'IND'
p3223
S'8.5'
p3224
ssg321
(dp3225
S'TOR'
p3226
g1741
ssg325
(dp3227
S'IND'
p3228
S'8.5'
p3229
ssg328
(dp3230
S'IND'
p3231
S'8.5'
p3232
ssg331
(dp3233
S'IND'
p3234
S'8.5'
p3235
ssg334
(dp3236
S'IND'
p3237
S'8.5'
p3238
ssg337
(dp3239
S'IND'
p3240
S'8.5'
p3241
ssg340
(dp3242
S'IND'
p3243
S'8.5'
p3244
ssg343
(dp3245
S'IND'
p3246
S'8.5'
p3247
ssg346
(dp3248
S'IND'
p3249
S'8.5'
p3250
ssg349
(dp3251
S'IND'
p3252
S'8.5'
p3253
ssg352
(dp3254
S'IND'
p3255
S'8.5'
p3256
sssS'POR'
p3257
(dp3258
g3
(dp3259
S'UTA'
p3260
S'-8.5'
p3261
ssg7
(dp3262
S'LAC'
p3263
g1741
ssg11
(dp3264
g9
S'-4'
p3265
ssg15
(dp3266
g9
S'-4'
p3267
ssg18
(dp3268
g9
S'-4'
p3269
ssg21
(dp3270
g9
S'-4'
p3271
ssg24
(dp3272
g9
S'-4'
p3273
ssg377
(dp3274
g223
S'7.5'
p3275
ssg27
(dp3276
g9
S'-4'
p3277
ssg30
(dp3278
g9
S'-5.5'
p3279
ssg34
(dp3280
S'MIN'
p3281
g1036
ssg38
(dp3282
g9
S'-4'
p3283
ssg41
(dp3284
g9
S'-4'
p3285
ssg44
(dp3286
g9
S'-4'
p3287
ssg51
(dp3288
g9
S'-4'
p3289
ssg58
(dp3290
g9
S'-4'
p3291
ssg736
(dp3292
S'DEN'
p3293
S'2.5'
p3294
ssg61
(dp3295
g9
S'-4'
p3296
ssg64
(dp3297
g9
S'-4'
p3298
ssg67
(dp3299
g9
S'-4'
p3300
ssg70
(dp3301
g9
S'-4'
p3302
ssg73
(dp3303
g9
S'-4'
p3304
ssg83
(dp3305
g9
S'-4'
p3306
ssg86
(dp3307
g9
S'-4'
p3308
ssg89
(dp3309
g9
S'-4'
p3310
ssg92
(dp3311
S'LAL'
p3312
S'-10.5'
p3313
ssg439
(dp3314
S'LAC'
p3315
S'-2'
p3316
ssg96
(dp3317
g9
S'-4'
p3318
ssg99
(dp3319
g9
S'-4'
p3320
ssg102
(dp3321
g9
S'-4'
p3322
ssg764
(dp3323
S'ATL'
p3324
S'-6'
p3325
ssg105
(dp3326
g9
S'-4'
p3327
ssg108
(dp3328
g9
S'-4'
p3329
ssg115
(dp3330
g9
S'-4'
p3331
ssg125
(dp3332
g9
S'-4'
p3333
ssg128
(dp3334
g9
S'-4'
p3335
ssg131
(dp3336
g9
S'-4'
p3337
ssg134
(dp3338
S'UTA'
p3339
g380
ssg138
(dp3340
S'LAC'
p3341
S'-3'
p3342
ssg141
(dp3343
g9
S'-4'
p3344
ssg144
(dp3345
S'MEM'
p3346
g14
ssg148
(dp3347
g9
S'-4'
p3348
ssg151
(dp3349
g9
S'-4'
p3350
ssg154
(dp3351
g9
S'-4'
p3352
ssg157
(dp3353
g9
S'-4'
p3354
ssg799
(dp3355
S'DAL'
p3356
S'-1.5'
p3357
ssg1033
(dp3358
S'IND'
p3359
S'2.5'
p3360
ssg160
(dp3361
g9
S'-4'
p3362
ssg163
(dp3363
g9
S'-4'
p3364
ssg166
(dp3365
g9
S'-4'
p3366
ssg169
(dp3367
g9
S'-4'
p3368
ssg172
(dp3369
g9
S'-4'
p3370
ssg175
(dp3371
g9
S'-4'
p3372
ssg1054
(dp3373
S'OKC'
p3374
S'-1'
p3375
ssg182
(dp3376
g9
S'-4'
p3377
ssg185
(dp3378
g9
S'-4'
p3379
ssg188
(dp3380
g9
S'-4'
p3381
ssg289
(dp3382
g9
S'-4'
p3383
ssg194
(dp3384
g9
S'-4'
p3385
ssg197
(dp3386
g9
S'-4'
p3387
ssg200
(dp3388
g9
S'-4'
p3389
ssg203
(dp3390
g9
S'-4'
p3391
ssg206
(dp3392
g9
S'-4'
p3393
ssg551
(dp3394
S'SAC'
p3395
S'-8'
p3396
ssg209
(dp3397
g9
S'-4'
p3398
ssg212
(dp3399
g9
S'-4'
p3400
ssg215
(dp3401
g9
S'-4'
p3402
ssg218
(dp3403
g9
S'-4'
p3404
ssg225
(dp3405
g9
S'-4'
p3406
ssg228
(dp3407
g9
S'-4'
p3408
ssg231
(dp3409
S'CHA'
p3410
S'-6.5'
p3411
ssg235
(dp3412
g9
S'-4'
p3413
ssg238
(dp3414
g9
S'-4'
p3415
ssg241
(dp3416
g9
S'-4'
p3417
ssg244
(dp3418
g9
S'-4'
p3419
ssg247
(dp3420
g9
S'-4'
p3421
ssg593
(dp3422
S'UTA'
p3423
S'-8.5'
p3424
ssg250
(dp3425
g9
S'-4'
p3426
ssg253
(dp3427
g9
S'-4'
p3428
ssg256
(dp3429
g9
S'-4'
p3430
ssg259
(dp3431
g9
S'-4'
p3432
ssg262
(dp3433
g9
S'-4'
p3434
ssg265
(dp3435
g9
S'-4'
p3436
ssg268
(dp3437
g9
S'-4'
p3438
ssg271
(dp3439
g9
S'-4'
p3440
ssg881
(dp3441
S'CHI'
p3442
S'2.5'
p3443
ssg274
(dp3444
g9
S'-4'
p3445
ssg277
(dp3446
g9
S'-4'
p3447
ssg280
(dp3448
g9
S'-4'
p3449
ssg283
(dp3450
g9
S'-4'
p3451
ssg1142
(dp3452
g223
S'4.5'
p3453
ssg286
(dp3454
g9
S'-4'
p3455
ssg292
(dp3456
g9
S'-4'
p3457
ssg295
(dp3458
g9
S'-4'
p3459
ssg298
(dp3460
S'LAC'
p3461
S'-1'
p3462
ssg302
(dp3463
g9
S'-4'
p3464
ssg305
(dp3465
g9
S'-4'
p3466
ssg308
(dp3467
g9
S'-4'
p3468
ssg311
(dp3469
g9
S'-4'
p3470
ssg80
(dp3471
g9
S'-4'
p3472
ssg318
(dp3473
g9
S'-4'
p3474
ssg321
(dp3475
S'BOS'
p3476
S'-12'
p3477
ssg325
(dp3478
g9
S'-4'
p3479
ssg328
(dp3480
g9
S'-4'
p3481
ssg331
(dp3482
g9
S'-4'
p3483
ssg334
(dp3484
g9
S'-4'
p3485
ssg337
(dp3486
g9
S'-4'
p3487
ssg340
(dp3488
g9
S'-4'
p3489
ssg343
(dp3490
g9
S'-4'
p3491
ssg346
(dp3492
g9
S'-4'
p3493
ssg349
(dp3494
g9
S'-4'
p3495
ssg352
(dp3496
g9
S'-4'
p3497
sssS'ORL'
p3498
(dp3499
g3
(dp3500
S'WAS'
p3501
S'7.5'
p3502
ssg7
(dp3503
S'MEM'
p3504
S'1.5'
p3505
ssg11
(dp3506
S'WAS'
p3507
g361
ssg15
(dp3508
S'WAS'
p3509
g361
ssg18
(dp3510
S'WAS'
p3511
g361
ssg21
(dp3512
S'WAS'
p3513
g361
ssg24
(dp3514
S'WAS'
p3515
g361
ssg377
(dp3516
S'DEN'
p3517
g14
ssg27
(dp3518
S'WAS'
p3519
g361
ssg30
(dp3520
S'MIL'
p3521
g1741
ssg38
(dp3522
S'WAS'
p3523
g361
ssg41
(dp3524
S'WAS'
p3525
g361
ssg44
(dp3526
S'WAS'
p3527
g361
ssg51
(dp3528
S'WAS'
p3529
g361
ssg54
(dp3530
g36
S'2.5'
p3531
ssg58
(dp3532
S'WAS'
p3533
g361
ssg736
(dp3534
g49
S'6.5'
p3535
ssg61
(dp3536
S'WAS'
p3537
g361
ssg64
(dp3538
S'WAS'
p3539
g361
ssg67
(dp3540
S'WAS'
p3541
g361
ssg70
(dp3542
S'WAS'
p3543
g361
ssg73
(dp3544
S'WAS'
p3545
g361
ssg83
(dp3546
S'WAS'
p3547
g361
ssg86
(dp3548
S'WAS'
p3549
g361
ssg89
(dp3550
S'WAS'
p3551
g361
ssg92
(dp3552
S'MIN'
p3553
S'-4.5'
p3554
ssg96
(dp3555
S'WAS'
p3556
g361
ssg99
(dp3557
S'WAS'
p3558
g361
ssg102
(dp3559
S'WAS'
p3560
g361
ssg764
(dp3561
S'CHA'
p3562
S'-4'
p3563
ssg105
(dp3564
S'WAS'
p3565
g361
ssg108
(dp3566
S'WAS'
p3567
g361
ssg115
(dp3568
S'WAS'
p3569
g361
ssg122
(dp3570
S'OKC'
p3571
S'10.5'
p3572
ssg125
(dp3573
S'WAS'
p3574
g361
ssg128
(dp3575
S'WAS'
p3576
g361
ssg131
(dp3577
S'WAS'
p3578
g361
ssg134
(dp3579
g704
g1741
ssg138
(dp3580
g223
S'10'
p3581
ssg141
(dp3582
S'WAS'
p3583
g361
ssg148
(dp3584
S'WAS'
p3585
g361
ssg151
(dp3586
S'WAS'
p3587
g361
ssg154
(dp3588
S'WAS'
p3589
g361
ssg157
(dp3590
S'WAS'
p3591
g361
ssg799
(dp3592
S'MIN'
p3593
S'1.5'
p3594
ssg1033
(dp3595
S'UTA'
p3596
g1036
ssg160
(dp3597
S'WAS'
p3598
g361
ssg163
(dp3599
S'WAS'
p3600
g361
ssg166
(dp3601
S'WAS'
p3602
g361
ssg169
(dp3603
S'WAS'
p3604
g361
ssS'MAR 10, 2015'
p3605
(dp3606
S'CHA'
p3607
S'-2'
p3608
ssg172
(dp3609
S'WAS'
p3610
g361
ssg175
(dp3611
S'WAS'
p3612
g361
ssg178
(dp3613
g223
S'13.5'
p3614
ssg182
(dp3615
S'WAS'
p3616
g361
ssg185
(dp3617
S'WAS'
p3618
g361
ssg188
(dp3619
S'WAS'
p3620
g361
ssg289
(dp3621
S'WAS'
p3622
g361
ssg194
(dp3623
S'WAS'
p3624
g361
ssg197
(dp3625
S'WAS'
p3626
g361
ssg200
(dp3627
S'WAS'
p3628
g361
ssg203
(dp3629
S'WAS'
p3630
g361
ssg206
(dp3631
S'WAS'
p3632
g361
ssg551
(dp3633
S'CHA'
p3634
S'1.5'
p3635
ssg209
(dp3636
S'WAS'
p3637
g361
ssg212
(dp3638
S'WAS'
p3639
g361
ssg215
(dp3640
S'WAS'
p3641
g361
ssg218
(dp3642
S'WAS'
p3643
g361
ssg225
(dp3644
S'WAS'
p3645
g361
ssg191
(dp3646
S'CHI'
p3647
g10
ssg228
(dp3648
S'WAS'
p3649
g361
ssg231
(dp3650
S'TOR'
p3651
S'10.5'
p3652
ssg235
(dp3653
S'WAS'
p3654
g361
ssg238
(dp3655
S'WAS'
p3656
g361
ssg241
(dp3657
S'WAS'
p3658
g361
ssg244
(dp3659
S'WAS'
p3660
g361
ssg247
(dp3661
S'WAS'
p3662
g361
ssg250
(dp3663
S'WAS'
p3664
g361
ssg253
(dp3665
S'WAS'
p3666
g361
ssg256
(dp3667
S'WAS'
p3668
g361
ssg259
(dp3669
S'WAS'
p3670
g361
ssg262
(dp3671
S'WAS'
p3672
g361
ssg265
(dp3673
S'WAS'
p3674
g361
ssg268
(dp3675
S'WAS'
p3676
g361
ssg271
(dp3677
S'WAS'
p3678
g361
ssg881
(dp3679
S'ATL'
p3680
g1741
ssg274
(dp3681
S'WAS'
p3682
g361
ssg277
(dp3683
S'WAS'
p3684
g361
ssg280
(dp3685
S'WAS'
p3686
g361
ssg283
(dp3687
S'WAS'
p3688
g361
ssg286
(dp3689
S'WAS'
p3690
g361
ssg1149
(dp3691
g9
g95
ssg292
(dp3692
S'WAS'
p3693
g361
ssg295
(dp3694
S'WAS'
p3695
g361
ssg298
(dp3696
g665
S'4.5'
p3697
ssg302
(dp3698
S'WAS'
p3699
g361
ssg305
(dp3700
S'WAS'
p3701
g361
ssg308
(dp3702
S'WAS'
p3703
g361
ssg311
(dp3704
S'WAS'
p3705
g361
ssg80
(dp3706
S'WAS'
p3707
g361
ssg318
(dp3708
S'WAS'
p3709
g361
ssg321
(dp3710
S'DEN'
p3711
S'12.5'
p3712
ssg325
(dp3713
S'WAS'
p3714
g361
ssg328
(dp3715
S'WAS'
p3716
g361
ssg331
(dp3717
S'WAS'
p3718
g361
ssg334
(dp3719
S'WAS'
p3720
g361
ssg337
(dp3721
S'WAS'
p3722
g361
ssg340
(dp3723
S'WAS'
p3724
g361
ssg343
(dp3725
S'WAS'
p3726
g361
ssg346
(dp3727
S'WAS'
p3728
g361
ssg349
(dp3729
S'WAS'
p3730
g361
ssg352
(dp3731
S'WAS'
p3732
g361
sssg2090
(dp3733
g3
(dp3734
g49
S'-5.5'
p3735
ssg7
(dp3736
S'ATL'
p3737
S'-19.5'
p3738
ssg11
(dp3739
S'MIL'
p3740
S'-3'
p3741
ssg15
(dp3742
S'MIL'
p3743
S'-3'
p3744
ssg18
(dp3745
S'MIL'
p3746
S'-3'
p3747
ssg21
(dp3748
S'MIL'
p3749
S'-3'
p3750
ssg24
(dp3751
S'MIL'
p3752
S'-3'
p3753
ssg377
(dp3754
S'DET'
p3755
S'-8.5'
p3756
ssg27
(dp3757
S'MIL'
p3758
S'-3'
p3759
ssg30
(dp3760
S'BOS'
p3761
S'-2'
p3762
ssg38
(dp3763
S'MIL'
p3764
S'-3'
p3765
ssg41
(dp3766
S'MIL'
p3767
S'-3'
p3768
ssg44
(dp3769
S'MIL'
p3770
S'-3'
p3771
ssg47
(dp3772
g665
g361
ssg51
(dp3773
S'MIL'
p3774
S'-3'
p3775
ssg406
(dp3776
S'PHI'
p3777
S'-9.5'
p3778
ssg54
(dp3779
g300
S'4.5'
p3780
ssg58
(dp3781
S'MIL'
p3782
S'-3'
p3783
ssg61
(dp3784
S'MIL'
p3785
S'-3'
p3786
ssg64
(dp3787
S'MIL'
p3788
S'-3'
p3789
ssg67
(dp3790
S'MIL'
p3791
S'-3'
p3792
ssg70
(dp3793
S'MIL'
p3794
S'-3'
p3795
ssg73
(dp3796
S'MIL'
p3797
S'-3'
p3798
ssg83
(dp3799
S'MIL'
p3800
S'-3'
p3801
ssg86
(dp3802
S'MIL'
p3803
S'-3'
p3804
ssg89
(dp3805
S'MIL'
p3806
S'-3'
p3807
ssg92
(dp3808
g36
g968
ssg96
(dp3809
S'MIL'
p3810
S'-3'
p3811
ssg99
(dp3812
S'MIL'
p3813
S'-3'
p3814
ssg102
(dp3815
S'MIL'
p3816
S'-3'
p3817
ssg105
(dp3818
S'MIL'
p3819
S'-3'
p3820
ssg108
(dp3821
S'MIL'
p3822
S'-3'
p3823
ssg115
(dp3824
S'MIL'
p3825
S'-3'
p3826
ssg122
(dp3827
S'MIL'
p3828
S'-6'
p3829
ssg125
(dp3830
S'MIL'
p3831
S'-3'
p3832
ssg128
(dp3833
S'MIL'
p3834
S'-3'
p3835
ssg131
(dp3836
S'MIL'
p3837
S'-3'
p3838
ssg134
(dp3839
S'OKC'
p3840
g10
ssg138
(dp3841
S'MIN'
p3842
S'-10'
p3843
ssg141
(dp3844
S'MIL'
p3845
S'-3'
p3846
ssg148
(dp3847
S'MIL'
p3848
S'-3'
p3849
ssg151
(dp3850
S'MIL'
p3851
S'-3'
p3852
ssg154
(dp3853
S'MIL'
p3854
S'-3'
p3855
ssg157
(dp3856
S'MIL'
p3857
S'-3'
p3858
ssg1033
(dp3859
S'DEN'
p3860
S'-10'
p3861
ssg160
(dp3862
S'MIL'
p3863
S'-3'
p3864
ssg163
(dp3865
S'MIL'
p3866
S'-3'
p3867
ssg166
(dp3868
S'MIL'
p3869
S'-3'
p3870
ssg169
(dp3871
S'MIL'
p3872
S'-3'
p3873
ssg172
(dp3874
S'MIL'
p3875
S'-3'
p3876
ssg175
(dp3877
S'MIL'
p3878
S'-3'
p3879
ssg178
(dp3880
g36
S'-7.5'
p3881
ssg182
(dp3882
S'MIL'
p3883
S'-3'
p3884
ssg185
(dp3885
S'MIL'
p3886
S'-3'
p3887
ssg188
(dp3888
S'MIL'
p3889
S'-3'
p3890
ssg191
(dp3891
S'MIL'
p3892
S'-6'
p3893
ssg194
(dp3894
S'MIL'
p3895
S'-3'
p3896
ssg197
(dp3897
S'MIL'
p3898
S'-3'
p3899
ssg200
(dp3900
S'MIL'
p3901
S'-3'
p3902
ssg203
(dp3903
S'MIL'
p3904
S'-3'
p3905
ssg206
(dp3906
S'MIL'
p3907
S'-3'
p3908
ssg1078
(dp3909
S'LAC'
p3910
S'3.5'
p3911
ssg209
(dp3912
S'MIL'
p3913
S'-3'
p3914
ssg212
(dp3915
S'MIL'
p3916
S'-3'
p3917
ssg215
(dp3918
S'MIL'
p3919
S'-3'
p3920
ssg218
(dp3921
S'MIL'
p3922
S'-3'
p3923
ssg221
(dp3924
S'ATL'
p3925
g1036
ssg225
(dp3926
S'MIL'
p3927
S'-3'
p3928
ssg228
(dp3929
S'MIL'
p3930
S'-3'
p3931
ssg231
(dp3932
S'ORL'
p3933
S'-10.5'
p3934
ssg235
(dp3935
S'MIL'
p3936
S'-3'
p3937
ssg238
(dp3938
S'MIL'
p3939
S'-3'
p3940
ssg241
(dp3941
S'MIL'
p3942
S'-3'
p3943
ssg244
(dp3944
S'MIL'
p3945
S'-3'
p3946
ssg247
(dp3947
S'MIL'
p3948
S'-3'
p3949
ssg250
(dp3950
S'MIL'
p3951
S'-3'
p3952
ssg253
(dp3953
S'MIL'
p3954
S'-3'
p3955
ssg256
(dp3956
S'MIL'
p3957
S'-3'
p3958
ssg259
(dp3959
S'MIL'
p3960
S'-3'
p3961
ssg262
(dp3962
S'MIL'
p3963
S'-3'
p3964
ssg265
(dp3965
S'MIL'
p3966
S'-3'
p3967
ssg268
(dp3968
S'MIL'
p3969
S'-3'
p3970
ssg271
(dp3971
S'MIL'
p3972
S'-3'
p3973
ssg881
(dp3974
S'IND'
p3975
S'-9'
p3976
ssg274
(dp3977
S'MIL'
p3978
S'-3'
p3979
ssg277
(dp3980
S'MIL'
p3981
S'-3'
p3982
ssg280
(dp3983
S'MIL'
p3984
S'-3'
p3985
ssg283
(dp3986
S'MIL'
p3987
S'-3'
p3988
ssg286
(dp3989
S'MIL'
p3990
S'-3'
p3991
ssg289
(dp3992
S'MIL'
p3993
S'-3'
p3994
ssg1149
(dp3995
S'DAL'
p3996
S'-2'
p3997
ssg292
(dp3998
S'MIL'
p3999
S'-3'
p4000
ssg295
(dp4001
S'MIL'
p4002
S'-3'
p4003
ssg298
(dp4004
S'CLE'
p4005
g95
ssg302
(dp4006
S'MIL'
p4007
S'-3'
p4008
ssg305
(dp4009
S'MIL'
p4010
S'-3'
p4011
ssg308
(dp4012
S'MIL'
p4013
S'-3'
p4014
ssg311
(dp4015
S'MIL'
p4016
S'-3'
p4017
ssg80
(dp4018
S'MIL'
p4019
S'-3'
p4020
ssg318
(dp4021
S'MIL'
p4022
S'-3'
p4023
ssg321
(dp4024
g36
S'-9'
p4025
ssg325
(dp4026
S'MIL'
p4027
S'-3'
p4028
ssg328
(dp4029
S'MIL'
p4030
S'-3'
p4031
ssg331
(dp4032
S'MIL'
p4033
S'-3'
p4034
ssg334
(dp4035
S'MIL'
p4036
S'-3'
p4037
ssg337
(dp4038
S'MIL'
p4039
S'-3'
p4040
ssg340
(dp4041
S'MIL'
p4042
S'-3'
p4043
ssg343
(dp4044
S'MIL'
p4045
S'-3'
p4046
ssg346
(dp4047
S'MIL'
p4048
S'-3'
p4049
ssg349
(dp4050
S'MIL'
p4051
S'-3'
p4052
ssg352
(dp4053
S'MIL'
p4054
S'-3'
p4055
sssg1770
(dp4056
g3
(dp4057
g1767
S'-10'
p4058
ssg11
(dp4059
S'PHI'
p4060
S'-7.5'
p4061
ssg15
(dp4062
S'PHI'
p4063
S'-7.5'
p4064
ssg18
(dp4065
S'PHI'
p4066
S'-7.5'
p4067
ssg21
(dp4068
S'PHI'
p4069
S'-7.5'
p4070
ssg24
(dp4071
S'PHI'
p4072
S'-7.5'
p4073
ssg27
(dp4074
S'PHI'
p4075
S'-7.5'
p4076
ssg38
(dp4077
S'PHI'
p4078
S'-7.5'
p4079
ssg41
(dp4080
S'PHI'
p4081
S'-7.5'
p4082
ssg44
(dp4083
S'PHI'
p4084
S'-7.5'
p4085
ssg51
(dp4086
S'PHI'
p4087
S'-7.5'
p4088
ssg58
(dp4089
S'PHI'
p4090
S'-7.5'
p4091
ssg61
(dp4092
S'PHI'
p4093
S'-7.5'
p4094
ssg64
(dp4095
S'PHI'
p4096
S'-7.5'
p4097
ssg67
(dp4098
S'PHI'
p4099
S'-7.5'
p4100
ssg70
(dp4101
S'PHI'
p4102
S'-7.5'
p4103
ssg73
(dp4104
S'PHI'
p4105
S'-7.5'
p4106
ssg76
(dp4107
S'MIL'
p4108
S'-6'
p4109
ssS'APR 05, 2015'
p4110
(dp4111
S'CLE'
p4112
S'4.5'
p4113
ssg83
(dp4114
S'PHI'
p4115
S'-7.5'
p4116
ssg86
(dp4117
S'PHI'
p4118
S'-7.5'
p4119
ssg89
(dp4120
S'PHI'
p4121
S'-7.5'
p4122
ssg92
(dp4123
S'DET'
p4124
S'-9.5'
p4125
ssg96
(dp4126
S'PHI'
p4127
S'-7.5'
p4128
ssg99
(dp4129
S'PHI'
p4130
S'-7.5'
p4131
ssg102
(dp4132
S'PHI'
p4133
S'-7.5'
p4134
ssg764
(dp4135
S'BOS'
p4136
S'-10'
p4137
ssg105
(dp4138
S'PHI'
p4139
S'-7.5'
p4140
ssg108
(dp4141
S'PHI'
p4142
S'-7.5'
p4143
ssg115
(dp4144
S'PHI'
p4145
S'-7.5'
p4146
ssg118
(dp4147
S'WAS'
p4148
S'1.5'
p4149
ssg125
(dp4150
S'PHI'
p4151
S'-7.5'
p4152
ssg128
(dp4153
S'PHI'
p4154
S'-7.5'
p4155
ssg131
(dp4156
S'PHI'
p4157
S'-7.5'
p4158
ssg138
(dp4159
S'MIL'
p4160
S'-5'
p4161
ssg141
(dp4162
S'PHI'
p4163
S'-7.5'
p4164
ssg144
(dp4165
g223
g95
ssg148
(dp4166
S'PHI'
p4167
S'-7.5'
p4168
ssg151
(dp4169
S'PHI'
p4170
S'-7.5'
p4171
ssg154
(dp4172
S'PHI'
p4173
S'-7.5'
p4174
ssg157
(dp4175
S'PHI'
p4176
S'-7.5'
p4177
ssg160
(dp4178
S'PHI'
p4179
S'-7.5'
p4180
ssg163
(dp4181
S'PHI'
p4182
S'-7.5'
p4183
ssg166
(dp4184
S'PHI'
p4185
S'-7.5'
p4186
ssg169
(dp4187
S'PHI'
p4188
S'-7.5'
p4189
ssg172
(dp4190
S'PHI'
p4191
S'-7.5'
p4192
ssg175
(dp4193
S'PHI'
p4194
S'-7.5'
p4195
ssg178
(dp4196
g704
g14
ssg1054
(dp4197
S'ATL'
p4198
S'-1.5'
p4199
ssg182
(dp4200
S'PHI'
p4201
S'-7.5'
p4202
ssg185
(dp4203
S'PHI'
p4204
S'-7.5'
p4205
ssg188
(dp4206
S'PHI'
p4207
S'-7.5'
p4208
ssg191
(dp4209
S'ORL'
p4210
S'-8'
p4211
ssg194
(dp4212
S'PHI'
p4213
S'-7.5'
p4214
ssg197
(dp4215
S'PHI'
p4216
S'-7.5'
p4217
ssg200
(dp4218
S'PHI'
p4219
S'-7.5'
p4220
ssg203
(dp4221
S'PHI'
p4222
S'-7.5'
p4223
ssg206
(dp4224
S'PHI'
p4225
S'-7.5'
p4226
ssg551
(dp4227
S'LAC'
p4228
g968
ssg209
(dp4229
S'PHI'
p4230
S'-7.5'
p4231
ssg212
(dp4232
S'PHI'
p4233
S'-7.5'
p4234
ssg215
(dp4235
S'PHI'
p4236
S'-7.5'
p4237
ssg218
(dp4238
S'PHI'
p4239
S'-7.5'
p4240
ssg221
(dp4241
S'DEN'
p4242
S'-9.5'
p4243
ssg225
(dp4244
S'PHI'
p4245
S'-7.5'
p4246
ssg228
(dp4247
S'PHI'
p4248
S'-7.5'
p4249
ssg235
(dp4250
S'PHI'
p4251
S'-7.5'
p4252
ssg238
(dp4253
S'PHI'
p4254
S'-7.5'
p4255
ssg241
(dp4256
S'PHI'
p4257
S'-7.5'
p4258
ssg857
(dp4259
S'DEN'
p4260
S'-10.5'
p4261
ssg244
(dp4262
S'PHI'
p4263
S'-7.5'
p4264
ssg247
(dp4265
S'PHI'
p4266
S'-7.5'
p4267
ssg250
(dp4268
S'PHI'
p4269
S'-7.5'
p4270
ssg253
(dp4271
S'PHI'
p4272
S'-7.5'
p4273
ssg256
(dp4274
S'PHI'
p4275
S'-7.5'
p4276
ssg259
(dp4277
S'PHI'
p4278
S'-7.5'
p4279
ssg262
(dp4280
S'PHI'
p4281
S'-7.5'
p4282
ssg265
(dp4283
S'PHI'
p4284
S'-7.5'
p4285
ssg268
(dp4286
S'PHI'
p4287
S'-7.5'
p4288
ssg271
(dp4289
S'PHI'
p4290
S'-7.5'
p4291
ssg881
(dp4292
S'POR'
p4293
S'-2.5'
p4294
ssg274
(dp4295
S'PHI'
p4296
S'-7.5'
p4297
ssg277
(dp4298
S'PHI'
p4299
S'-7.5'
p4300
ssg280
(dp4301
S'PHI'
p4302
S'-7.5'
p4303
ssg283
(dp4304
S'PHI'
p4305
S'-7.5'
p4306
ssg286
(dp4307
S'PHI'
p4308
S'-7.5'
p4309
ssg289
(dp4310
S'PHI'
p4311
S'-7.5'
p4312
ssg1149
(dp4313
S'CHA'
p4314
S'-4'
p4315
ssg292
(dp4316
S'PHI'
p4317
S'-7.5'
p4318
ssg295
(dp4319
S'PHI'
p4320
S'-7.5'
p4321
ssg302
(dp4322
S'PHI'
p4323
S'-7.5'
p4324
ssg305
(dp4325
S'PHI'
p4326
S'-7.5'
p4327
ssg308
(dp4328
S'PHI'
p4329
S'-7.5'
p4330
ssg311
(dp4331
S'PHI'
p4332
S'-7.5'
p4333
ssg80
(dp4334
S'PHI'
p4335
S'-7.5'
p4336
ssg318
(dp4337
S'PHI'
p4338
S'-7.5'
p4339
ssg321
(dp4340
S'CHA'
p4341
S'-4'
p4342
ssg325
(dp4343
S'PHI'
p4344
S'-7.5'
p4345
ssg328
(dp4346
S'PHI'
p4347
S'-7.5'
p4348
ssg331
(dp4349
S'PHI'
p4350
S'-7.5'
p4351
ssg334
(dp4352
S'PHI'
p4353
S'-7.5'
p4354
ssg337
(dp4355
S'PHI'
p4356
S'-7.5'
p4357
ssg340
(dp4358
S'PHI'
p4359
S'-7.5'
p4360
ssg343
(dp4361
S'PHI'
p4362
S'-7.5'
p4363
ssg346
(dp4364
S'PHI'
p4365
S'-7.5'
p4366
ssg349
(dp4367
S'PHI'
p4368
S'-7.5'
p4369
ssg352
(dp4370
S'PHI'
p4371
S'-7.5'
p4372
sssg223
(dp4373
g3
(dp4374
g665
S'-4'
p4375
ssg7
(dp4376
S'BOS'
p4377
S'-3.5'
p4378
ssg11
(dp4379
S'BOS'
p4380
S'-2.5'
p4381
ssg15
(dp4382
S'BOS'
p4383
S'-2.5'
p4384
ssg18
(dp4385
S'BOS'
p4386
S'-2.5'
p4387
ssg21
(dp4388
S'BOS'
p4389
S'-2.5'
p4390
ssg24
(dp4391
S'BOS'
p4392
S'-2.5'
p4393
ssg377
(dp4394
S'POR'
p4395
S'-7.5'
p4396
ssg27
(dp4397
S'BOS'
p4398
S'-2.5'
p4399
ssg34
(dp4400
g49
S'-7.5'
p4401
ssg38
(dp4402
S'BOS'
p4403
S'-2.5'
p4404
ssg41
(dp4405
S'BOS'
p4406
S'-2.5'
p4407
ssg44
(dp4408
S'BOS'
p4409
S'-2.5'
p4410
ssg51
(dp4411
S'BOS'
p4412
S'-2.5'
p4413
ssg58
(dp4414
S'BOS'
p4415
S'-2.5'
p4416
ssg61
(dp4417
S'BOS'
p4418
S'-2.5'
p4419
ssg64
(dp4420
S'BOS'
p4421
S'-2.5'
p4422
ssg67
(dp4423
S'BOS'
p4424
S'-2.5'
p4425
ssg70
(dp4426
S'BOS'
p4427
S'-2.5'
p4428
ssg73
(dp4429
S'BOS'
p4430
S'-2.5'
p4431
ssg83
(dp4432
S'BOS'
p4433
S'-2.5'
p4434
ssg86
(dp4435
S'BOS'
p4436
S'-2.5'
p4437
ssg89
(dp4438
S'BOS'
p4439
S'-2.5'
p4440
ssg92
(dp4441
S'DEN'
p4442
S'-13'
p4443
ssg96
(dp4444
S'BOS'
p4445
S'-2.5'
p4446
ssg99
(dp4447
S'BOS'
p4448
S'-2.5'
p4449
ssg102
(dp4450
S'BOS'
p4451
S'-2.5'
p4452
ssg764
(dp4453
S'WAS'
p4454
S'-5.5'
p4455
ssg105
(dp4456
S'BOS'
p4457
S'-2.5'
p4458
ssg108
(dp4459
S'BOS'
p4460
S'-2.5'
p4461
ssg115
(dp4462
S'BOS'
p4463
S'-2.5'
p4464
ssg125
(dp4465
S'BOS'
p4466
S'-2.5'
p4467
ssg128
(dp4468
S'BOS'
p4469
S'-2.5'
p4470
ssg131
(dp4471
S'BOS'
p4472
S'-2.5'
p4473
ssg134
(dp4474
S'WAS'
p4475
S'-4'
p4476
ssg138
(dp4477
S'ORL'
p4478
S'-10'
p4479
ssg141
(dp4480
S'BOS'
p4481
S'-2.5'
p4482
ssg144
(dp4483
S'CHI'
p4484
S'-5'
p4485
ssg148
(dp4486
S'BOS'
p4487
S'-2.5'
p4488
ssg151
(dp4489
S'BOS'
p4490
S'-2.5'
p4491
ssg154
(dp4492
S'BOS'
p4493
S'-2.5'
p4494
ssg157
(dp4495
S'BOS'
p4496
S'-2.5'
p4497
ssg1033
(dp4498
S'MEM'
p4499
S'-3'
p4500
ssg160
(dp4501
S'BOS'
p4502
S'-2.5'
p4503
ssg163
(dp4504
S'BOS'
p4505
S'-2.5'
p4506
ssg166
(dp4507
S'BOS'
p4508
S'-2.5'
p4509
ssg1043
(dp4510
S'MIA'
p4511
g95
ssg169
(dp4512
S'BOS'
p4513
S'-2.5'
p4514
ssg172
(dp4515
S'BOS'
p4516
S'-2.5'
p4517
ssg175
(dp4518
S'BOS'
p4519
S'-2.5'
p4520
ssg178
(dp4521
S'ORL'
p4522
S'-13.5'
p4523
ssg182
(dp4524
S'BOS'
p4525
S'-2.5'
p4526
ssg185
(dp4527
S'BOS'
p4528
S'-2.5'
p4529
ssg188
(dp4530
S'BOS'
p4531
S'-2.5'
p4532
ssg191
(dp4533
S'BOS'
p4534
S'-5.5'
p4535
ssg194
(dp4536
S'BOS'
p4537
S'-2.5'
p4538
ssg197
(dp4539
S'BOS'
p4540
S'-2.5'
p4541
ssg200
(dp4542
S'BOS'
p4543
S'-2.5'
p4544
ssg203
(dp4545
S'BOS'
p4546
S'-2.5'
p4547
ssg206
(dp4548
S'BOS'
p4549
S'-2.5'
p4550
ssg209
(dp4551
S'BOS'
p4552
S'-2.5'
p4553
ssg212
(dp4554
S'BOS'
p4555
S'-2.5'
p4556
ssg215
(dp4557
S'BOS'
p4558
S'-2.5'
p4559
ssg218
(dp4560
S'BOS'
p4561
S'-2.5'
p4562
ssg221
(dp4563
S'MIL'
p4564
S'-12'
p4565
ssg844
(dp4566
S'MIN'
p4567
S'-5.5'
p4568
ssg225
(dp4569
S'BOS'
p4570
S'-2.5'
p4571
ssg228
(dp4572
S'BOS'
p4573
S'-2.5'
p4574
ssg231
(dp4575
g300
S'7.5'
p4576
ssg235
(dp4577
S'BOS'
p4578
S'-2.5'
p4579
ssg238
(dp4580
S'BOS'
p4581
S'-2.5'
p4582
ssg241
(dp4583
S'BOS'
p4584
S'-2.5'
p4585
ssg244
(dp4586
S'BOS'
p4587
S'-2.5'
p4588
ssg247
(dp4589
S'BOS'
p4590
S'-2.5'
p4591
ssg250
(dp4592
S'BOS'
p4593
S'-2.5'
p4594
ssg253
(dp4595
S'BOS'
p4596
S'-2.5'
p4597
ssg256
(dp4598
S'BOS'
p4599
S'-2.5'
p4600
ssg259
(dp4601
S'BOS'
p4602
S'-2.5'
p4603
ssg262
(dp4604
S'BOS'
p4605
S'-2.5'
p4606
ssS'FEB 05, 2015'
p4607
(dp4608
S'LAC'
p4609
g14
ssg265
(dp4610
S'BOS'
p4611
S'-2.5'
p4612
ssg268
(dp4613
S'BOS'
p4614
S'-2.5'
p4615
ssg271
(dp4616
S'BOS'
p4617
S'-2.5'
p4618
ssg881
(dp4619
S'LAL'
p4620
S'-12'
p4621
ssg274
(dp4622
S'BOS'
p4623
S'-2.5'
p4624
ssg277
(dp4625
S'BOS'
p4626
S'-2.5'
p4627
ssg280
(dp4628
S'BOS'
p4629
S'-2.5'
p4630
ssg283
(dp4631
S'BOS'
p4632
S'-2.5'
p4633
ssg1142
(dp4634
S'POR'
p4635
S'-4.5'
p4636
ssg286
(dp4637
S'BOS'
p4638
S'-2.5'
p4639
ssg289
(dp4640
S'BOS'
p4641
S'-2.5'
p4642
ssg292
(dp4643
S'BOS'
p4644
S'-2.5'
p4645
ssg295
(dp4646
S'BOS'
p4647
S'-2.5'
p4648
ssg298
(dp4649
S'SAC'
p4650
S'-10.5'
p4651
ssg302
(dp4652
S'BOS'
p4653
S'-2.5'
p4654
ssg305
(dp4655
S'BOS'
p4656
S'-2.5'
p4657
ssg308
(dp4658
S'BOS'
p4659
S'-2.5'
p4660
ssg311
(dp4661
S'BOS'
p4662
S'-2.5'
p4663
ssg80
(dp4664
S'BOS'
p4665
S'-2.5'
p4666
ssg318
(dp4667
S'BOS'
p4668
S'-2.5'
p4669
ssg325
(dp4670
S'BOS'
p4671
S'-2.5'
p4672
ssg1178
(dp4673
S'MIA'
p4674
g95
ssg328
(dp4675
S'BOS'
p4676
S'-2.5'
p4677
ssg331
(dp4678
S'BOS'
p4679
S'-2.5'
p4680
ssg334
(dp4681
S'BOS'
p4682
S'-2.5'
p4683
ssg337
(dp4684
S'BOS'
p4685
S'-2.5'
p4686
ssg340
(dp4687
S'BOS'
p4688
S'-2.5'
p4689
ssg343
(dp4690
S'BOS'
p4691
S'-2.5'
p4692
ssg346
(dp4693
S'BOS'
p4694
S'-2.5'
p4695
ssg349
(dp4696
S'BOS'
p4697
S'-2.5'
p4698
ssg352
(dp4699
S'BOS'
p4700
S'-2.5'
p4701
sssg1530
(dp4702
g3
(dp4703
g1527
S'-5'
p4704
ssg7
(dp4705
g36
S'7.5'
p4706
ssg11
(dp4707
g49
S'-1'
p4708
ssg15
(dp4709
g49
S'-1'
p4710
ssg18
(dp4711
g49
S'-1'
p4712
ssg21
(dp4713
g49
S'-1'
p4714
ssg24
(dp4715
g49
S'-1'
p4716
ssg377
(dp4717
S'WAS'
p4718
g79
ssg27
(dp4719
g49
S'-1'
p4720
ssg30
(dp4721
S'PHI'
p4722
S'-6.5'
p4723
ssg38
(dp4724
g49
S'-1'
p4725
ssg41
(dp4726
g49
S'-1'
p4727
ssg44
(dp4728
g49
S'-1'
p4729
ssg51
(dp4730
g49
S'-1'
p4731
ssg54
(dp4732
S'CLE'
p4733
S'1.5'
p4734
ssg58
(dp4735
g49
S'-1'
p4736
ssg61
(dp4737
g49
S'-1'
p4738
ssg64
(dp4739
g49
S'-1'
p4740
ssg67
(dp4741
g49
S'-1'
p4742
ssg70
(dp4743
g49
S'-1'
p4744
ssg73
(dp4745
g49
S'-1'
p4746
ssg80
(dp4747
g49
S'-1'
p4748
ssg83
(dp4749
g49
S'-1'
p4750
ssg86
(dp4751
g49
S'-1'
p4752
ssg89
(dp4753
g49
S'-1'
p4754
ssg92
(dp4755
S'IND'
p4756
S'4.5'
p4757
ssg96
(dp4758
g49
S'-1'
p4759
ssg99
(dp4760
g49
S'-1'
p4761
ssg102
(dp4762
g49
S'-1'
p4763
ssg764
(dp4764
S'ORL'
p4765
g1036
ssg105
(dp4766
g49
S'-1'
p4767
ssg108
(dp4768
g49
S'-1'
p4769
ssg115
(dp4770
g49
S'-1'
p4771
ssg118
(dp4772
S'LAL'
p4773
S'-9'
p4774
ssg122
(dp4775
S'WAS'
p4776
g10
ssg125
(dp4777
g49
S'-1'
p4778
ssg128
(dp4779
g49
S'-1'
p4780
ssg131
(dp4781
g49
S'-1'
p4782
ssg138
(dp4783
S'DET'
p4784
S'-5.5'
p4785
ssg141
(dp4786
g49
S'-1'
p4787
ssg148
(dp4788
g49
S'-1'
p4789
ssg151
(dp4790
g49
S'-1'
p4791
ssg154
(dp4792
g49
S'-1'
p4793
ssg157
(dp4794
g49
S'-1'
p4795
ssg160
(dp4796
g49
S'-1'
p4797
ssg163
(dp4798
g49
S'-1'
p4799
ssg166
(dp4800
g49
S'-1'
p4801
ssg169
(dp4802
g49
S'-1'
p4803
ssg3605
(dp4804
S'ORL'
p4805
g968
ssg172
(dp4806
g49
S'-1'
p4807
ssg175
(dp4808
g49
S'-1'
p4809
ssg1054
(dp4810
S'DAL'
p4811
g1036
ssg182
(dp4812
g49
S'-1'
p4813
ssg185
(dp4814
g49
S'-1'
p4815
ssg188
(dp4816
g49
S'-1'
p4817
ssg289
(dp4818
g49
S'-1'
p4819
ssg194
(dp4820
g49
S'-1'
p4821
ssg197
(dp4822
g49
S'-1'
p4823
ssg200
(dp4824
g49
S'-1'
p4825
ssg203
(dp4826
g49
S'-1'
p4827
ssg206
(dp4828
g49
S'-1'
p4829
ssg551
(dp4830
S'ORL'
p4831
S'-1.5'
p4832
ssg1078
(dp4833
S'MIA'
p4834
g380
ssg209
(dp4835
g49
S'-1'
p4836
ssg212
(dp4837
g49
S'-1'
p4838
ssg215
(dp4839
g49
S'-1'
p4840
ssg218
(dp4841
g49
S'-1'
p4842
ssg221
(dp4843
g300
g1741
ssg225
(dp4844
g49
S'-1'
p4845
ssg191
(dp4846
S'ATL'
p4847
g968
ssg228
(dp4848
g49
S'-1'
p4849
ssg231
(dp4850
S'POR'
p4851
S'6.5'
p4852
ssg235
(dp4853
g49
S'-1'
p4854
ssg238
(dp4855
g49
S'-1'
p4856
ssg241
(dp4857
g49
S'-1'
p4858
ssg244
(dp4859
g49
S'-1'
p4860
ssg247
(dp4861
g49
S'-1'
p4862
ssg250
(dp4863
g49
S'-1'
p4864
ssg253
(dp4865
g49
S'-1'
p4866
ssg256
(dp4867
g49
S'-1'
p4868
ssg259
(dp4869
g49
S'-1'
p4870
ssg262
(dp4871
g49
S'-1'
p4872
ssg265
(dp4873
g49
S'-1'
p4874
ssg268
(dp4875
g49
S'-1'
p4876
ssg271
(dp4877
g49
S'-1'
p4878
ssg881
(dp4879
S'MEM'
p4880
S'10'
p4881
ssg274
(dp4882
g49
S'-1'
p4883
ssg277
(dp4884
g49
S'-1'
p4885
ssg280
(dp4886
g49
S'-1'
p4887
ssg283
(dp4888
g49
S'-1'
p4889
ssg286
(dp4890
g49
S'-1'
p4891
ssg1149
(dp4892
S'CHI'
p4893
g1036
ssg292
(dp4894
g49
S'-1'
p4895
ssg295
(dp4896
g49
S'-1'
p4897
ssg298
(dp4898
g36
S'5.5'
p4899
ssg302
(dp4900
g49
S'-1'
p4901
ssg305
(dp4902
g49
S'-1'
p4903
ssg308
(dp4904
g49
S'-1'
p4905
ssg311
(dp4906
g49
S'-1'
p4907
ssg314
(dp4908
S'PHI'
p4909
S'-12'
p4910
ssg318
(dp4911
g49
S'-1'
p4912
ssg321
(dp4913
S'CHI'
p4914
g1036
ssg325
(dp4915
g49
S'-1'
p4916
ssg328
(dp4917
g49
S'-1'
p4918
ssg331
(dp4919
g49
S'-1'
p4920
ssg334
(dp4921
g49
S'-1'
p4922
ssg337
(dp4923
g49
S'-1'
p4924
ssg340
(dp4925
g49
S'-1'
p4926
ssg343
(dp4927
g49
S'-1'
p4928
ssg346
(dp4929
g49
S'-1'
p4930
ssg349
(dp4931
g49
S'-1'
p4932
ssg352
(dp4933
g49
S'-1'
p4934
sssg3260
(dp4935
g3
(dp4936
g3257
S'8.5'
p4937
ssg7
(dp4938
S'PHI'
p4939
S'-8'
p4940
ssg11
(dp4941
S'ATL'
p4942
S'-2.5'
p4943
ssg15
(dp4944
S'ATL'
p4945
S'-2.5'
p4946
ssg18
(dp4947
S'ATL'
p4948
S'-2.5'
p4949
ssg21
(dp4950
S'ATL'
p4951
S'-2.5'
p4952
ssg24
(dp4953
S'ATL'
p4954
S'-2.5'
p4955
ssg377
(dp4956
S'DAL'
p4957
S'4.5'
p4958
ssg27
(dp4959
S'ATL'
p4960
S'-2.5'
p4961
ssg30
(dp4962
g665
S'1.5'
p4963
ssg38
(dp4964
S'ATL'
p4965
S'-2.5'
p4966
ssg41
(dp4967
S'ATL'
p4968
S'-2.5'
p4969
ssg44
(dp4970
S'ATL'
p4971
S'-2.5'
p4972
ssg51
(dp4973
S'ATL'
p4974
S'-2.5'
p4975
ssg54
(dp4976
S'ATL'
p4977
S'4.5'
p4978
ssg58
(dp4979
S'ATL'
p4980
S'-2.5'
p4981
ssg736
(dp4982
S'ATL'
p4983
g380
ssg61
(dp4984
S'ATL'
p4985
S'-2.5'
p4986
ssg64
(dp4987
S'ATL'
p4988
S'-2.5'
p4989
ssg67
(dp4990
S'ATL'
p4991
S'-2.5'
p4992
ssg70
(dp4993
S'ATL'
p4994
S'-2.5'
p4995
ssg73
(dp4996
S'ATL'
p4997
S'-2.5'
p4998
ssg80
(dp4999
S'ATL'
p5000
S'-2.5'
p5001
ssg83
(dp5002
S'ATL'
p5003
S'-2.5'
p5004
ssg86
(dp5005
S'ATL'
p5006
S'-2.5'
p5007
ssg89
(dp5008
S'ATL'
p5009
S'-2.5'
p5010
ssg96
(dp5011
S'ATL'
p5012
S'-2.5'
p5013
ssg99
(dp5014
S'ATL'
p5015
S'-2.5'
p5016
ssg102
(dp5017
S'ATL'
p5018
S'-2.5'
p5019
ssg764
(dp5020
S'MIN'
p5021
S'1.5'
p5022
ssg105
(dp5023
S'ATL'
p5024
S'-2.5'
p5025
ssg108
(dp5026
S'ATL'
p5027
S'-2.5'
p5028
ssg115
(dp5029
S'ATL'
p5030
S'-2.5'
p5031
ssg118
(dp5032
S'MEM'
p5033
g380
ssg125
(dp5034
S'ATL'
p5035
S'-2.5'
p5036
ssg128
(dp5037
S'ATL'
p5038
S'-2.5'
p5039
ssg131
(dp5040
S'ATL'
p5041
S'-2.5'
p5042
ssg134
(dp5043
S'POR'
p5044
S'-7'
p5045
ssg138
(dp5046
S'DEN'
p5047
S'-5'
p5048
ssg247
(dp5049
S'ATL'
p5050
S'-2.5'
p5051
ssg148
(dp5052
S'ATL'
p5053
S'-2.5'
p5054
ssg151
(dp5055
S'ATL'
p5056
S'-2.5'
p5057
ssg154
(dp5058
S'ATL'
p5059
S'-2.5'
p5060
ssg157
(dp5061
S'ATL'
p5062
S'-2.5'
p5063
ssg1033
(dp5064
S'ORL'
p5065
S'-4'
p5066
ssg160
(dp5067
S'ATL'
p5068
S'-2.5'
p5069
ssg163
(dp5070
S'ATL'
p5071
S'-2.5'
p5072
ssg166
(dp5073
S'ATL'
p5074
S'-2.5'
p5075
ssg169
(dp5076
S'ATL'
p5077
S'-2.5'
p5078
ssg172
(dp5079
S'ATL'
p5080
S'-2.5'
p5081
ssg175
(dp5082
S'ATL'
p5083
S'-2.5'
p5084
ssg178
(dp5085
S'MEM'
p5086
S'6.5'
p5087
ssg1054
(dp5088
S'LAL'
p5089
g968
ssg182
(dp5090
S'ATL'
p5091
S'-2.5'
p5092
ssg185
(dp5093
S'ATL'
p5094
S'-2.5'
p5095
ssg188
(dp5096
S'ATL'
p5097
S'-2.5'
p5098
ssg289
(dp5099
S'ATL'
p5100
S'-2.5'
p5101
ssg194
(dp5102
S'ATL'
p5103
S'-2.5'
p5104
ssg197
(dp5105
S'ATL'
p5106
S'-2.5'
p5107
ssg200
(dp5108
S'ATL'
p5109
S'-2.5'
p5110
ssg203
(dp5111
S'ATL'
p5112
S'-2.5'
p5113
ssg206
(dp5114
S'ATL'
p5115
S'-2.5'
p5116
ssg1078
(dp5117
S'LAL'
p5118
S'-3'
p5119
ssg209
(dp5120
S'ATL'
p5121
S'-2.5'
p5122
ssg212
(dp5123
S'ATL'
p5124
S'-2.5'
p5125
ssg215
(dp5126
S'ATL'
p5127
S'-2.5'
p5128
ssg218
(dp5129
S'ATL'
p5130
S'-2.5'
p5131
ssg225
(dp5132
S'ATL'
p5133
S'-2.5'
p5134
ssg228
(dp5135
S'ATL'
p5136
S'-2.5'
p5137
ssg235
(dp5138
S'ATL'
p5139
S'-2.5'
p5140
ssg238
(dp5141
S'ATL'
p5142
S'-2.5'
p5143
ssg241
(dp5144
S'ATL'
p5145
S'-2.5'
p5146
ssg244
(dp5147
S'ATL'
p5148
S'-2.5'
p5149
ssg141
(dp5150
S'ATL'
p5151
S'-2.5'
p5152
ssg593
(dp5153
S'POR'
p5154
S'8.5'
p5155
ssg250
(dp5156
S'ATL'
p5157
S'-2.5'
p5158
ssg253
(dp5159
S'ATL'
p5160
S'-2.5'
p5161
ssg256
(dp5162
S'ATL'
p5163
S'-2.5'
p5164
ssg259
(dp5165
S'ATL'
p5166
S'-2.5'
p5167
ssg262
(dp5168
S'ATL'
p5169
S'-2.5'
p5170
ssg265
(dp5171
S'ATL'
p5172
S'-2.5'
p5173
ssg268
(dp5174
S'ATL'
p5175
S'-2.5'
p5176
ssg271
(dp5177
S'ATL'
p5178
S'-2.5'
p5179
ssg881
(dp5180
S'MIA'
p5181
S'-1.5'
p5182
ssg274
(dp5183
S'ATL'
p5184
S'-2.5'
p5185
ssg277
(dp5186
S'ATL'
p5187
S'-2.5'
p5188
ssg280
(dp5189
S'ATL'
p5190
S'-2.5'
p5191
ssg283
(dp5192
S'ATL'
p5193
S'-2.5'
p5194
ssg286
(dp5195
S'ATL'
p5196
S'-2.5'
p5197
ssg292
(dp5198
S'ATL'
p5199
S'-2.5'
p5200
ssg295
(dp5201
S'ATL'
p5202
S'-2.5'
p5203
ssg298
(dp5204
S'BOS'
p5205
g361
ssg302
(dp5206
S'ATL'
p5207
S'-2.5'
p5208
ssg305
(dp5209
S'ATL'
p5210
S'-2.5'
p5211
ssg308
(dp5212
S'ATL'
p5213
S'-2.5'
p5214
ssg311
(dp5215
S'ATL'
p5216
S'-2.5'
p5217
ssg314
(dp5218
S'DEN'
p5219
S'9.5'
p5220
ssg318
(dp5221
S'ATL'
p5222
S'-2.5'
p5223
ssg325
(dp5224
S'ATL'
p5225
S'-2.5'
p5226
ssg328
(dp5227
S'ATL'
p5228
S'-2.5'
p5229
ssg331
(dp5230
S'ATL'
p5231
S'-2.5'
p5232
ssg334
(dp5233
S'ATL'
p5234
S'-2.5'
p5235
ssg337
(dp5236
S'ATL'
p5237
S'-2.5'
p5238
ssg340
(dp5239
S'ATL'
p5240
S'-2.5'
p5241
ssg343
(dp5242
S'ATL'
p5243
S'-2.5'
p5244
ssg346
(dp5245
S'ATL'
p5246
S'-2.5'
p5247
ssg349
(dp5248
S'ATL'
p5249
S'-2.5'
p5250
ssg352
(dp5251
S'ATL'
p5252
S'-2.5'
p5253
sssg5
(dp5254
g3
(dp5255
g1
S'-4.5'
p5256
ssg7
(dp5257
S'DET'
p5258
g10
ssg11
(dp5259
S'DAL'
p5260
S'-14.5'
p5261
ssg15
(dp5262
S'DAL'
p5263
S'-14.5'
p5264
ssg18
(dp5265
S'DAL'
p5266
S'-14.5'
p5267
ssg21
(dp5268
S'DAL'
p5269
S'-14.5'
p5270
ssg24
(dp5271
S'DAL'
p5272
S'-14.5'
p5273
ssg377
(dp5274
g665
g10
ssg27
(dp5275
S'DAL'
p5276
S'-14.5'
p5277
ssg387
(dp5278
g300
g79
ssg34
(dp5279
S'PHI'
p5280
S'-13'
p5281
ssg38
(dp5282
S'DAL'
p5283
S'-14.5'
p5284
ssg41
(dp5285
S'DAL'
p5286
S'-14.5'
p5287
ssg44
(dp5288
S'DAL'
p5289
S'-14.5'
p5290
ssg47
(dp5291
S'DAL'
p5292
S'7.5'
p5293
ssg51
(dp5294
S'DAL'
p5295
S'-14.5'
p5296
ssg54
(dp5297
S'CHA'
p5298
S'-1.5'
p5299
ssg58
(dp5300
S'DAL'
p5301
S'-14.5'
p5302
ssg61
(dp5303
S'DAL'
p5304
S'-14.5'
p5305
ssg64
(dp5306
S'DAL'
p5307
S'-14.5'
p5308
ssg67
(dp5309
S'DAL'
p5310
S'-14.5'
p5311
ssg70
(dp5312
S'DAL'
p5313
S'-14.5'
p5314
ssg73
(dp5315
S'DAL'
p5316
S'-14.5'
p5317
ssg76
(dp5318
S'MIA'
p5319
S'-5.5'
p5320
ssg80
(dp5321
S'DAL'
p5322
S'-14.5'
p5323
ssg4110
(dp5324
S'CHI'
p5325
S'-4.5'
p5326
ssg83
(dp5327
S'DAL'
p5328
S'-14.5'
p5329
ssg86
(dp5330
S'DAL'
p5331
S'-14.5'
p5332
ssg89
(dp5333
S'DAL'
p5334
S'-14.5'
p5335
ssg96
(dp5336
S'DAL'
p5337
S'-14.5'
p5338
ssg99
(dp5339
S'DAL'
p5340
S'-14.5'
p5341
ssg102
(dp5342
S'DAL'
p5343
S'-14.5'
p5344
ssg105
(dp5345
S'DAL'
p5346
S'-14.5'
p5347
ssg108
(dp5348
S'DAL'
p5349
S'-14.5'
p5350
ssg111
(dp5351
g9
S'-4.5'
p5352
ssg458
(dp5353
g300
g79
ssg115
(dp5354
S'DAL'
p5355
S'-14.5'
p5356
ssg118
(dp5357
S'BOS'
p5358
S'-11'
p5359
ssg122
(dp5360
S'PHI'
p5361
S'-17'
p5362
ssg125
(dp5363
S'DAL'
p5364
S'-14.5'
p5365
ssg128
(dp5366
S'DAL'
p5367
S'-14.5'
p5368
ssg131
(dp5369
S'DAL'
p5370
S'-14.5'
p5371
ssg134
(dp5372
g49
S'-10.5'
p5373
ssg247
(dp5374
S'DAL'
p5375
S'-14.5'
p5376
ssg148
(dp5377
S'DAL'
p5378
S'-14.5'
p5379
ssg151
(dp5380
S'DAL'
p5381
S'-14.5'
p5382
ssg154
(dp5383
S'DAL'
p5384
S'-14.5'
p5385
ssg157
(dp5386
S'DAL'
p5387
S'-14.5'
p5388
ssg799
(dp5389
S'WAS'
p5390
S'-8.5'
p5391
ssg160
(dp5392
S'DAL'
p5393
S'-14.5'
p5394
ssg163
(dp5395
S'DAL'
p5396
S'-14.5'
p5397
ssg166
(dp5398
S'DAL'
p5399
S'-14.5'
p5400
ssg169
(dp5401
S'DAL'
p5402
S'-14.5'
p5403
ssg172
(dp5404
S'DAL'
p5405
S'-14.5'
p5406
ssg175
(dp5407
S'DAL'
p5408
S'-14.5'
p5409
ssg516
(dp5410
g300
g79
ssg1054
(dp5411
S'SAC'
p5412
S'1.5'
p5413
ssg182
(dp5414
S'DAL'
p5415
S'-14.5'
p5416
ssg185
(dp5417
S'DAL'
p5418
S'-14.5'
p5419
ssg188
(dp5420
S'DAL'
p5421
S'-14.5'
p5422
ssg289
(dp5423
S'DAL'
p5424
S'-14.5'
p5425
ssg194
(dp5426
S'DAL'
p5427
S'-14.5'
p5428
ssg197
(dp5429
S'DAL'
p5430
S'-14.5'
p5431
ssg200
(dp5432
S'DAL'
p5433
S'-14.5'
p5434
ssg203
(dp5435
S'DAL'
p5436
S'-14.5'
p5437
ssg206
(dp5438
S'DAL'
p5439
S'-14.5'
p5440
ssg551
(dp5441
g704
S'-0'
p5442
ssg209
(dp5443
S'DAL'
p5444
S'-14.5'
p5445
ssg212
(dp5446
S'DAL'
p5447
S'-14.5'
p5448
ssg215
(dp5449
S'DAL'
p5450
S'-14.5'
p5451
ssg218
(dp5452
S'DAL'
p5453
S'-14.5'
p5454
ssg844
(dp5455
S'SAC'
p5456
g14
ssg225
(dp5457
S'DAL'
p5458
S'-14.5'
p5459
ssg228
(dp5460
S'DAL'
p5461
S'-14.5'
p5462
ssg235
(dp5463
S'DAL'
p5464
S'-14.5'
p5465
ssg238
(dp5466
S'DAL'
p5467
S'-14.5'
p5468
ssg241
(dp5469
S'DAL'
p5470
S'-14.5'
p5471
ssg244
(dp5472
S'DAL'
p5473
S'-14.5'
p5474
ssg141
(dp5475
S'DAL'
p5476
S'-14.5'
p5477
ssg250
(dp5478
S'DAL'
p5479
S'-14.5'
p5480
ssg253
(dp5481
S'DAL'
p5482
S'-14.5'
p5483
ssg256
(dp5484
S'DAL'
p5485
S'-14.5'
p5486
ssg259
(dp5487
S'DAL'
p5488
S'-14.5'
p5489
ssg262
(dp5490
S'DAL'
p5491
S'-14.5'
p5492
ssg265
(dp5493
S'DAL'
p5494
S'-14.5'
p5495
ssg268
(dp5496
S'DAL'
p5497
S'-14.5'
p5498
ssg271
(dp5499
S'DAL'
p5500
S'-14.5'
p5501
ssg881
(dp5502
g9
S'1.5'
p5503
ssg274
(dp5504
S'DAL'
p5505
S'-14.5'
p5506
ssS'NOV 12, 2014'
p5507
(dp5508
S'OKC'
p5509
g380
ssg277
(dp5510
S'DAL'
p5511
S'-14.5'
p5512
ssg280
(dp5513
S'DAL'
p5514
S'-14.5'
p5515
ssg283
(dp5516
S'DAL'
p5517
S'-14.5'
p5518
ssg286
(dp5519
S'DAL'
p5520
S'-14.5'
p5521
ssg292
(dp5522
S'DAL'
p5523
S'-14.5'
p5524
ssg295
(dp5525
S'DAL'
p5526
S'-14.5'
p5527
ssg298
(dp5528
S'TOR'
p5529
S'-5'
p5530
ssg302
(dp5531
S'DAL'
p5532
S'-14.5'
p5533
ssg305
(dp5534
S'DAL'
p5535
S'-14.5'
p5536
ssg308
(dp5537
S'DAL'
p5538
S'-14.5'
p5539
ssg311
(dp5540
S'DAL'
p5541
S'-14.5'
p5542
ssg314
(dp5543
S'BOS'
p5544
S'-9'
p5545
ssg318
(dp5546
S'DAL'
p5547
S'-14.5'
p5548
ssg663
(dp5549
S'MIA'
p5550
S'-9.5'
p5551
ssg325
(dp5552
S'DAL'
p5553
S'-14.5'
p5554
ssg328
(dp5555
S'DAL'
p5556
S'-14.5'
p5557
ssg673
(dp5558
g300
g79
ssg331
(dp5559
S'DAL'
p5560
S'-14.5'
p5561
ssg334
(dp5562
S'DAL'
p5563
S'-14.5'
p5564
ssg337
(dp5565
S'DAL'
p5566
S'-14.5'
p5567
ssg340
(dp5568
S'DAL'
p5569
S'-14.5'
p5570
ssg343
(dp5571
S'DAL'
p5572
S'-14.5'
p5573
ssg346
(dp5574
S'DAL'
p5575
S'-14.5'
p5576
ssg349
(dp5577
S'DAL'
p5578
S'-14.5'
p5579
ssg352
(dp5580
S'DAL'
p5581
S'-14.5'
p5582
sssg704
(dp5583
g3
(dp5584
g701
S'-3'
p5585
ssg7
(dp5586
S'WAS'
p5587
S'-8.5'
p5588
ssg11
(dp5589
S'SAC'
p5590
S'-3'
p5591
ssg15
(dp5592
S'SAC'
p5593
S'-3'
p5594
ssg18
(dp5595
S'SAC'
p5596
S'-3'
p5597
ssg21
(dp5598
S'SAC'
p5599
S'-3'
p5600
ssg24
(dp5601
S'SAC'
p5602
S'-3'
p5603
ssg27
(dp5604
S'SAC'
p5605
S'-3'
p5606
ssg34
(dp5607
S'OKC'
p5608
S'4.5'
p5609
ssg38
(dp5610
S'SAC'
p5611
S'-3'
p5612
ssg41
(dp5613
S'SAC'
p5614
S'-3'
p5615
ssg44
(dp5616
S'SAC'
p5617
S'-3'
p5618
ssg51
(dp5619
S'SAC'
p5620
S'-3'
p5621
ssg54
(dp5622
g9
S'-2'
p5623
ssg58
(dp5624
S'SAC'
p5625
S'-3'
p5626
ssg736
(dp5627
S'MIN'
p5628
S'-6.5'
p5629
ssg61
(dp5630
S'SAC'
p5631
S'-3'
p5632
ssg64
(dp5633
S'SAC'
p5634
S'-3'
p5635
ssg67
(dp5636
S'SAC'
p5637
S'-3'
p5638
ssg70
(dp5639
S'SAC'
p5640
S'-3'
p5641
ssg73
(dp5642
S'SAC'
p5643
S'-3'
p5644
ssg80
(dp5645
S'SAC'
p5646
S'-3'
p5647
ssg4110
(dp5648
S'LAC'
p5649
S'-7.5'
p5650
ssg83
(dp5651
S'SAC'
p5652
S'-3'
p5653
ssg86
(dp5654
S'SAC'
p5655
S'-3'
p5656
ssg89
(dp5657
S'SAC'
p5658
S'-3'
p5659
ssg96
(dp5660
S'SAC'
p5661
S'-3'
p5662
ssg99
(dp5663
S'SAC'
p5664
S'-3'
p5665
ssg102
(dp5666
S'SAC'
p5667
S'-3'
p5668
ssg764
(dp5669
S'MIA'
p5670
S'-6.5'
p5671
ssg105
(dp5672
S'SAC'
p5673
S'-3'
p5674
ssg108
(dp5675
S'SAC'
p5676
S'-3'
p5677
ssg111
(dp5678
S'DAL'
p5679
g95
ssg115
(dp5680
S'SAC'
p5681
S'-3'
p5682
ssg118
(dp5683
S'ATL'
p5684
S'8.5'
p5685
ssg125
(dp5686
S'SAC'
p5687
S'-3'
p5688
ssg128
(dp5689
S'SAC'
p5690
S'-3'
p5691
ssg131
(dp5692
S'SAC'
p5693
S'-3'
p5694
ssg134
(dp5695
S'ORL'
p5696
S'-9'
p5697
ssg138
(dp5698
S'SAC'
p5699
S'-10.5'
p5700
ssg247
(dp5701
S'SAC'
p5702
S'-3'
p5703
ssg144
(dp5704
S'OKC'
p5705
S'4.5'
p5706
ssg148
(dp5707
S'SAC'
p5708
S'-3'
p5709
ssg151
(dp5710
S'SAC'
p5711
S'-3'
p5712
ssg154
(dp5713
S'SAC'
p5714
S'-3'
p5715
ssg157
(dp5716
S'SAC'
p5717
S'-3'
p5718
ssg160
(dp5719
S'SAC'
p5720
S'-3'
p5721
ssg163
(dp5722
S'SAC'
p5723
S'-3'
p5724
ssg166
(dp5725
S'SAC'
p5726
S'-3'
p5727
ssg169
(dp5728
S'SAC'
p5729
S'-3'
p5730
ssg172
(dp5731
S'SAC'
p5732
S'-3'
p5733
ssg175
(dp5734
S'SAC'
p5735
S'-3'
p5736
ssg178
(dp5737
S'CHI'
p5738
S'-3'
p5739
ssg182
(dp5740
S'SAC'
p5741
S'-3'
p5742
ssg185
(dp5743
S'SAC'
p5744
S'-3'
p5745
ssg188
(dp5746
S'SAC'
p5747
S'-3'
p5748
ssg191
(dp5749
S'MIA'
p5750
g1036
ssg194
(dp5751
S'SAC'
p5752
S'-3'
p5753
ssg197
(dp5754
S'SAC'
p5755
S'-3'
p5756
ssg200
(dp5757
S'SAC'
p5758
S'-3'
p5759
ssg203
(dp5760
S'SAC'
p5761
S'-3'
p5762
ssg206
(dp5763
S'SAC'
p5764
S'-3'
p5765
ssg551
(dp5766
S'CLE'
p5767
S'0'
p5768
ssg209
(dp5769
S'SAC'
p5770
S'-3'
p5771
ssg212
(dp5772
S'SAC'
p5773
S'-3'
p5774
ssg215
(dp5775
S'SAC'
p5776
S'-3'
p5777
ssg218
(dp5778
S'SAC'
p5779
S'-3'
p5780
ssg221
(dp5781
g9
S'-3.5'
p5782
ssg225
(dp5783
S'SAC'
p5784
S'-3'
p5785
ssg228
(dp5786
S'SAC'
p5787
S'-3'
p5788
ssg235
(dp5789
S'SAC'
p5790
S'-3'
p5791
ssg238
(dp5792
S'SAC'
p5793
S'-3'
p5794
ssg241
(dp5795
S'SAC'
p5796
S'-3'
p5797
ssg244
(dp5798
S'SAC'
p5799
S'-3'
p5800
ssg141
(dp5801
S'SAC'
p5802
S'-3'
p5803
ssg250
(dp5804
S'SAC'
p5805
S'-3'
p5806
ssg253
(dp5807
S'SAC'
p5808
S'-3'
p5809
ssg256
(dp5810
S'SAC'
p5811
S'-3'
p5812
ssg259
(dp5813
S'SAC'
p5814
S'-3'
p5815
ssg262
(dp5816
S'SAC'
p5817
S'-3'
p5818
ssg265
(dp5819
S'SAC'
p5820
S'-3'
p5821
ssg268
(dp5822
S'SAC'
p5823
S'-3'
p5824
ssg271
(dp5825
S'SAC'
p5826
S'-3'
p5827
ssg274
(dp5828
S'SAC'
p5829
S'-3'
p5830
ssg5507
(dp5831
S'SAC'
p5832
S'-1'
p5833
ssg277
(dp5834
S'SAC'
p5835
S'-3'
p5836
ssg280
(dp5837
S'SAC'
p5838
S'-3'
p5839
ssg283
(dp5840
S'SAC'
p5841
S'-3'
p5842
ssg286
(dp5843
S'SAC'
p5844
S'-3'
p5845
ssg289
(dp5846
S'SAC'
p5847
S'-3'
p5848
ssg292
(dp5849
S'SAC'
p5850
S'-3'
p5851
ssg295
(dp5852
S'SAC'
p5853
S'-3'
p5854
ssg298
(dp5855
S'MEM'
p5856
S'-3'
p5857
ssg302
(dp5858
S'SAC'
p5859
S'-3'
p5860
ssg305
(dp5861
S'SAC'
p5862
S'-3'
p5863
ssg308
(dp5864
S'SAC'
p5865
S'-3'
p5866
ssg311
(dp5867
S'SAC'
p5868
S'-3'
p5869
ssg314
(dp5870
g9
S'-15'
p5871
ssg318
(dp5872
S'SAC'
p5873
S'-3'
p5874
ssg321
(dp5875
S'WAS'
p5876
S'-2'
p5877
ssg663
(dp5878
S'DAL'
p5879
S'2.5'
p5880
ssg325
(dp5881
S'SAC'
p5882
S'-3'
p5883
ssg328
(dp5884
S'SAC'
p5885
S'-3'
p5886
ssg331
(dp5887
S'SAC'
p5888
S'-3'
p5889
ssg334
(dp5890
S'SAC'
p5891
S'-3'
p5892
ssg337
(dp5893
S'SAC'
p5894
S'-3'
p5895
ssg340
(dp5896
S'SAC'
p5897
S'-3'
p5898
ssg343
(dp5899
S'SAC'
p5900
S'-3'
p5901
ssg346
(dp5902
S'SAC'
p5903
S'-3'
p5904
ssg349
(dp5905
S'SAC'
p5906
S'-3'
p5907
ssg352
(dp5908
S'SAC'
p5909
S'-3'
p5910
sssg3501
(dp5911
g3
(dp5912
g3498
S'-7.5'
p5913
ssg7
(dp5914
g704
S'8.5'
p5915
ssg11
(dp5916
S'ORL'
p5917
S'-1'
p5918
ssg15
(dp5919
S'ORL'
p5920
S'-1'
p5921
ssg18
(dp5922
S'ORL'
p5923
S'-1'
p5924
ssg21
(dp5925
S'ORL'
p5926
S'-1'
p5927
ssg24
(dp5928
S'ORL'
p5929
S'-1'
p5930
ssg377
(dp5931
S'CHA'
p5932
S'-6'
p5933
ssg27
(dp5934
S'ORL'
p5935
S'-1'
p5936
ssg30
(dp5937
S'MEM'
p5938
g10
ssg38
(dp5939
S'ORL'
p5940
S'-1'
p5941
ssg41
(dp5942
S'ORL'
p5943
S'-1'
p5944
ssg44
(dp5945
S'ORL'
p5946
S'-1'
p5947
ssg51
(dp5948
S'ORL'
p5949
S'-1'
p5950
ssg54
(dp5951
S'OKC'
p5952
S'7.5'
p5953
ssg58
(dp5954
S'ORL'
p5955
S'-1'
p5956
ssg736
(dp5957
S'DET'
p5958
S'-6'
p5959
ssg61
(dp5960
S'ORL'
p5961
S'-1'
p5962
ssg64
(dp5963
S'ORL'
p5964
S'-1'
p5965
ssg67
(dp5966
S'ORL'
p5967
S'-1'
p5968
ssg70
(dp5969
S'ORL'
p5970
S'-1'
p5971
ssg73
(dp5972
S'ORL'
p5973
S'-1'
p5974
ssg80
(dp5975
S'ORL'
p5976
S'-1'
p5977
ssg83
(dp5978
S'ORL'
p5979
S'-1'
p5980
ssg86
(dp5981
S'ORL'
p5982
S'-1'
p5983
ssg89
(dp5984
S'ORL'
p5985
S'-1'
p5986
ssg92
(dp5987
g49
S'-14.5'
p5988
ssg439
(dp5989
S'DET'
p5990
S'-3'
p5991
ssg96
(dp5992
S'ORL'
p5993
S'-1'
p5994
ssg99
(dp5995
S'ORL'
p5996
S'-1'
p5997
ssg102
(dp5998
S'ORL'
p5999
S'-1'
p6000
ssg764
(dp6001
g223
S'5.5'
p6002
ssg105
(dp6003
S'ORL'
p6004
S'-1'
p6005
ssg108
(dp6006
S'ORL'
p6007
S'-1'
p6008
ssg111
(dp6009
g665
S'2.5'
p6010
ssg115
(dp6011
S'ORL'
p6012
S'-1'
p6013
ssg118
(dp6014
S'CHI'
p6015
S'-1.5'
p6016
ssg122
(dp6017
S'CHA'
p6018
S'-8'
p6019
ssg125
(dp6020
S'ORL'
p6021
S'-1'
p6022
ssg128
(dp6023
S'ORL'
p6024
S'-1'
p6025
ssg131
(dp6026
S'ORL'
p6027
S'-1'
p6028
ssg134
(dp6029
g223
g1036
ssg138
(dp6030
S'PHI'
p6031
S'-10'
p6032
ssS'NOV 05, 2014'
p6033
(dp6034
S'IND'
p6035
S'-3.5'
p6036
ssg141
(dp6037
S'ORL'
p6038
S'-1'
p6039
ssg148
(dp6040
S'ORL'
p6041
S'-1'
p6042
ssg151
(dp6043
S'ORL'
p6044
S'-1'
p6045
ssg154
(dp6046
S'ORL'
p6047
S'-1'
p6048
ssg157
(dp6049
S'ORL'
p6050
S'-1'
p6051
ssg799
(dp6052
S'CLE'
p6053
S'8.5'
p6054
ssg160
(dp6055
S'ORL'
p6056
S'-1'
p6057
ssg163
(dp6058
S'ORL'
p6059
S'-1'
p6060
ssg166
(dp6061
S'ORL'
p6062
S'-1'
p6063
ssg169
(dp6064
S'ORL'
p6065
S'-1'
p6066
ssg172
(dp6067
S'ORL'
p6068
S'-1'
p6069
ssg175
(dp6070
S'ORL'
p6071
S'-1'
p6072
ssg178
(dp6073
S'ATL'
p6074
g79
ssg1054
(dp6075
S'MEM'
p6076
S'4.5'
p6077
ssg182
(dp6078
S'ORL'
p6079
S'-1'
p6080
ssg185
(dp6081
S'ORL'
p6082
S'-1'
p6083
ssg188
(dp6084
S'ORL'
p6085
S'-1'
p6086
ssg289
(dp6087
S'ORL'
p6088
S'-1'
p6089
ssg532
(dp6090
S'ATL'
p6091
S'5.5'
p6092
ssg194
(dp6093
S'ORL'
p6094
S'-1'
p6095
ssg197
(dp6096
S'ORL'
p6097
S'-1'
p6098
ssg200
(dp6099
S'ORL'
p6100
S'-1'
p6101
ssg203
(dp6102
S'ORL'
p6103
S'-1'
p6104
ssg206
(dp6105
S'ORL'
p6106
S'-1'
p6107
ssg209
(dp6108
S'ORL'
p6109
S'-1'
p6110
ssg212
(dp6111
S'ORL'
p6112
S'-1'
p6113
ssg215
(dp6114
S'ORL'
p6115
S'-1'
p6116
ssg218
(dp6117
S'ORL'
p6118
S'-1'
p6119
ssg221
(dp6120
S'LAL'
p6121
S'-10'
p6122
ssg225
(dp6123
S'ORL'
p6124
S'-1'
p6125
ssg228
(dp6126
S'ORL'
p6127
S'-1'
p6128
ssg235
(dp6129
S'ORL'
p6130
S'-1'
p6131
ssg238
(dp6132
S'ORL'
p6133
S'-1'
p6134
ssg241
(dp6135
S'ORL'
p6136
S'-1'
p6137
ssg244
(dp6138
S'ORL'
p6139
S'-1'
p6140
ssg247
(dp6141
S'ORL'
p6142
S'-1'
p6143
ssg250
(dp6144
S'ORL'
p6145
S'-1'
p6146
ssg253
(dp6147
S'ORL'
p6148
S'-1'
p6149
ssg256
(dp6150
S'ORL'
p6151
S'-1'
p6152
ssg259
(dp6153
S'ORL'
p6154
S'-1'
p6155
ssg262
(dp6156
S'ORL'
p6157
S'-1'
p6158
ssg265
(dp6159
S'ORL'
p6160
S'-1'
p6161
ssg268
(dp6162
S'ORL'
p6163
S'-1'
p6164
ssg271
(dp6165
S'ORL'
p6166
S'-1'
p6167
ssg881
(dp6168
S'LAC'
p6169
S'2.5'
p6170
ssg274
(dp6171
S'ORL'
p6172
S'-1'
p6173
ssg277
(dp6174
S'ORL'
p6175
S'-1'
p6176
ssg280
(dp6177
S'ORL'
p6178
S'-1'
p6179
ssg283
(dp6180
S'ORL'
p6181
S'-1'
p6182
ssg286
(dp6183
S'ORL'
p6184
S'-1'
p6185
ssg292
(dp6186
S'ORL'
p6187
S'-1'
p6188
ssg295
(dp6189
S'ORL'
p6190
S'-1'
p6191
ssg302
(dp6192
S'ORL'
p6193
S'-1'
p6194
ssg305
(dp6195
S'ORL'
p6196
S'-1'
p6197
ssg308
(dp6198
S'ORL'
p6199
S'-1'
p6200
ssg311
(dp6201
S'ORL'
p6202
S'-1'
p6203
ssg314
(dp6204
S'MIL'
p6205
S'-11'
p6206
ssg318
(dp6207
S'ORL'
p6208
S'-1'
p6209
ssg321
(dp6210
g704
g968
ssg325
(dp6211
S'ORL'
p6212
S'-1'
p6213
ssg328
(dp6214
S'ORL'
p6215
S'-1'
p6216
ssg331
(dp6217
S'ORL'
p6218
S'-1'
p6219
ssg334
(dp6220
S'ORL'
p6221
S'-1'
p6222
ssg337
(dp6223
S'ORL'
p6224
S'-1'
p6225
ssg340
(dp6226
S'ORL'
p6227
S'-1'
p6228
ssg343
(dp6229
S'ORL'
p6230
S'-1'
p6231
ssg346
(dp6232
S'ORL'
p6233
S'-1'
p6234
ssg349
(dp6235
S'ORL'
p6236
S'-1'
p6237
ssg352
(dp6238
S'ORL'
p6239
S'-1'
p6240
sssg357
(dp6241
g3
(dp6242
g300
S'9.5'
p6243
ssg11
(dp6244
g300
S'13'
p6245
ssg15
(dp6246
g300
S'13'
p6247
ssg18
(dp6248
g300
S'13'
p6249
ssg21
(dp6250
g300
S'13'
p6251
ssg24
(dp6252
g300
S'13'
p6253
ssg27
(dp6254
g300
S'13'
p6255
ssg38
(dp6256
g300
S'13'
p6257
ssg41
(dp6258
g300
S'13'
p6259
ssg44
(dp6260
g300
S'13'
p6261
ssg47
(dp6262
S'IND'
p6263
g5768
ssg51
(dp6264
g300
S'13'
p6265
ssg54
(dp6266
S'MEM'
p6267
g1036
ssg58
(dp6268
g300
S'13'
p6269
ssg736
(dp6270
g9
S'10.5'
p6271
ssg61
(dp6272
g300
S'13'
p6273
ssg64
(dp6274
g300
S'13'
p6275
ssg67
(dp6276
g300
S'13'
p6277
ssg70
(dp6278
g300
S'13'
p6279
ssg73
(dp6280
g300
S'13'
p6281
ssg83
(dp6282
g300
S'13'
p6283
ssg86
(dp6284
g300
S'13'
p6285
ssg89
(dp6286
g300
S'13'
p6287
ssg92
(dp6288
S'POR'
p6289
S'10.5'
p6290
ssg439
(dp6291
g300
S'3.5'
p6292
ssg96
(dp6293
g300
S'13'
p6294
ssg99
(dp6295
g300
S'13'
p6296
ssg102
(dp6297
g300
S'13'
p6298
ssg105
(dp6299
g300
S'13'
p6300
ssg108
(dp6301
g300
S'13'
p6302
ssg111
(dp6303
S'ATL'
p6304
S'11'
p6305
ssg115
(dp6306
g300
S'13'
p6307
ssg118
(dp6308
S'CHA'
p6309
g1741
ssg125
(dp6310
g300
S'13'
p6311
ssg128
(dp6312
g300
S'13'
p6313
ssg131
(dp6314
g300
S'13'
p6315
ssg138
(dp6316
g9
S'9.5'
p6317
ssg141
(dp6318
g300
S'13'
p6319
ssg1021
(dp6320
g49
g14
ssg148
(dp6321
g300
S'13'
p6322
ssg151
(dp6323
g300
S'13'
p6324
ssg154
(dp6325
g300
S'13'
p6326
ssg157
(dp6327
g300
S'13'
p6328
ssg799
(dp6329
S'PHI'
p6330
g968
ssg160
(dp6331
g300
S'13'
p6332
ssg163
(dp6333
g300
S'13'
p6334
ssg166
(dp6335
g300
S'13'
p6336
ssg169
(dp6337
g300
S'13'
p6338
ssg172
(dp6339
g300
S'13'
p6340
ssg175
(dp6341
g300
S'13'
p6342
ssg178
(dp6343
S'MIL'
p6344
S'9.5'
p6345
ssg1054
(dp6346
S'UTA'
p6347
S'-2'
p6348
ssg182
(dp6349
g300
S'13'
p6350
ssg185
(dp6351
g300
S'13'
p6352
ssg188
(dp6353
g300
S'13'
p6354
ssg191
(dp6355
S'DAL'
p6356
g1036
ssg194
(dp6357
g300
S'13'
p6358
ssg197
(dp6359
g300
S'13'
p6360
ssg200
(dp6361
g300
S'13'
p6362
ssg203
(dp6363
g300
S'13'
p6364
ssg206
(dp6365
g300
S'13'
p6366
ssg551
(dp6367
S'OKC'
p6368
g1036
ssg1078
(dp6369
S'UTA'
p6370
g14
ssg209
(dp6371
g300
S'13'
p6372
ssg212
(dp6373
g300
S'13'
p6374
ssg215
(dp6375
g300
S'13'
p6376
ssg218
(dp6377
g300
S'13'
p6378
ssg221
(dp6379
S'WAS'
p6380
S'10'
p6381
ssg225
(dp6382
g300
S'13'
p6383
ssg228
(dp6384
g300
S'13'
p6385
ssg231
(dp6386
S'MEM'
p6387
S'10'
p6388
ssg235
(dp6389
g300
S'13'
p6390
ssg238
(dp6391
g300
S'13'
p6392
ssg241
(dp6393
g300
S'13'
p6394
ssg244
(dp6395
g300
S'13'
p6396
ssg247
(dp6397
g300
S'13'
p6398
ssg250
(dp6399
g300
S'13'
p6400
ssg253
(dp6401
g300
S'13'
p6402
ssg256
(dp6403
g300
S'13'
p6404
ssg259
(dp6405
g300
S'13'
p6406
ssg262
(dp6407
g300
S'13'
p6408
ssg265
(dp6409
g300
S'13'
p6410
ssg268
(dp6411
g300
S'13'
p6412
ssg271
(dp6413
g300
S'13'
p6414
ssg881
(dp6415
g223
S'12'
p6416
ssg274
(dp6417
g300
S'13'
p6418
ssg277
(dp6419
g300
S'13'
p6420
ssg280
(dp6421
g300
S'13'
p6422
ssg283
(dp6423
g300
S'13'
p6424
ssg286
(dp6425
g300
S'13'
p6426
ssg289
(dp6427
g300
S'13'
p6428
ssg1149
(dp6429
S'DEN'
p6430
S'-2.5'
p6431
ssg292
(dp6432
g300
S'13'
p6433
ssg295
(dp6434
g300
S'13'
p6435
ssg298
(dp6436
S'MIA'
p6437
S'9.5'
p6438
ssg302
(dp6439
g300
S'13'
p6440
ssg305
(dp6441
g300
S'13'
p6442
ssg308
(dp6443
g300
S'13'
p6444
ssg311
(dp6445
g300
S'13'
p6446
ssg80
(dp6447
g300
S'13'
p6448
ssg318
(dp6449
g300
S'13'
p6450
ssg325
(dp6451
g300
S'13'
p6452
ssg328
(dp6453
g300
S'13'
p6454
ssg331
(dp6455
g300
S'13'
p6456
ssg334
(dp6457
g300
S'13'
p6458
ssg337
(dp6459
g300
S'13'
p6460
ssg340
(dp6461
g300
S'13'
p6462
ssg343
(dp6463
g300
S'13'
p6464
ssg346
(dp6465
g300
S'13'
p6466
ssg349
(dp6467
g300
S'13'
p6468
ssg352
(dp6469
g300
S'13'
p6470
sssS'PHI'
p6471
(dp6472
g3
(dp6473
S'MEM'
p6474
S'14.5'
p6475
ssg7
(dp6476
S'UTA'
p6477
g10
ssg11
(dp6478
S'CHI'
p6479
S'7.5'
p6480
ssg15
(dp6481
S'CHI'
p6482
S'7.5'
p6483
ssg18
(dp6484
S'CHI'
p6485
S'7.5'
p6486
ssg21
(dp6487
S'CHI'
p6488
S'7.5'
p6489
ssg24
(dp6490
S'CHI'
p6491
S'7.5'
p6492
ssg377
(dp6493
S'SAC'
p6494
S'9.5'
p6495
ssg27
(dp6496
S'CHI'
p6497
S'7.5'
p6498
ssg30
(dp6499
S'CHA'
p6500
S'6.5'
p6501
ssg34
(dp6502
S'CLE'
p6503
S'13'
p6504
ssg38
(dp6505
S'CHI'
p6506
S'7.5'
p6507
ssg41
(dp6508
S'CHI'
p6509
S'7.5'
p6510
ssg44
(dp6511
S'CHI'
p6512
S'7.5'
p6513
ssg51
(dp6514
S'CHI'
p6515
S'7.5'
p6516
ssg406
(dp6517
S'TOR'
p6518
S'9.5'
p6519
ssg54
(dp6520
g665
S'14'
p6521
ssg58
(dp6522
S'CHI'
p6523
S'7.5'
p6524
ssg61
(dp6525
S'CHI'
p6526
S'7.5'
p6527
ssg64
(dp6528
S'CHI'
p6529
S'7.5'
p6530
ssg67
(dp6531
S'CHI'
p6532
S'7.5'
p6533
ssg70
(dp6534
S'CHI'
p6535
S'7.5'
p6536
ssg73
(dp6537
S'CHI'
p6538
S'7.5'
p6539
ssg80
(dp6540
S'CHI'
p6541
S'7.5'
p6542
ssg83
(dp6543
S'CHI'
p6544
S'7.5'
p6545
ssg86
(dp6546
S'CHI'
p6547
S'7.5'
p6548
ssg89
(dp6549
S'CHI'
p6550
S'7.5'
p6551
ssg96
(dp6552
S'CHI'
p6553
S'7.5'
p6554
ssg99
(dp6555
S'CHI'
p6556
S'7.5'
p6557
ssg102
(dp6558
S'CHI'
p6559
S'7.5'
p6560
ssg764
(dp6561
S'LAC'
p6562
S'19.5'
p6563
ssg105
(dp6564
S'CHI'
p6565
S'7.5'
p6566
ssg108
(dp6567
S'CHI'
p6568
S'7.5'
p6569
ssg115
(dp6570
S'CHI'
p6571
S'7.5'
p6572
ssg122
(dp6573
S'CLE'
p6574
S'17'
p6575
ssg125
(dp6576
S'CHI'
p6577
S'7.5'
p6578
ssg128
(dp6579
S'CHI'
p6580
S'7.5'
p6581
ssg131
(dp6582
S'CHI'
p6583
S'7.5'
p6584
ssg134
(dp6585
S'MIL'
p6586
S'8.5'
p6587
ssg138
(dp6588
S'WAS'
p6589
S'10'
p6590
ssg247
(dp6591
S'CHI'
p6592
S'7.5'
p6593
ssg148
(dp6594
S'CHI'
p6595
S'7.5'
p6596
ssg151
(dp6597
S'CHI'
p6598
S'7.5'
p6599
ssg154
(dp6600
S'CHI'
p6601
S'7.5'
p6602
ssg157
(dp6603
S'CHI'
p6604
S'7.5'
p6605
ssg799
(dp6606
S'LAL'
p6607
S'-2'
p6608
ssg160
(dp6609
S'CHI'
p6610
S'7.5'
p6611
ssg163
(dp6612
S'CHI'
p6613
S'7.5'
p6614
ssg166
(dp6615
S'CHI'
p6616
S'7.5'
p6617
ssg169
(dp6618
S'CHI'
p6619
S'7.5'
p6620
ssg172
(dp6621
S'CHI'
p6622
S'7.5'
p6623
ssg175
(dp6624
S'CHI'
p6625
S'7.5'
p6626
ssg182
(dp6627
S'CHI'
p6628
S'7.5'
p6629
ssg185
(dp6630
S'CHI'
p6631
S'7.5'
p6632
ssg188
(dp6633
S'CHI'
p6634
S'7.5'
p6635
ssg289
(dp6636
S'CHI'
p6637
S'7.5'
p6638
ssg194
(dp6639
S'CHI'
p6640
S'7.5'
p6641
ssg197
(dp6642
S'CHI'
p6643
S'7.5'
p6644
ssg200
(dp6645
S'CHI'
p6646
S'7.5'
p6647
ssg203
(dp6648
S'CHI'
p6649
S'7.5'
p6650
ssg206
(dp6651
S'CHI'
p6652
S'7.5'
p6653
ssg551
(dp6654
S'IND'
p6655
S'11'
p6656
ssg209
(dp6657
S'CHI'
p6658
S'7.5'
p6659
ssg212
(dp6660
S'CHI'
p6661
S'7.5'
p6662
ssg215
(dp6663
S'CHI'
p6664
S'7.5'
p6665
ssg218
(dp6666
S'CHI'
p6667
S'7.5'
p6668
ssg221
(dp6669
g49
S'8.5'
p6670
ssg225
(dp6671
S'CHI'
p6672
S'7.5'
p6673
ssg228
(dp6674
S'CHI'
p6675
S'7.5'
p6676
ssg235
(dp6677
S'CHI'
p6678
S'7.5'
p6679
ssg238
(dp6680
S'CHI'
p6681
S'7.5'
p6682
ssg241
(dp6683
S'CHI'
p6684
S'7.5'
p6685
ssg244
(dp6686
S'CHI'
p6687
S'7.5'
p6688
ssg141
(dp6689
S'CHI'
p6690
S'7.5'
p6691
ssg593
(dp6692
S'DEN'
p6693
S'7.5'
p6694
ssg250
(dp6695
S'CHI'
p6696
S'7.5'
p6697
ssg253
(dp6698
S'CHI'
p6699
S'7.5'
p6700
ssg256
(dp6701
S'CHI'
p6702
S'7.5'
p6703
ssg259
(dp6704
S'CHI'
p6705
S'7.5'
p6706
ssg262
(dp6707
S'CHI'
p6708
S'7.5'
p6709
ssg265
(dp6710
S'CHI'
p6711
S'7.5'
p6712
ssg268
(dp6713
S'CHI'
p6714
S'7.5'
p6715
ssg271
(dp6716
S'CHI'
p6717
S'7.5'
p6718
ssg881
(dp6719
g36
S'6.5'
p6720
ssg274
(dp6721
S'CHI'
p6722
S'7.5'
p6723
ssg277
(dp6724
S'CHI'
p6725
S'7.5'
p6726
ssg280
(dp6727
S'CHI'
p6728
S'7.5'
p6729
ssg283
(dp6730
S'CHI'
p6731
S'7.5'
p6732
ssg286
(dp6733
S'CHI'
p6734
S'7.5'
p6735
ssg292
(dp6736
S'CHI'
p6737
S'7.5'
p6738
ssg295
(dp6739
S'CHI'
p6740
S'7.5'
p6741
ssg298
(dp6742
S'OKC'
p6743
S'15'
p6744
ssg302
(dp6745
S'CHI'
p6746
S'7.5'
p6747
ssg305
(dp6748
S'CHI'
p6749
S'7.5'
p6750
ssg308
(dp6751
S'CHI'
p6752
S'7.5'
p6753
ssg311
(dp6754
S'CHI'
p6755
S'7.5'
p6756
ssg314
(dp6757
S'CHA'
p6758
S'12'
p6759
ssg318
(dp6760
S'CHI'
p6761
S'7.5'
p6762
ssg321
(dp6763
g49
g95
ssg325
(dp6764
S'CHI'
p6765
S'7.5'
p6766
ssg328
(dp6767
S'CHI'
p6768
S'7.5'
p6769
ssg331
(dp6770
S'CHI'
p6771
S'7.5'
p6772
ssg334
(dp6773
S'CHI'
p6774
S'7.5'
p6775
ssg337
(dp6776
S'CHI'
p6777
S'7.5'
p6778
ssg340
(dp6779
S'CHI'
p6780
S'7.5'
p6781
ssg343
(dp6782
S'CHI'
p6783
S'7.5'
p6784
ssg346
(dp6785
S'CHI'
p6786
S'7.5'
p6787
ssg349
(dp6788
S'CHI'
p6789
S'7.5'
p6790
ssg352
(dp6791
S'CHI'
p6792
S'7.5'
p6793
sssg6474
(dp6794
g3
(dp6795
g6471
S'-14.5'
p6796
ssg7
(dp6797
S'ORL'
p6798
S'-1.5'
p6799
ssg11
(dp6800
S'MIA'
p6801
S'-6'
p6802
ssg15
(dp6803
S'MIA'
p6804
S'-6'
p6805
ssg18
(dp6806
S'MIA'
p6807
S'-6'
p6808
ssg21
(dp6809
S'MIA'
p6810
S'-6'
p6811
ssg24
(dp6812
S'MIA'
p6813
S'-6'
p6814
ssg377
(dp6815
g9
S'-6'
p6816
ssg27
(dp6817
S'MIA'
p6818
S'-6'
p6819
ssg30
(dp6820
S'WAS'
p6821
S'-8'
p6822
ssg34
(dp6823
g300
S'9.5'
p6824
ssg38
(dp6825
S'MIA'
p6826
S'-6'
p6827
ssg41
(dp6828
S'MIA'
p6829
S'-6'
p6830
ssg44
(dp6831
S'MIA'
p6832
S'-6'
p6833
ssg51
(dp6834
S'MIA'
p6835
S'-6'
p6836
ssg54
(dp6837
S'LAL'
p6838
S'-4'
p6839
ssg58
(dp6840
S'MIA'
p6841
S'-6'
p6842
ssg61
(dp6843
S'MIA'
p6844
S'-6'
p6845
ssg64
(dp6846
S'MIA'
p6847
S'-6'
p6848
ssg67
(dp6849
S'MIA'
p6850
S'-6'
p6851
ssg70
(dp6852
S'MIA'
p6853
S'-6'
p6854
ssg73
(dp6855
S'MIA'
p6856
S'-6'
p6857
ssg76
(dp6858
S'ATL'
p6859
S'-3.5'
p6860
ssg83
(dp6861
S'MIA'
p6862
S'-6'
p6863
ssg86
(dp6864
S'MIA'
p6865
S'-6'
p6866
ssg89
(dp6867
S'MIA'
p6868
S'-6'
p6869
ssg92
(dp6870
S'OKC'
p6871
S'-5.5'
p6872
ssg96
(dp6873
S'MIA'
p6874
S'-6'
p6875
ssg99
(dp6876
S'MIA'
p6877
S'-6'
p6878
ssg102
(dp6879
S'MIA'
p6880
S'-6'
p6881
ssg764
(dp6882
S'DEN'
p6883
S'1.5'
p6884
ssg105
(dp6885
S'MIA'
p6886
S'-6'
p6887
ssg108
(dp6888
S'MIA'
p6889
S'-6'
p6890
ssg115
(dp6891
S'MIA'
p6892
S'-6'
p6893
ssg118
(dp6894
S'UTA'
p6895
S'-7'
p6896
ssg122
(dp6897
g665
S'-2.5'
p6898
ssg125
(dp6899
S'MIA'
p6900
S'-6'
p6901
ssg128
(dp6902
S'MIA'
p6903
S'-6'
p6904
ssg131
(dp6905
S'MIA'
p6906
S'-6'
p6907
ssg141
(dp6908
S'MIA'
p6909
S'-6'
p6910
ssg144
(dp6911
S'POR'
p6912
S'-3'
p6913
ssg148
(dp6914
S'MIA'
p6915
S'-6'
p6916
ssg151
(dp6917
S'MIA'
p6918
S'-6'
p6919
ssg154
(dp6920
S'MIA'
p6921
S'-6'
p6922
ssg157
(dp6923
S'MIA'
p6924
S'-6'
p6925
ssg799
(dp6926
g9
g361
ssg1033
(dp6927
g223
g14
ssg160
(dp6928
S'MIA'
p6929
S'-6'
p6930
ssg163
(dp6931
S'MIA'
p6932
S'-6'
p6933
ssg166
(dp6934
S'MIA'
p6935
S'-6'
p6936
ssg169
(dp6937
S'MIA'
p6938
S'-6'
p6939
ssg172
(dp6940
S'MIA'
p6941
S'-6'
p6942
ssg175
(dp6943
S'MIA'
p6944
S'-6'
p6945
ssg178
(dp6946
S'UTA'
p6947
S'-6.5'
p6948
ssg1054
(dp6949
S'WAS'
p6950
S'-4.5'
p6951
ssg182
(dp6952
S'MIA'
p6953
S'-6'
p6954
ssg185
(dp6955
S'MIA'
p6956
S'-6'
p6957
ssg188
(dp6958
S'MIA'
p6959
S'-6'
p6960
ssg289
(dp6961
S'MIA'
p6962
S'-6'
p6963
ssg532
(dp6964
g300
S'10.5'
p6965
ssg194
(dp6966
S'MIA'
p6967
S'-6'
p6968
ssg197
(dp6969
S'MIA'
p6970
S'-6'
p6971
ssg200
(dp6972
S'MIA'
p6973
S'-6'
p6974
ssg203
(dp6975
S'MIA'
p6976
S'-6'
p6977
ssg206
(dp6978
S'MIA'
p6979
S'-6'
p6980
ssg209
(dp6981
S'MIA'
p6982
S'-6'
p6983
ssg212
(dp6984
S'MIA'
p6985
S'-6'
p6986
ssg215
(dp6987
S'MIA'
p6988
S'-6'
p6989
ssg218
(dp6990
S'MIA'
p6991
S'-6'
p6992
ssg844
(dp6993
S'ATL'
p6994
S'-5'
p6995
ssg225
(dp6996
S'MIA'
p6997
S'-6'
p6998
ssg228
(dp6999
S'MIA'
p7000
S'-6'
p7001
ssg231
(dp7002
S'LAL'
p7003
S'-10'
p7004
ssg235
(dp7005
S'MIA'
p7006
S'-6'
p7007
ssg238
(dp7008
S'MIA'
p7009
S'-6'
p7010
ssg241
(dp7011
S'MIA'
p7012
S'-6'
p7013
ssg244
(dp7014
S'MIA'
p7015
S'-6'
p7016
ssg247
(dp7017
S'MIA'
p7018
S'-6'
p7019
ssg250
(dp7020
S'MIA'
p7021
S'-6'
p7022
ssg253
(dp7023
S'MIA'
p7024
S'-6'
p7025
ssg256
(dp7026
S'MIA'
p7027
S'-6'
p7028
ssg259
(dp7029
S'MIA'
p7030
S'-6'
p7031
ssg262
(dp7032
S'MIA'
p7033
S'-6'
p7034
ssg265
(dp7035
S'MIA'
p7036
S'-6'
p7037
ssg268
(dp7038
S'MIA'
p7039
S'-6'
p7040
ssg271
(dp7041
S'MIA'
p7042
S'-6'
p7043
ssg881
(dp7044
S'CHA'
p7045
S'-10'
p7046
ssg274
(dp7047
S'MIA'
p7048
S'-6'
p7049
ssg277
(dp7050
S'MIA'
p7051
S'-6'
p7052
ssg280
(dp7053
S'MIA'
p7054
S'-6'
p7055
ssg283
(dp7056
S'MIA'
p7057
S'-6'
p7058
ssg286
(dp7059
S'MIA'
p7060
S'-6'
p7061
ssg1149
(dp7062
S'SAC'
p7063
S'-4'
p7064
ssg292
(dp7065
S'MIA'
p7066
S'-6'
p7067
ssg295
(dp7068
S'MIA'
p7069
S'-6'
p7070
ssg298
(dp7071
g704
g14
ssg302
(dp7072
S'MIA'
p7073
S'-6'
p7074
ssg305
(dp7075
S'MIA'
p7076
S'-6'
p7077
ssg308
(dp7078
S'MIA'
p7079
S'-6'
p7080
ssg311
(dp7081
S'MIA'
p7082
S'-6'
p7083
ssg80
(dp7084
S'MIA'
p7085
S'-6'
p7086
ssg318
(dp7087
S'MIA'
p7088
S'-6'
p7089
ssg325
(dp7090
S'MIA'
p7091
S'-6'
p7092
ssg328
(dp7093
S'MIA'
p7094
S'-6'
p7095
ssg331
(dp7096
S'MIA'
p7097
S'-6'
p7098
ssg334
(dp7099
S'MIA'
p7100
S'-6'
p7101
ssg337
(dp7102
S'MIA'
p7103
S'-6'
p7104
ssg340
(dp7105
S'MIA'
p7106
S'-6'
p7107
ssg343
(dp7108
S'MIA'
p7109
S'-6'
p7110
ssg346
(dp7111
S'MIA'
p7112
S'-6'
p7113
ssg349
(dp7114
S'MIA'
p7115
S'-6'
p7116
ssg352
(dp7117
S'MIA'
p7118
S'-6'
p7119
sssg3263
(dp7120
g7
(dp7121
S'POR'
p7122
S'-9'
p7123
ssg11
(dp7124
S'DET'
p7125
S'-6.5'
p7126
ssg15
(dp7127
S'DET'
p7128
S'-6.5'
p7129
ssg18
(dp7130
S'DET'
p7131
S'-6.5'
p7132
ssg21
(dp7133
S'DET'
p7134
S'-6.5'
p7135
ssg24
(dp7136
S'DET'
p7137
S'-6.5'
p7138
ssg377
(dp7139
g300
S'-7'
p7140
ssg27
(dp7141
S'DET'
p7142
S'-6.5'
p7143
ssg30
(dp7144
S'DEN'
p7145
S'-10'
p7146
ssg34
(dp7147
g665
S'-9'
p7148
ssg2343
(dp7149
S'DEN'
p7150
S'-7.5'
p7151
ssg38
(dp7152
S'DET'
p7153
S'-6.5'
p7154
ssg41
(dp7155
S'DET'
p7156
S'-6.5'
p7157
ssg44
(dp7158
S'DET'
p7159
S'-6.5'
p7160
ssg2353
(dp7161
S'DEN'
p7162
S'-7.5'
p7163
ssg51
(dp7164
S'DET'
p7165
S'-6.5'
p7166
ssg406
(dp7167
S'MIN'
p7168
S'-6.5'
p7169
ssg58
(dp7170
S'DET'
p7171
S'-6.5'
p7172
ssg61
(dp7173
S'DET'
p7174
S'-6.5'
p7175
ssg64
(dp7176
S'DET'
p7177
S'-6.5'
p7178
ssg67
(dp7179
S'DET'
p7180
S'-6.5'
p7181
ssg70
(dp7182
S'DET'
p7183
S'-6.5'
p7184
ssg73
(dp7185
S'DET'
p7186
S'-6.5'
p7187
ssg80
(dp7188
S'DET'
p7189
S'-6.5'
p7190
ssg4110
(dp7191
g704
S'7.5'
p7192
ssg83
(dp7193
S'DET'
p7194
S'-6.5'
p7195
ssg86
(dp7196
S'DET'
p7197
S'-6.5'
p7198
ssg89
(dp7199
S'DET'
p7200
S'-6.5'
p7201
ssg439
(dp7202
S'POR'
p7203
g968
ssg96
(dp7204
S'DET'
p7205
S'-6.5'
p7206
ssg99
(dp7207
S'DET'
p7208
S'-6.5'
p7209
ssg102
(dp7210
S'DET'
p7211
S'-6.5'
p7212
ssg764
(dp7213
S'PHI'
p7214
S'-19.5'
p7215
ssg105
(dp7216
S'DET'
p7217
S'-6.5'
p7218
ssg108
(dp7219
S'DET'
p7220
S'-6.5'
p7221
ssg115
(dp7222
S'DET'
p7223
S'-6.5'
p7224
ssg122
(dp7225
g36
S'-8.5'
p7226
ssg125
(dp7227
S'DET'
p7228
S'-6.5'
p7229
ssg128
(dp7230
S'DET'
p7231
S'-6.5'
p7232
ssg131
(dp7233
S'DET'
p7234
S'-6.5'
p7235
ssg134
(dp7236
g300
S'7.5'
p7237
ssg138
(dp7238
S'POR'
p7239
g14
ssg2410
(dp7240
S'DEN'
p7241
S'-7.5'
p7242
ssg6033
(dp7243
S'OKC'
p7244
S'-5'
p7245
ssg141
(dp7246
S'DET'
p7247
S'-6.5'
p7248
ssg2416
(dp7249
S'DEN'
p7250
S'-7.5'
p7251
ssg148
(dp7252
S'DET'
p7253
S'-6.5'
p7254
ssg151
(dp7255
S'DET'
p7256
S'-6.5'
p7257
ssg154
(dp7258
S'DET'
p7259
S'-6.5'
p7260
ssg157
(dp7261
S'DET'
p7262
S'-6.5'
p7263
ssg160
(dp7264
S'DET'
p7265
S'-6.5'
p7266
ssg163
(dp7267
S'DET'
p7268
S'-6.5'
p7269
ssg166
(dp7270
S'DET'
p7271
S'-6.5'
p7272
ssg169
(dp7273
S'DET'
p7274
S'-6.5'
p7275
ssg172
(dp7276
S'DET'
p7277
S'-6.5'
p7278
ssg175
(dp7279
S'DET'
p7280
S'-6.5'
p7281
ssg182
(dp7282
S'DET'
p7283
S'-6.5'
p7284
ssg185
(dp7285
S'DET'
p7286
S'-6.5'
p7287
ssg188
(dp7288
S'DET'
p7289
S'-6.5'
p7290
ssg289
(dp7291
S'DET'
p7292
S'-6.5'
p7293
ssg2455
(dp7294
S'DEN'
p7295
S'-7.5'
p7296
ssg194
(dp7297
S'DET'
p7298
S'-6.5'
p7299
ssg197
(dp7300
S'DET'
p7301
S'-6.5'
p7302
ssg200
(dp7303
S'DET'
p7304
S'-6.5'
p7305
ssg203
(dp7306
S'DET'
p7307
S'-6.5'
p7308
ssg206
(dp7309
S'DET'
p7310
S'-6.5'
p7311
ssg551
(dp7312
S'CHI'
p7313
S'-2'
p7314
ssg1078
(dp7315
S'TOR'
p7316
S'-3.5'
p7317
ssg209
(dp7318
S'DET'
p7319
S'-6.5'
p7320
ssg212
(dp7321
S'DET'
p7322
S'-6.5'
p7323
ssg215
(dp7324
S'DET'
p7325
S'-6.5'
p7326
ssg2481
(dp7327
S'DEN'
p7328
S'-7.5'
p7329
ssg218
(dp7330
S'DET'
p7331
S'-6.5'
p7332
ssg221
(dp7333
S'IND'
p7334
g968
ssg225
(dp7335
S'DET'
p7336
S'-6.5'
p7337
ssg228
(dp7338
S'DET'
p7339
S'-6.5'
p7340
ssg235
(dp7341
S'DET'
p7342
S'-6.5'
p7343
ssg238
(dp7344
S'DET'
p7345
S'-6.5'
p7346
ssg241
(dp7347
S'DET'
p7348
S'-6.5'
p7349
ssg2500
(dp7350
S'DEN'
p7351
S'-7.5'
p7352
ssg2601
(dp7353
S'DEN'
p7354
S'-7.5'
p7355
ssg2507
(dp7356
S'DEN'
p7357
S'-7.5'
p7358
ssg2511
(dp7359
S'DEN'
p7360
S'-7.5'
p7361
ssg244
(dp7362
S'DET'
p7363
S'-6.5'
p7364
ssg340
(dp7365
S'DET'
p7366
S'-6.5'
p7367
ssg247
(dp7368
S'DET'
p7369
S'-6.5'
p7370
ssg250
(dp7371
S'DET'
p7372
S'-6.5'
p7373
ssg253
(dp7374
S'DET'
p7375
S'-6.5'
p7376
ssg256
(dp7377
S'DET'
p7378
S'-6.5'
p7379
ssg259
(dp7380
S'DET'
p7381
S'-6.5'
p7382
ssg262
(dp7383
S'DET'
p7384
S'-6.5'
p7385
ssg4607
(dp7386
g223
S'-3'
p7387
ssg265
(dp7388
S'DET'
p7389
S'-6.5'
p7390
ssg268
(dp7391
S'DET'
p7392
S'-6.5'
p7393
ssg271
(dp7394
S'DET'
p7395
S'-6.5'
p7396
ssg881
(dp7397
S'WAS'
p7398
S'-2.5'
p7399
ssg274
(dp7400
S'DET'
p7401
S'-6.5'
p7402
ssg277
(dp7403
S'DET'
p7404
S'-6.5'
p7405
ssg280
(dp7406
S'DET'
p7407
S'-6.5'
p7408
ssg283
(dp7409
S'DET'
p7410
S'-6.5'
p7411
ssg286
(dp7412
S'DET'
p7413
S'-6.5'
p7414
ssg2461
(dp7415
S'DEN'
p7416
S'-7.5'
p7417
ssg292
(dp7418
S'DET'
p7419
S'-6.5'
p7420
ssg295
(dp7421
S'DET'
p7422
S'-6.5'
p7423
ssg298
(dp7424
S'POR'
p7425
g361
ssg302
(dp7426
S'DET'
p7427
S'-6.5'
p7428
ssg305
(dp7429
S'DET'
p7430
S'-6.5'
p7431
ssg308
(dp7432
S'DET'
p7433
S'-6.5'
p7434
ssg311
(dp7435
S'DET'
p7436
S'-6.5'
p7437
ssg314
(dp7438
S'SAC'
p7439
S'-11'
p7440
ssg318
(dp7441
S'DET'
p7442
S'-6.5'
p7443
ssg325
(dp7444
S'DET'
p7445
S'-6.5'
p7446
ssg328
(dp7447
S'DET'
p7448
S'-6.5'
p7449
ssg331
(dp7450
S'DET'
p7451
S'-6.5'
p7452
ssg2583
(dp7453
S'DEN'
p7454
S'-7.5'
p7455
ssg2589
(dp7456
S'DEN'
p7457
S'-7.5'
p7458
ssg334
(dp7459
S'DET'
p7460
S'-6.5'
p7461
ssg337
(dp7462
S'DET'
p7463
S'-6.5'
p7464
ssg2597
(dp7465
S'DEN'
p7466
S'-7.5'
p7467
ssg343
(dp7468
S'DET'
p7469
S'-6.5'
p7470
ssg346
(dp7471
S'DET'
p7472
S'-6.5'
p7473
ssg349
(dp7474
S'DET'
p7475
S'-6.5'
p7476
ssg352
(dp7477
S'DET'
p7478
S'-6.5'
p7479
sssg2093
(dp7480
g7
(dp7481
g49
S'3.5'
p7482
ssg11
(dp7483
g704
g14
ssg15
(dp7484
g704
g14
ssg18
(dp7485
g704
g14
ssg21
(dp7486
g704
g14
ssg24
(dp7487
g704
g14
ssg377
(dp7488
S'PHI'
p7489
S'-9.5'
p7490
ssg27
(dp7491
g704
g14
ssg38
(dp7492
g704
g14
ssg41
(dp7493
g704
g14
ssg44
(dp7494
g704
g14
ssg47
(dp7495
S'DET'
p7496
S'3.5'
p7497
ssg51
(dp7498
g704
g14
ssg58
(dp7499
g704
g14
ssg61
(dp7500
g704
g14
ssg64
(dp7501
g704
g14
ssg67
(dp7502
g704
g14
ssg70
(dp7503
g704
g14
ssg73
(dp7504
g704
g14
ssg80
(dp7505
g704
g14
ssg83
(dp7506
g704
g14
ssg86
(dp7507
g704
g14
ssg89
(dp7508
g704
g14
ssg92
(dp7509
g9
S'6.5'
p7510
ssg439
(dp7511
g36
S'-1'
p7512
ssg96
(dp7513
g704
g14
ssg99
(dp7514
g704
g14
ssg102
(dp7515
g704
g14
ssg105
(dp7516
g704
g14
ssg108
(dp7517
g704
g14
ssg115
(dp7518
g704
g14
ssg118
(dp7519
g49
S'-4.5'
p7520
ssg125
(dp7521
g704
g14
ssg128
(dp7522
g704
g14
ssg131
(dp7523
g704
g14
ssg134
(dp7524
g665
S'9.5'
p7525
ssg138
(dp7526
g704
S'10.5'
p7527
ssg141
(dp7528
g704
g14
ssg144
(dp7529
S'DET'
p7530
S'2.5'
p7531
ssg148
(dp7532
g704
g14
ssg151
(dp7533
g704
g14
ssg154
(dp7534
g704
g14
ssg157
(dp7535
g704
g14
ssg1033
(dp7536
S'BOS'
p7537
S'2.5'
p7538
ssg160
(dp7539
g704
g14
ssg163
(dp7540
g704
g14
ssg166
(dp7541
g704
g14
ssg169
(dp7542
g704
g14
ssg172
(dp7543
g704
g14
ssg175
(dp7544
g704
g14
ssg1054
(dp7545
S'CLE'
p7546
S'-1.5'
p7547
ssg182
(dp7548
g704
g14
ssg185
(dp7549
g704
g14
ssg188
(dp7550
g704
g14
ssg289
(dp7551
g704
g14
ssg194
(dp7552
g704
g14
ssg197
(dp7553
g704
g14
ssg200
(dp7554
g704
g14
ssg203
(dp7555
g704
g14
ssg206
(dp7556
g704
g14
ssg551
(dp7557
S'POR'
p7558
g10
ssg209
(dp7559
g704
g14
ssg212
(dp7560
g704
g14
ssg215
(dp7561
g704
g14
ssg218
(dp7562
g704
g14
ssg844
(dp7563
S'CLE'
p7564
S'-3'
p7565
ssg225
(dp7566
g704
g14
ssg228
(dp7567
g704
g14
ssg231
(dp7568
S'DAL'
p7569
g10
ssg235
(dp7570
g704
g14
ssg238
(dp7571
g704
g14
ssg241
(dp7572
g704
g14
ssg857
(dp7573
S'MIN'
p7574
S'-4.5'
p7575
ssg244
(dp7576
g704
g14
ssg247
(dp7577
g704
g14
ssg593
(dp7578
g300
S'10'
p7579
ssg250
(dp7580
g704
g14
ssg253
(dp7581
g704
g14
ssg256
(dp7582
g704
g14
ssg259
(dp7583
g704
g14
ssg262
(dp7584
g704
g14
ssg265
(dp7585
g704
g14
ssg268
(dp7586
g704
g14
ssg271
(dp7587
g704
g14
ssg274
(dp7588
g704
g14
ssg5507
(dp7589
g704
g361
ssg277
(dp7590
g704
g14
ssg280
(dp7591
g704
g14
ssg283
(dp7592
g704
g14
ssg286
(dp7593
g704
g14
ssg1149
(dp7594
S'MEM'
p7595
g1036
ssg292
(dp7596
g704
g14
ssg295
(dp7597
g704
g14
ssg298
(dp7598
g223
S'10.5'
p7599
ssg302
(dp7600
g704
g14
ssg305
(dp7601
g704
g14
ssg308
(dp7602
g704
g14
ssg311
(dp7603
g704
g14
ssg314
(dp7604
S'LAC'
p7605
S'11'
p7606
ssg318
(dp7607
g704
g14
ssg325
(dp7608
g704
g14
ssg328
(dp7609
g704
g14
ssg331
(dp7610
g704
g14
ssg334
(dp7611
g704
g14
ssg337
(dp7612
g704
g14
ssg340
(dp7613
g704
g14
ssg343
(dp7614
g704
g14
ssg346
(dp7615
g704
g14
ssg349
(dp7616
g704
g14
ssg352
(dp7617
g704
g14
sssS'OKC'
p7618
(dp7619
g3
(dp7620
g9
S'-15.5'
p7621
ssg11
(dp7622
S'DEN'
p7623
S'-N/A'
p7624
ssg15
(dp7625
S'DEN'
p7626
S'-N/A'
p7627
ssg18
(dp7628
S'DEN'
p7629
S'-N/A'
p7630
ssg21
(dp7631
S'DEN'
p7632
S'-N/A'
p7633
ssg24
(dp7634
S'DEN'
p7635
S'-N/A'
p7636
ssg27
(dp7637
S'DEN'
p7638
S'-N/A'
p7639
ssg34
(dp7640
g704
S'-4.5'
p7641
ssg38
(dp7642
S'DEN'
p7643
S'-N/A'
p7644
ssg41
(dp7645
S'DEN'
p7646
S'-N/A'
p7647
ssg44
(dp7648
S'DEN'
p7649
S'-N/A'
p7650
ssg51
(dp7651
S'DEN'
p7652
S'-N/A'
p7653
ssg54
(dp7654
S'WAS'
p7655
S'-7.5'
p7656
ssg58
(dp7657
S'DEN'
p7658
S'-N/A'
p7659
ssg736
(dp7660
S'BOS'
p7661
S'7.5'
p7662
ssg61
(dp7663
S'DEN'
p7664
S'-N/A'
p7665
ssg64
(dp7666
S'DEN'
p7667
S'-N/A'
p7668
ssg67
(dp7669
S'DEN'
p7670
S'-N/A'
p7671
ssg70
(dp7672
S'DEN'
p7673
S'-N/A'
p7674
ssg73
(dp7675
S'DEN'
p7676
S'-N/A'
p7677
ssg83
(dp7678
S'DEN'
p7679
S'-N/A'
p7680
ssg86
(dp7681
S'DEN'
p7682
S'-N/A'
p7683
ssg89
(dp7684
S'DEN'
p7685
S'-N/A'
p7686
ssg92
(dp7687
S'MEM'
p7688
S'5.5'
p7689
ssg96
(dp7690
S'DEN'
p7691
S'-N/A'
p7692
ssg99
(dp7693
S'DEN'
p7694
S'-N/A'
p7695
ssg102
(dp7696
S'DEN'
p7697
S'-N/A'
p7698
ssg105
(dp7699
S'DEN'
p7700
S'-N/A'
p7701
ssg108
(dp7702
S'DEN'
p7703
S'-N/A'
p7704
ssg115
(dp7705
S'DEN'
p7706
S'-N/A'
p7707
ssg122
(dp7708
S'ORL'
p7709
S'-10.5'
p7710
ssg125
(dp7711
S'DEN'
p7712
S'-N/A'
p7713
ssg128
(dp7714
S'DEN'
p7715
S'-N/A'
p7716
ssg131
(dp7717
S'DEN'
p7718
S'-N/A'
p7719
ssg134
(dp7720
S'TOR'
p7721
S'-8'
p7722
ssg138
(dp7723
S'DAL'
p7724
S'-2.5'
p7725
ssg6033
(dp7726
S'LAC'
p7727
g95
ssg141
(dp7728
S'DEN'
p7729
S'-N/A'
p7730
ssg144
(dp7731
g704
S'-4.5'
p7732
ssg148
(dp7733
S'DEN'
p7734
S'-N/A'
p7735
ssg151
(dp7736
S'DEN'
p7737
S'-N/A'
p7738
ssg154
(dp7739
S'DEN'
p7740
S'-N/A'
p7741
ssg157
(dp7742
S'DEN'
p7743
S'-N/A'
p7744
ssg1033
(dp7745
S'MIA'
p7746
S'-4'
p7747
ssg160
(dp7748
S'DEN'
p7749
S'-N/A'
p7750
ssg163
(dp7751
S'DEN'
p7752
S'-N/A'
p7753
ssg166
(dp7754
S'DEN'
p7755
S'-N/A'
p7756
ssg169
(dp7757
S'DEN'
p7758
S'-N/A'
p7759
ssg172
(dp7760
S'DEN'
p7761
S'-N/A'
p7762
ssg175
(dp7763
S'DEN'
p7764
S'-N/A'
p7765
ssg178
(dp7766
g9
g1036
ssg1054
(dp7767
S'POR'
p7768
g361
ssg182
(dp7769
S'DEN'
p7770
S'-N/A'
p7771
ssg185
(dp7772
S'DEN'
p7773
S'-N/A'
p7774
ssg188
(dp7775
S'DEN'
p7776
S'-N/A'
p7777
ssg191
(dp7778
S'DEN'
p7779
S'-12.5'
p7780
ssg194
(dp7781
S'DEN'
p7782
S'-N/A'
p7783
ssg197
(dp7784
S'DEN'
p7785
S'-N/A'
p7786
ssg200
(dp7787
S'DEN'
p7788
S'-N/A'
p7789
ssg203
(dp7790
S'DEN'
p7791
S'-N/A'
p7792
ssg206
(dp7793
S'DEN'
p7794
S'-N/A'
p7795
ssg551
(dp7796
S'LAL'
p7797
S'-4'
p7798
ssg209
(dp7799
S'DEN'
p7800
S'-N/A'
p7801
ssg212
(dp7802
S'DEN'
p7803
S'-N/A'
p7804
ssg215
(dp7805
S'DEN'
p7806
S'-N/A'
p7807
ssg218
(dp7808
S'DEN'
p7809
S'-N/A'
p7810
ssg225
(dp7811
S'DEN'
p7812
S'-N/A'
p7813
ssg228
(dp7814
S'DEN'
p7815
S'-N/A'
p7816
ssg231
(dp7817
S'MIL'
p7818
g968
ssg235
(dp7819
S'DEN'
p7820
S'-N/A'
p7821
ssg238
(dp7822
S'DEN'
p7823
S'-N/A'
p7824
ssg241
(dp7825
S'DEN'
p7826
S'-N/A'
p7827
ssg244
(dp7828
S'DEN'
p7829
S'-N/A'
p7830
ssg247
(dp7831
S'DEN'
p7832
S'-N/A'
p7833
ssg250
(dp7834
S'DEN'
p7835
S'-N/A'
p7836
ssg253
(dp7837
S'DEN'
p7838
S'-N/A'
p7839
ssg256
(dp7840
S'DEN'
p7841
S'-N/A'
p7842
ssg259
(dp7843
S'DEN'
p7844
S'-N/A'
p7845
ssg262
(dp7846
S'DEN'
p7847
S'-N/A'
p7848
ssg265
(dp7849
S'DEN'
p7850
S'-N/A'
p7851
ssg268
(dp7852
S'DEN'
p7853
S'-N/A'
p7854
ssg271
(dp7855
S'DEN'
p7856
S'-N/A'
p7857
ssg881
(dp7858
S'MIN'
p7859
S'-8.5'
p7860
ssg274
(dp7861
S'DEN'
p7862
S'-N/A'
p7863
ssg5507
(dp7864
S'CLE'
p7865
S'-7'
p7866
ssg277
(dp7867
S'DEN'
p7868
S'-N/A'
p7869
ssg280
(dp7870
S'DEN'
p7871
S'-N/A'
p7872
ssg283
(dp7873
S'DEN'
p7874
S'-N/A'
p7875
ssg286
(dp7876
S'DEN'
p7877
S'-N/A'
p7878
ssg289
(dp7879
S'DEN'
p7880
S'-N/A'
p7881
ssg292
(dp7882
S'DEN'
p7883
S'-N/A'
p7884
ssg295
(dp7885
S'DEN'
p7886
S'-N/A'
p7887
ssg298
(dp7888
S'PHI'
p7889
S'-15'
p7890
ssg302
(dp7891
S'DEN'
p7892
S'-N/A'
p7893
ssg305
(dp7894
S'DEN'
p7895
S'-N/A'
p7896
ssg308
(dp7897
S'DEN'
p7898
S'-N/A'
p7899
ssg311
(dp7900
S'DEN'
p7901
S'-N/A'
p7902
ssg80
(dp7903
S'DEN'
p7904
S'-N/A'
p7905
ssg318
(dp7906
S'DEN'
p7907
S'-N/A'
p7908
ssg321
(dp7909
S'MIL'
p7910
S'-15'
p7911
ssg325
(dp7912
S'DEN'
p7913
S'-N/A'
p7914
ssg328
(dp7915
S'DEN'
p7916
S'-N/A'
p7917
ssg331
(dp7918
S'DEN'
p7919
S'-N/A'
p7920
ssg334
(dp7921
S'DEN'
p7922
S'-N/A'
p7923
ssg337
(dp7924
S'DEN'
p7925
S'-N/A'
p7926
ssg340
(dp7927
S'DEN'
p7928
S'-N/A'
p7929
ssg343
(dp7930
S'DEN'
p7931
S'-N/A'
p7932
ssg346
(dp7933
S'DEN'
p7934
S'-N/A'
p7935
ssg349
(dp7936
S'DEN'
p7937
S'-N/A'
p7938
ssg352
(dp7939
S'DEN'
p7940
S'-N/A'
p7941
sssg665
(dp7942
g3
(dp7943
g223
g1036
ssg11
(dp7944
S'MIN'
p7945
g361
ssg15
(dp7946
S'MIN'
p7947
g361
ssg18
(dp7948
S'MIN'
p7949
g361
ssg21
(dp7950
S'MIN'
p7951
g361
ssg24
(dp7952
S'MIN'
p7953
g361
ssg377
(dp7954
S'CLE'
p7955
S'-8'
p7956
ssg27
(dp7957
S'MIN'
p7958
g361
ssg30
(dp7959
S'UTA'
p7960
S'-1.5'
p7961
ssg34
(dp7962
S'LAC'
p7963
g1741
ssg38
(dp7964
S'MIN'
p7965
g361
ssg41
(dp7966
S'MIN'
p7967
g361
ssg44
(dp7968
S'MIN'
p7969
g361
ssg47
(dp7970
S'TOR'
p7971
S'-1'
p7972
ssg51
(dp7973
S'MIN'
p7974
g361
ssg406
(dp7975
S'MIA'
p7976
S'1.5'
p7977
ssg54
(dp7978
S'PHI'
p7979
S'-14'
p7980
ssg58
(dp7981
S'MIN'
p7982
g361
ssg736
(dp7983
g36
S'-4.5'
p7984
ssg61
(dp7985
S'MIN'
p7986
g361
ssg64
(dp7987
S'MIN'
p7988
g361
ssg67
(dp7989
S'MIN'
p7990
g361
ssg70
(dp7991
S'MIN'
p7992
g361
ssg73
(dp7993
S'MIN'
p7994
g361
ssg80
(dp7995
S'MIN'
p7996
g361
ssg83
(dp7997
S'MIN'
p7998
g361
ssg86
(dp7999
S'MIN'
p8000
g361
ssg89
(dp8001
S'MIN'
p8002
g361
ssg96
(dp8003
S'MIN'
p8004
g361
ssg99
(dp8005
S'MIN'
p8006
g361
ssg102
(dp8007
S'MIN'
p8008
g361
ssg105
(dp8009
S'MIN'
p8010
g361
ssg108
(dp8011
S'MIN'
p8012
g361
ssg111
(dp8013
S'WAS'
p8014
S'-2.5'
p8015
ssg115
(dp8016
S'MIN'
p8017
g361
ssg122
(dp8018
S'MEM'
p8019
S'2.5'
p8020
ssg125
(dp8021
S'MIN'
p8022
g361
ssg128
(dp8023
S'MIN'
p8024
g361
ssg131
(dp8025
S'MIN'
p8026
g361
ssg134
(dp8027
S'SAC'
p8028
S'-9.5'
p8029
ssg247
(dp8030
S'MIN'
p8031
g361
ssg148
(dp8032
S'MIN'
p8033
g361
ssg151
(dp8034
S'MIN'
p8035
g361
ssg154
(dp8036
S'MIN'
p8037
g361
ssg157
(dp8038
S'MIN'
p8039
g361
ssg799
(dp8040
g36
S'-3.5'
p8041
ssg160
(dp8042
S'MIN'
p8043
g361
ssg163
(dp8044
S'MIN'
p8045
g361
ssg166
(dp8046
S'MIN'
p8047
g361
ssg169
(dp8048
S'MIN'
p8049
g361
ssg172
(dp8050
S'MIN'
p8051
g361
ssg175
(dp8052
S'MIN'
p8053
g361
ssg1054
(dp8054
S'MIA'
p8055
g14
ssg182
(dp8056
S'MIN'
p8057
g361
ssg185
(dp8058
S'MIN'
p8059
g361
ssg188
(dp8060
S'MIN'
p8061
g361
ssg289
(dp8062
S'MIN'
p8063
g361
ssg194
(dp8064
S'MIN'
p8065
g361
ssg197
(dp8066
S'MIN'
p8067
g361
ssg200
(dp8068
S'MIN'
p8069
g361
ssg203
(dp8070
S'MIN'
p8071
g361
ssg206
(dp8072
S'MIN'
p8073
g361
ssg209
(dp8074
S'MIN'
p8075
g361
ssg212
(dp8076
S'MIN'
p8077
g361
ssg215
(dp8078
S'MIN'
p8079
g361
ssg218
(dp8080
S'MIN'
p8081
g361
ssg221
(dp8082
S'DET'
p8083
S'3.5'
p8084
ssg225
(dp8085
S'MIN'
p8086
g361
ssg228
(dp8087
S'MIN'
p8088
g361
ssg235
(dp8089
S'MIN'
p8090
g361
ssg238
(dp8091
S'MIN'
p8092
g361
ssg241
(dp8093
S'MIN'
p8094
g361
ssg244
(dp8095
S'MIN'
p8096
g361
ssg141
(dp8097
S'MIN'
p8098
g361
ssg250
(dp8099
S'MIN'
p8100
g361
ssg253
(dp8101
S'MIN'
p8102
g361
ssg256
(dp8103
S'MIN'
p8104
g361
ssg259
(dp8105
S'MIN'
p8106
g361
ssg262
(dp8107
S'MIN'
p8108
g361
ssg265
(dp8109
S'MIN'
p8110
g361
ssg268
(dp8111
S'MIN'
p8112
g361
ssg271
(dp8113
S'MIN'
p8114
g361
ssg881
(dp8115
S'DET'
p8116
S'-9.5'
p8117
ssg274
(dp8118
S'MIN'
p8119
g361
ssg277
(dp8120
S'MIN'
p8121
g361
ssg280
(dp8122
S'MIN'
p8123
g361
ssg283
(dp8124
S'MIN'
p8125
g361
ssg286
(dp8126
S'MIN'
p8127
g361
ssg292
(dp8128
S'MIN'
p8129
g361
ssg295
(dp8130
S'MIN'
p8131
g361
ssg298
(dp8132
S'ORL'
p8133
S'-4.5'
p8134
ssg302
(dp8135
S'MIN'
p8136
g361
ssg305
(dp8137
S'MIN'
p8138
g361
ssg308
(dp8139
S'MIN'
p8140
g361
ssg311
(dp8141
S'MIN'
p8142
g361
ssg314
(dp8143
S'DAL'
p8144
S'4.5'
p8145
ssg318
(dp8146
S'MIN'
p8147
g361
ssg321
(dp8148
S'DET'
p8149
S'1.5'
p8150
ssg663
(dp8151
g300
S'12.5'
p8152
ssg325
(dp8153
S'MIN'
p8154
g361
ssg328
(dp8155
S'MIN'
p8156
g361
ssg331
(dp8157
S'MIN'
p8158
g361
ssg334
(dp8159
S'MIN'
p8160
g361
ssg337
(dp8161
S'MIN'
p8162
g361
ssg340
(dp8163
S'MIN'
p8164
g361
ssg343
(dp8165
S'MIN'
p8166
g361
ssg346
(dp8167
S'MIN'
p8168
g361
ssg349
(dp8169
S'MIN'
p8170
g361
ssg352
(dp8171
S'MIN'
p8172
g361
sssg940
(dp8173
g3
(dp8174
S'MIA'
p8175
S'5.5'
p8176
ssg7
(dp8177
g2611
S'-1.5'
p8178
ssg11
(dp8179
g36
S'-8.5'
p8180
ssg15
(dp8181
g36
S'-8.5'
p8182
ssg18
(dp8183
g36
S'-8.5'
p8184
ssg21
(dp8185
g36
S'-8.5'
p8186
ssg24
(dp8187
g36
S'-8.5'
p8188
ssg27
(dp8189
g36
S'-8.5'
p8190
ssg38
(dp8191
g36
S'-8.5'
p8192
ssg41
(dp8193
g36
S'-8.5'
p8194
ssg44
(dp8195
g36
S'-8.5'
p8196
ssg47
(dp8197
S'LAL'
p8198
S'-0'
p8199
ssg51
(dp8200
g36
S'-8.5'
p8201
ssg54
(dp8202
S'MIL'
p8203
S'1.5'
p8204
ssg58
(dp8205
g36
S'-8.5'
p8206
ssg736
(dp8207
S'MIA'
p8208
S'8.5'
p8209
ssg61
(dp8210
g36
S'-8.5'
p8211
ssg64
(dp8212
g36
S'-8.5'
p8213
ssg67
(dp8214
g36
S'-8.5'
p8215
ssg70
(dp8216
g36
S'-8.5'
p8217
ssg73
(dp8218
g36
S'-8.5'
p8219
ssg83
(dp8220
g36
S'-8.5'
p8221
ssg86
(dp8222
g36
S'-8.5'
p8223
ssg89
(dp8224
g36
S'-8.5'
p8225
ssg92
(dp8226
S'CHA'
p8227
S'-4.5'
p8228
ssg439
(dp8229
S'DAL'
p8230
S'2.5'
p8231
ssg96
(dp8232
g36
S'-8.5'
p8233
ssg99
(dp8234
g36
S'-8.5'
p8235
ssg102
(dp8236
g36
S'-8.5'
p8237
ssg105
(dp8238
g36
S'-8.5'
p8239
ssg108
(dp8240
g36
S'-8.5'
p8241
ssg115
(dp8242
g36
S'-8.5'
p8243
ssg125
(dp8244
g36
S'-8.5'
p8245
ssg128
(dp8246
g36
S'-8.5'
p8247
ssg131
(dp8248
g36
S'-8.5'
p8249
ssg134
(dp8250
S'BOS'
p8251
g968
ssg138
(dp8252
S'BOS'
p8253
g1036
ssg6033
(dp8254
S'WAS'
p8255
S'3.5'
p8256
ssg141
(dp8257
g36
S'-8.5'
p8258
ssg144
(dp8259
S'BOS'
p8260
S'-12'
p8261
ssg148
(dp8262
g36
S'-8.5'
p8263
ssg151
(dp8264
g36
S'-8.5'
p8265
ssg154
(dp8266
g36
S'-8.5'
p8267
ssg157
(dp8268
g36
S'-8.5'
p8269
ssg1033
(dp8270
S'POR'
p8271
S'-2.5'
p8272
ssg160
(dp8273
g36
S'-8.5'
p8274
ssg163
(dp8275
g36
S'-8.5'
p8276
ssg166
(dp8277
g36
S'-8.5'
p8278
ssg169
(dp8279
g36
S'-8.5'
p8280
ssg3605
(dp8281
g9
S'-5'
p8282
ssg172
(dp8283
g36
S'-8.5'
p8284
ssg175
(dp8285
g36
S'-8.5'
p8286
ssg178
(dp8287
S'DET'
p8288
S'-4.5'
p8289
ssg182
(dp8290
g36
S'-8.5'
p8291
ssg185
(dp8292
g36
S'-8.5'
p8293
ssg188
(dp8294
g36
S'-8.5'
p8295
ssg289
(dp8296
g36
S'-8.5'
p8297
ssg194
(dp8298
g36
S'-8.5'
p8299
ssg197
(dp8300
g36
S'-8.5'
p8301
ssg200
(dp8302
g36
S'-8.5'
p8303
ssg203
(dp8304
g36
S'-8.5'
p8305
ssg206
(dp8306
g36
S'-8.5'
p8307
ssg551
(dp8308
S'PHI'
p8309
S'-11'
p8310
ssg209
(dp8311
g36
S'-8.5'
p8312
ssg212
(dp8313
g36
S'-8.5'
p8314
ssg215
(dp8315
g36
S'-8.5'
p8316
ssg218
(dp8317
g36
S'-8.5'
p8318
ssg221
(dp8319
S'LAC'
p8320
S'-2'
p8321
ssg225
(dp8322
g36
S'-8.5'
p8323
ssg228
(dp8324
g36
S'-8.5'
p8325
ssg235
(dp8326
g36
S'-8.5'
p8327
ssg238
(dp8328
g36
S'-8.5'
p8329
ssg241
(dp8330
g36
S'-8.5'
p8331
ssg244
(dp8332
g36
S'-8.5'
p8333
ssg247
(dp8334
g36
S'-8.5'
p8335
ssg250
(dp8336
g36
S'-8.5'
p8337
ssg253
(dp8338
g36
S'-8.5'
p8339
ssg256
(dp8340
g36
S'-8.5'
p8341
ssg259
(dp8342
g36
S'-8.5'
p8343
ssg262
(dp8344
g36
S'-8.5'
p8345
ssg265
(dp8346
g36
S'-8.5'
p8347
ssg268
(dp8348
g36
S'-8.5'
p8349
ssg271
(dp8350
g36
S'-8.5'
p8351
ssg881
(dp8352
S'TOR'
p8353
g1741
ssg274
(dp8354
g36
S'-8.5'
p8355
ssg277
(dp8356
g36
S'-8.5'
p8357
ssg280
(dp8358
g36
S'-8.5'
p8359
ssg283
(dp8360
g36
S'-8.5'
p8361
ssg286
(dp8362
g36
S'-8.5'
p8363
ssg1149
(dp8364
S'DET'
p8365
S'4.5'
p8366
ssg292
(dp8367
g36
S'-8.5'
p8368
ssg295
(dp8369
g36
S'-8.5'
p8370
ssg298
(dp8371
g49
S'-13.5'
p8372
ssg302
(dp8373
g36
S'-8.5'
p8374
ssg305
(dp8375
g36
S'-8.5'
p8376
ssg308
(dp8377
g36
S'-8.5'
p8378
ssg311
(dp8379
g36
S'-8.5'
p8380
ssg80
(dp8381
g36
S'-8.5'
p8382
ssg318
(dp8383
g36
S'-8.5'
p8384
ssg325
(dp8385
g36
S'-8.5'
p8386
ssg328
(dp8387
g36
S'-8.5'
p8388
ssg331
(dp8389
g36
S'-8.5'
p8390
ssg334
(dp8391
g36
S'-8.5'
p8392
ssg337
(dp8393
g36
S'-8.5'
p8394
ssg340
(dp8395
g36
S'-8.5'
p8396
ssg343
(dp8397
g36
S'-8.5'
p8398
ssg346
(dp8399
g36
S'-8.5'
p8400
ssg349
(dp8401
g36
S'-8.5'
p8402
ssg352
(dp8403
g36
S'-8.5'
p8404
sssg9
(dp8405
g936
(dp8406
g934
g968
ssg3
(dp8407
g7618
S'15.5'
p8408
ssg7
(dp8409
S'MIL'
p8410
S'-8'
p8411
ssg11
(dp8412
S'POR'
p8413
g1036
ssg15
(dp8414
S'POR'
p8415
g1036
ssg18
(dp8416
S'POR'
p8417
g1036
ssg21
(dp8418
S'POR'
p8419
g1036
ssg24
(dp8420
S'POR'
p8421
g1036
ssg377
(dp8422
S'MEM'
p8423
g79
ssg27
(dp8424
S'POR'
p8425
g1036
ssg30
(dp8426
S'POR'
p8427
S'5.5'
p8428
ssg38
(dp8429
S'POR'
p8430
g1036
ssg41
(dp8431
S'POR'
p8432
g1036
ssg44
(dp8433
S'POR'
p8434
g1036
ssg51
(dp8435
S'POR'
p8436
g1036
ssg406
(dp8437
S'DAL'
p8438
g10
ssg54
(dp8439
g704
g968
ssg58
(dp8440
S'POR'
p8441
g1036
ssg736
(dp8442
S'LAL'
p8443
S'-10.5'
p8444
ssg61
(dp8445
S'POR'
p8446
g1036
ssg64
(dp8447
S'POR'
p8448
g1036
ssg67
(dp8449
S'POR'
p8450
g1036
ssg70
(dp8451
S'POR'
p8452
g1036
ssg73
(dp8453
S'POR'
p8454
g1036
ssg80
(dp8455
S'POR'
p8456
g1036
ssg83
(dp8457
S'POR'
p8458
g1036
ssg86
(dp8459
S'POR'
p8460
g1036
ssg89
(dp8461
S'POR'
p8462
g1036
ssg92
(dp8463
S'SAC'
p8464
S'-6.5'
p8465
ssg96
(dp8466
S'POR'
p8467
g1036
ssg99
(dp8468
S'POR'
p8469
g1036
ssg102
(dp8470
S'POR'
p8471
g1036
ssg105
(dp8472
S'POR'
p8473
g1036
ssg108
(dp8474
S'POR'
p8475
g1036
ssg111
(dp8476
S'CLE'
p8477
S'4.5'
p8478
ssg115
(dp8479
S'POR'
p8480
g1036
ssg122
(dp8481
S'ATL'
p8482
g14
ssg125
(dp8483
S'POR'
p8484
g1036
ssg128
(dp8485
S'POR'
p8486
g1036
ssg131
(dp8487
S'POR'
p8488
g1036
ssg138
(dp8489
S'LAL'
p8490
S'-9.5'
p8491
ssg141
(dp8492
S'POR'
p8493
g1036
ssg148
(dp8494
S'POR'
p8495
g1036
ssg151
(dp8496
S'POR'
p8497
g1036
ssg154
(dp8498
S'POR'
p8499
g1036
ssg157
(dp8500
S'POR'
p8501
g1036
ssg799
(dp8502
S'MEM'
p8503
S'-1'
p8504
ssg160
(dp8505
S'POR'
p8506
g1036
ssg163
(dp8507
S'POR'
p8508
g1036
ssg166
(dp8509
S'POR'
p8510
g1036
ssg169
(dp8511
S'POR'
p8512
g1036
ssg3605
(dp8513
S'IND'
p8514
g95
ssg172
(dp8515
S'POR'
p8516
g1036
ssg175
(dp8517
S'POR'
p8518
g1036
ssg178
(dp8519
S'OKC'
p8520
S'-4'
p8521
ssg182
(dp8522
S'POR'
p8523
g1036
ssg185
(dp8524
S'POR'
p8525
g1036
ssg188
(dp8526
S'POR'
p8527
g1036
ssg289
(dp8528
S'POR'
p8529
g1036
ssg1065
(dp8530
S'MIA'
p8531
g968
ssg194
(dp8532
S'POR'
p8533
g1036
ssg197
(dp8534
S'POR'
p8535
g1036
ssg200
(dp8536
S'POR'
p8537
g1036
ssg203
(dp8538
S'POR'
p8539
g1036
ssg206
(dp8540
S'POR'
p8541
g1036
ssg551
(dp8542
S'DEN'
p8543
S'-4.5'
p8544
ssg209
(dp8545
S'POR'
p8546
g1036
ssg212
(dp8547
S'POR'
p8548
g1036
ssg215
(dp8549
S'POR'
p8550
g1036
ssg218
(dp8551
S'POR'
p8552
g1036
ssg221
(dp8553
g704
S'3.5'
p8554
ssg1090
(dp8555
S'MIA'
p8556
g968
ssg1093
(dp8557
S'MIA'
p8558
g968
ssg225
(dp8559
S'POR'
p8560
g1036
ssg228
(dp8561
S'POR'
p8562
g1036
ssg235
(dp8563
S'POR'
p8564
g1036
ssg238
(dp8565
S'POR'
p8566
g1036
ssg241
(dp8567
S'POR'
p8568
g1036
ssg244
(dp8569
S'POR'
p8570
g1036
ssg247
(dp8571
S'POR'
p8572
g1036
ssg250
(dp8573
S'POR'
p8574
g1036
ssg253
(dp8575
S'POR'
p8576
g1036
ssg256
(dp8577
S'POR'
p8578
g1036
ssg259
(dp8579
S'POR'
p8580
g1036
ssg262
(dp8581
S'POR'
p8582
g1036
ssg1122
(dp8583
S'MIA'
p8584
g968
ssg265
(dp8585
S'POR'
p8586
g1036
ssg268
(dp8587
S'POR'
p8588
g1036
ssg271
(dp8589
S'POR'
p8590
g1036
ssg881
(dp8591
S'CLE'
p8592
S'-1.5'
p8593
ssg274
(dp8594
S'POR'
p8595
g1036
ssg277
(dp8596
S'POR'
p8597
g1036
ssg280
(dp8598
S'POR'
p8599
g1036
ssg283
(dp8600
S'POR'
p8601
g1036
ssg286
(dp8602
S'POR'
p8603
g1036
ssg1149
(dp8604
S'ORL'
p8605
S'-5'
p8606
ssg292
(dp8607
S'POR'
p8608
g1036
ssg295
(dp8609
S'POR'
p8610
g1036
ssg298
(dp8611
S'DET'
p8612
S'-5'
p8613
ssg302
(dp8614
S'POR'
p8615
g1036
ssg305
(dp8616
S'POR'
p8617
g1036
ssg308
(dp8618
S'POR'
p8619
g1036
ssg311
(dp8620
S'POR'
p8621
g1036
ssg314
(dp8622
g704
S'15'
p8623
ssg318
(dp8624
S'POR'
p8625
g1036
ssg321
(dp8626
S'DAL'
p8627
S'8.5'
p8628
ssg325
(dp8629
S'POR'
p8630
g1036
ssg328
(dp8631
S'POR'
p8632
g1036
ssg331
(dp8633
S'POR'
p8634
g1036
ssg334
(dp8635
S'POR'
p8636
g1036
ssg337
(dp8637
S'POR'
p8638
g1036
ssg340
(dp8639
S'POR'
p8640
g1036
ssg1191
(dp8641
S'MIA'
p8642
g968
ssg343
(dp8643
S'POR'
p8644
g1036
ssg346
(dp8645
S'POR'
p8646
g1036
ssg349
(dp8647
S'POR'
p8648
g1036
ssg352
(dp8649
S'POR'
p8650
g1036
sss.