(dp0
S'MIL'
p1
(dp2
S'NOV 08, 2014'
p3
(dp4
S'MEM'
p5
S'4.5'
p6
ssS'NOV 07, 2014'
p7
(dp8
S'DET'
p9
S'5'
p10
ssS'FEB 27, 2015'
p11
(dp12
S'LAL'
p13
S'-6.5'
p14
ssS'NOV 04, 2014'
p15
(dp16
S'IND'
p17
S'4'
p18
ssS'JAN 04, 2015'
p19
(dp20
S'NYK'
p21
S'-7'
p22
ssS'MAR 22, 2015'
p23
(dp24
S'CLE'
p25
S'8'
p26
ssS'DEC 02, 2014'
p27
(dp28
S'CLE'
p29
S'10.5'
p30
ssS'NOV 11, 2014'
p31
(dp32
S'OKC'
p33
S'-2'
p34
ssS'NOV 22, 2014'
p35
(dp36
S'WAS'
p37
S'3'
p38
ssS'APR 10, 2015'
p39
(dp40
g21
S'-11'
p41
ssS'NOV 05, 2014'
p42
(dp43
S'CHI'
p44
g10
ssS'DEC 23, 2014'
p45
(dp46
S'CHA'
p47
S'-5.5'
p48
ssS'JAN 29, 2015'
p49
(dp50
S'ORL'
p51
S'-4'
p52
ssS'DEC 05, 2014'
p53
(dp54
S'MIA'
p55
S'1.5'
p56
ssS'NOV 29, 2014'
p57
(dp58
S'HOU'
p59
S'-3.5'
p60
ssS'JAN 19, 2015'
p61
(dp62
S'TOR'
p63
S'-1.5'
p64
ssS'NOV 25, 2014'
p65
(dp66
S'DET'
p67
S'-3.5'
p68
ssS'JAN 02, 2015'
p69
(dp70
S'IND'
p71
S'-1.5'
p72
ssS'DEC 26, 2014'
p73
(dp74
S'ATL'
p75
S'9'
p76
ssS'JAN 24, 2015'
p77
(dp78
S'DET'
p79
g38
ssS'DEC 03, 2014'
p80
(dp81
S'DAL'
p82
g18
ssS'DEC 31, 2014'
p83
(dp84
S'CLE'
p85
S'-1'
p86
ssS'DEC 29, 2014'
p87
(dp88
S'CHA'
p89
g38
ssS'MAR 07, 2015'
p90
(dp91
S'WAS'
p92
S'-4.5'
p93
ssS'APR 03, 2015'
p94
(dp95
S'BOS'
p96
g10
ssS'MAR 12, 2015'
p97
(dp98
S'IND'
p99
S'7'
p100
ssS'MAR 20, 2015'
p101
(dp102
S'BKN'
p103
S'2'
p104
ssS'DEC 13, 2014'
p105
(dp106
S'LAC'
p107
S'5.5'
p108
ssS'NOV 14, 2014'
p109
(dp110
S'ORL'
p111
S'2.5'
p112
ssS'JAN 22, 2015'
p113
(dp114
S'UTA'
p115
S'-8.5'
p116
ssS'FEB 11, 2015'
p117
(dp118
S'SAC'
p119
S'-10'
p120
ssS'MAR 26, 2015'
p121
(dp122
S'IND'
p123
S'-4'
p124
ssS'MAR 09, 2015'
p125
(dp126
S'NOP'
p127
S'1.5'
p128
ssS'MAR 28, 2015'
p129
(dp130
S'GSW'
p131
g10
ssS'DEC 20, 2014'
p132
(dp133
S'LAC'
p134
S'10'
p135
ssS'DEC 27, 2014'
p136
(dp137
S'ATL'
p138
S'4.5'
p139
ssS'OCT 29, 2014'
p140
(dp141
S'CHA'
p142
g26
ssS'JAN 09, 2015'
p143
(dp144
S'MIN'
p145
S'-9.5'
p146
ssS'NOV 18, 2014'
p147
(dp148
g21
S'-1.5'
p149
ssS'FEB 09, 2015'
p150
(dp151
g103
S'-5.5'
p152
ssS'NOV 01, 2014'
p153
(dp154
S'WAS'
p155
g76
ssS'FEB 04, 2015'
p156
(dp157
S'LAL'
p158
S'-9.5'
p159
ssS'FEB 28, 2015'
p160
(dp161
S'UTA'
p162
S'3.5'
p163
ssS'JAN 06, 2015'
p164
(dp165
S'PHX'
p166
S'4.5'
p167
ssS'APR 13, 2015'
p168
(dp169
S'PHI'
p170
S'-3.5'
p171
ssS'FEB 20, 2015'
p172
(dp173
S'DEN'
p174
S'-8.5'
p175
ssS'NOV 28, 2014'
p176
(dp177
S'DET'
p178
g104
ssS'MAR 11, 2015'
p179
(dp180
S'ORL'
p181
S'-8'
p182
ssS'JAN 07, 2015'
p183
(dp184
S'PHI'
p185
S'-6.5'
p186
ssS'NOV 16, 2014'
p187
(dp188
S'MIA'
p189
g10
ssS'MAR 17, 2015'
p190
(dp191
g127
g100
ssS'JAN 15, 2015'
p192
(dp193
g21
S'-8'
p194
ssS'NOV 19, 2014'
p195
(dp196
g103
S'6.5'
p197
ssS'NOV 26, 2014'
p198
(dp199
S'MIN'
p200
S'-1.5'
p201
ssS'FEB 22, 2015'
p202
(dp203
S'ATL'
p204
g10
ssS'FEB 07, 2015'
p205
(dp206
S'BOS'
p207
S'-6.5'
p208
ssS'APR 15, 2015'
p209
(dp210
S'BOS'
p211
S'-6'
p212
ssS'DEC 18, 2014'
p213
(dp214
S'SAC'
p215
S'7.5'
p216
ssS'JAN 31, 2015'
p217
(dp218
S'POR'
p219
g104
ssS'FEB 23, 2015'
p220
(dp221
S'CHI'
p222
g100
ssS'MAR 04, 2015'
p223
(dp224
g131
S'13.5'
p225
ssS'MAR 24, 2015'
p226
(dp227
S'MIA'
p228
g104
ssS'DEC 07, 2014'
p229
(dp230
S'DAL'
p231
g76
ssS'JAN 10, 2015'
p232
(dp233
S'CHI'
p234
S'6'
p235
ssS'JAN 25, 2015'
p236
(dp237
S'SAS'
p238
S'11.5'
p239
ssS'MAR 18, 2015'
p240
(dp241
g238
S'5.5'
p242
ssS'JAN 27, 2015'
p243
(dp244
S'MIA'
p245
g104
ssS'APR 01, 2015'
p246
(dp247
S'CHI'
p248
g10
ssS'MAR 14, 2015'
p249
(dp250
S'MEM'
p251
S'6.5'
p252
ssS'DEC 09, 2014'
p253
(dp254
S'OKC'
p255
S'10'
p256
ssS'APR 08, 2015'
p257
(dp258
S'CLE'
p259
S'6.5'
p260
ssS'OCT 31, 2014'
p261
(dp262
S'PHI'
p263
S'-8.5'
p264
ssS'APR 12, 2015'
p265
(dp266
g103
S'-1'
p267
ssS'APR 04, 2015'
p268
(dp269
S'ORL'
p270
S'-9'
p271
ssS'FEB 25, 2015'
p272
(dp273
S'PHI'
p274
S'-10.5'
p275
ssS'FEB 06, 2015'
p276
(dp277
g59
S'5.5'
p278
ssS'MAR 30, 2015'
p279
(dp280
S'ATL'
p281
g76
ssS'DEC 15, 2014'
p282
(dp283
g166
S'5.5'
p284
ssS'DEC 17, 2014'
p285
(dp286
S'POR'
p287
S'10'
p288
ssS'MAR 03, 2015'
p289
(dp290
S'DEN'
p291
S'-5.5'
p292
ssS'NOV 21, 2014'
p293
(dp294
S'TOR'
p295
g76
ssS'FEB 02, 2015'
p296
(dp297
S'TOR'
p298
g235
sssg131
(dp299
g202
(dp300
S'IND'
p301
S'-4'
p302
ssg3
(dp303
g59
S'-3.5'
p304
ssS'NOV 23, 2014'
p305
(dp306
S'OKC'
p307
S'-8'
p308
ssg11
(dp309
S'TOR'
p310
S'-2'
p311
ssS'APR 11, 2015'
p312
(dp313
S'MIN'
p314
S'-20'
p315
ssS'NOV 15, 2014'
p316
(dp317
S'CHA'
p318
S'-11'
p319
ssg27
(dp320
S'ORL'
p321
S'-14.5'
p322
ssS'JAN 23, 2015'
p323
(dp324
S'SAC'
p325
S'-15.5'
p326
ssg198
(dp327
S'ORL'
p328
S'-8'
p329
ssg42
(dp330
S'LAC'
p331
S'-5'
p332
ssg45
(dp333
S'LAL'
p334
S'-10'
p335
ssg172
(dp336
g238
S'-7.5'
p337
ssg153
(dp338
S'LAL'
p339
S'-14'
p340
ssg101
(dp341
g127
S'-13.5'
p342
ssg61
(dp343
S'DEN'
p344
S'-13.5'
p345
ssg65
(dp346
S'MIA'
p347
S'-7.5'
p348
ssS'NOV 13, 2014'
p349
(dp350
g103
S'-10.5'
p351
ssg69
(dp352
S'TOR'
p353
S'-4.5'
p354
ssS'MAR 08, 2015'
p355
(dp356
S'LAC'
p357
S'-8.5'
p358
ssg226
(dp359
S'POR'
p360
S'-7'
p361
ssS'DEC 25, 2014'
p362
(dp363
S'LAC'
p364
g104
ssS'MAR 27, 2015'
p365
(dp366
S'MEM'
p367
S'-3.5'
p368
ssS'JAN 17, 2015'
p369
(dp370
g59
g104
ssS'MAR 21, 2015'
p371
(dp372
S'UTA'
p373
S'-9'
p374
ssS'MAR 31, 2015'
p375
(dp376
S'LAC'
p377
g38
ssS'MAR 16, 2015'
p378
(dp379
S'LAL'
p380
S'-18'
p381
ssS'NOV 02, 2014'
p382
(dp383
S'POR'
p384
S'3.5'
p385
ssS'MAR 06, 2015'
p386
(dp387
S'DAL'
p388
S'-11.5'
p389
ssg105
(dp390
S'DAL'
p391
S'-0'
p392
ssS'JAN 05, 2015'
p393
(dp394
S'OKC'
p395
S'-3.5'
p396
ssg140
(dp397
S'SAC'
p398
S'-4.5'
p399
ssg117
(dp400
S'MIN'
p401
S'-9.5'
p402
ssg136
(dp403
S'MIN'
p404
S'-18.5'
p405
ssg125
(dp406
g166
S'-5.5'
p407
ssg129
(dp408
S'MIL'
p409
S'-5'
p410
ssS'DEC 06, 2014'
p411
(dp412
S'CHI'
p413
S'-2'
p414
ssS'DEC 04, 2014'
p415
(dp416
g127
S'-9.5'
p417
ssS'JAN 14, 2015'
p418
(dp419
S'MIA'
p420
S'-15'
p421
ssg143
(dp422
S'CLE'
p423
S'-13'
p424
ssS'FEB 26, 2015'
p425
(dp426
S'CLE'
p427
g38
ssS'NOV 30, 2014'
p428
(dp429
S'DET'
p430
S'-8.5'
p431
ssS'DEC 08, 2014'
p432
(dp433
S'MIN'
p434
S'-14.5'
p435
ssS'JAN 13, 2015'
p436
(dp437
S'UTA'
p438
S'-8.5'
p439
ssS'APR 02, 2015'
p440
(dp441
g166
S'-12.5'
p442
ssg156
(dp443
S'DAL'
p444
S'-8'
p445
ssS'FEB 03, 2015'
p446
(dp447
S'SAC'
p448
S'-10'
p449
ssg168
(dp450
S'MEM'
p451
S'-8'
p452
ssS'FEB 24, 2015'
p453
(dp454
S'WAS'
p455
S'-6.5'
p456
ssg176
(dp457
S'CHA'
p458
S'-8.5'
p459
ssS'MAR 02, 2015'
p460
(dp461
g103
S'-5.5'
p462
ssg183
(dp463
S'IND'
p464
S'-11.5'
p465
ssg187
(dp466
S'LAL'
p467
S'-8'
p468
ssS'DEC 16, 2014'
p469
(dp470
S'MEM'
p471
S'3.5'
p472
ssS'APR 09, 2015'
p473
(dp474
S'POR'
p475
S'-10.5'
p476
ssS'APR 07, 2015'
p477
(dp478
g127
S'-4.5'
p479
ssS'DEC 22, 2014'
p480
(dp481
S'SAC'
p482
S'-11'
p483
ssS'APR 05, 2015'
p484
(dp485
g238
S'4.5'
p486
ssg205
(dp487
g21
S'-15'
p488
ssg209
(dp489
S'DEN'
p490
S'-11.5'
p491
ssS'DEC 30, 2014'
p492
(dp493
S'PHI'
p494
S'-17.5'
p495
ssg213
(dp496
S'OKC'
p497
S'-2.5'
p498
ssg179
(dp499
S'DET'
p500
S'-14.5'
p501
ssg150
(dp502
S'PHI'
p503
S'-15.5'
p504
ssg223
(dp505
S'MIL'
p506
S'-13.5'
p507
ssS'DEC 10, 2014'
p508
(dp509
g59
S'-9'
p510
ssg240
(dp511
S'ATL'
p512
S'-7'
p513
ssg236
(dp514
S'BOS'
p515
S'-18'
p516
ssg249
(dp517
g21
S'-19.5'
p518
ssg243
(dp519
S'CHI'
p520
S'-11.5'
p521
ssS'MAR 23, 2015'
p522
(dp523
S'WAS'
p524
S'-11'
p525
ssg31
(dp526
g238
S'-7.5'
p527
ssS'NOV 09, 2014'
p528
(dp529
g166
S'2.5'
p530
ssg217
(dp531
g166
S'-10.5'
p532
ssS'MAR 01, 2015'
p533
(dp534
S'BOS'
p535
S'-8.5'
p536
ssS'DEC 14, 2014'
p537
(dp538
g127
S'-6.5'
p539
ssg268
(dp540
S'DAL'
p541
S'-6.5'
p542
ssg276
(dp543
S'ATL'
p544
S'-2'
p545
ssS'MAR 13, 2015'
p546
(dp547
S'DEN'
p548
S'2.5'
p549
ssS'JAN 30, 2015'
p550
(dp551
S'UTA'
p552
S'-10'
p553
ssS'JAN 21, 2015'
p554
(dp555
g59
S'-8'
p556
ssS'JAN 16, 2015'
p557
(dp558
S'OKC'
p559
S'-1'
p560
ssg293
(dp561
S'UTA'
p562
S'-12.5'
p563
sssS'MIN'
p564
(dp565
S'JAN 26, 2015'
p566
(dp567
S'OKC'
p568
S'13.5'
p569
ssg3
(dp570
S'MIA'
p571
S'7.5'
p572
ssS'NOV 12, 2014'
p573
(dp574
g59
S'6.5'
p575
ssg11
(dp576
S'CHI'
p577
S'5.5'
p578
ssg312
(dp579
g131
S'20'
p580
ssg316
(dp581
S'DAL'
p582
S'11.5'
p583
ssg23
(dp584
S'CHA'
p585
g10
ssg323
(dp586
g127
S'6.5'
p587
ssg35
(dp588
S'SAC'
p589
g76
ssg39
(dp590
S'LAL'
p591
g10
ssg42
(dp592
g103
g10
ssg223
(dp593
S'DEN'
p594
S'-7'
p595
ssg53
(dp596
g59
g100
ssg537
(dp597
S'LAL'
p598
g18
ssg61
(dp599
S'CHA'
p600
g235
ssg246
(dp601
S'TOR'
p602
S'10'
p603
ssg217
(dp604
S'CLE'
p605
S'10.5'
p606
ssg73
(dp607
S'DEN'
p608
S'10'
p609
ssg80
(dp610
S'PHI'
p611
S'-7'
p612
ssS'DEC 19, 2014'
p613
(dp614
S'BOS'
p615
g235
ssg369
(dp616
S'DEN'
p617
S'11.5'
p618
ssg232
(dp619
g238
S'10'
p620
ssg90
(dp621
S'POR'
p622
g10
ssg378
(dp623
g103
g10
ssg94
(dp624
S'ORL'
p625
S'4.5'
p626
ssg150
(dp627
S'ATL'
p628
S'6.5'
p629
ssS'DEC 21, 2014'
p630
(dp631
S'IND'
p632
S'3.5'
p633
ssS'MAR 29, 2015'
p634
(dp635
g127
S'13'
p636
ssg393
(dp637
S'DEN'
p638
g10
ssg109
(dp639
g127
g26
ssg117
(dp640
g131
S'9.5'
p641
ssS'DEC 01, 2014'
p642
(dp643
S'LAC'
p644
S'15'
p645
ssg125
(dp646
S'LAC'
p647
S'7.5'
p648
ssg411
(dp649
g238
S'14'
p650
ssS'FEB 08, 2015'
p651
(dp652
S'DET'
p653
g26
ssg140
(dp654
S'MEM'
p655
S'7.5'
p656
ssg136
(dp657
g131
S'18.5'
p658
ssg143
(dp659
S'MIL'
p660
S'9.5'
p661
ssg428
(dp662
S'POR'
p663
S'14'
p664
ssg432
(dp665
g131
S'14.5'
p666
ssg436
(dp667
S'IND'
p668
S'11'
p669
ssg153
(dp670
S'CHI'
p671
g104
ssS'DEC 12, 2014'
p672
(dp673
S'OKC'
p674
S'8.5'
p675
ssg156
(dp676
S'MIA'
p677
S'-2'
p678
ssg160
(dp679
S'MEM'
p680
S'5.5'
p681
ssg168
(dp682
g127
S'14.5'
p683
ssS'MAR 19, 2015'
p684
(dp685
g21
g104
ssg172
(dp686
g166
S'-1.5'
p687
ssg176
(dp688
S'LAL'
p689
S'5.5'
p690
ssg460
(dp691
S'LAC'
p692
S'6.5'
p693
ssg183
(dp694
g166
g26
ssg257
(dp695
S'POR'
p696
S'16.5'
p697
ssg469
(dp698
S'WAS'
p699
S'12'
p700
ssg195
(dp701
g21
S'-1'
p702
ssg198
(dp703
S'MIL'
p704
S'1.5'
p705
ssg477
(dp706
S'SAC'
p707
S'8.5'
p708
ssg209
(dp709
S'OKC'
p710
S'14'
p711
ssg492
(dp712
S'UTA'
p713
g100
ssg179
(dp714
g166
S'4.5'
p715
ssg220
(dp716
g59
g26
ssg45
(dp717
S'CLE'
p718
S'14'
p719
ssg508
(dp720
S'POR'
p721
S'10'
p722
ssg240
(dp723
S'TOR'
p724
S'11'
p725
ssS'OCT 30, 2014'
p726
(dp727
S'DET'
p728
S'-5.5'
p729
ssg236
(dp730
S'ATL'
p731
S'17.5'
p732
ssg522
(dp733
S'UTA'
p734
S'10'
p735
ssS'JAN 28, 2015'
p736
(dp737
S'BOS'
p738
g18
ssg365
(dp739
g59
S'14'
p740
ssS'MAR 15, 2015'
p741
(dp742
g238
S'14'
p743
ssg7
(dp744
S'ORL'
p745
S'-4'
p746
ssg272
(dp747
S'WAS'
p748
S'-2.5'
p749
ssg276
(dp750
S'MEM'
p751
S'8.5'
p752
ssg546
(dp753
S'OKC'
p754
S'10'
p755
ssg279
(dp756
S'UTA'
p757
g26
ssS'JAN 03, 2015'
p758
(dp759
S'UTA'
p760
S'-1.5'
p761
ssg550
(dp762
S'PHI'
p763
S'-4'
p764
ssS'JAN 01, 2015'
p765
(dp766
S'SAC'
p767
S'4.5'
p768
ssg554
(dp769
S'DAL'
p770
S'9.5'
p771
ssS'MAR 25, 2015'
p772
(dp773
S'LAL'
p774
S'-1'
p775
ssg557
(dp776
g166
S'13.5'
p777
ssg293
(dp778
g238
S'11'
p779
ssg296
(dp780
S'DAL'
p781
S'10'
p782
sssS'TOR'
p783
(dp784
g35
(dp785
S'CLE'
p786
g38
ssg528
(dp787
S'PHI'
p788
S'-13.5'
p789
ssg11
(dp790
g131
g104
ssg15
(dp791
S'OKC'
p792
S'-11.5'
p793
ssg312
(dp794
S'MIA'
p795
S'3.5'
p796
ssg316
(dp797
S'UTA'
p798
S'-11.5'
p799
ssg19
(dp800
g166
S'1'
p801
ssg27
(dp802
S'SAC'
p803
S'-2.5'
p804
ssg323
(dp805
S'PHI'
p806
S'-13'
p807
ssg257
(dp808
S'CHA'
p809
S'-3.5'
p810
ssg39
(dp811
S'ORL'
p812
S'-5'
p813
ssg42
(dp814
S'BOS'
p815
g104
ssg223
(dp816
S'CLE'
p817
g10
ssg53
(dp818
S'CLE'
p819
S'-4.5'
p820
ssg101
(dp821
S'CHI'
p822
S'1.5'
p823
ssg61
(dp824
S'MIL'
p825
S'1.5'
p826
ssg349
(dp827
S'CHI'
p828
S'-2.5'
p829
ssg69
(dp830
g131
S'4.5'
p831
ssg355
(dp832
S'OKC'
p833
S'6.5'
p834
ssg80
(dp835
S'UTA'
p836
S'-3.5'
p837
ssg613
(dp838
S'DET'
p839
S'-7'
p840
ssg537
(dp841
g21
S'-7'
p842
ssg232
(dp843
S'BOS'
p844
S'-11.5'
p845
ssg268
(dp846
S'BOS'
p847
S'-2'
p848
ssS'JAN 12, 2015'
p849
(dp850
S'DET'
p851
S'-6'
p852
ssg378
(dp853
S'IND'
p854
g10
ssg94
(dp855
g103
g104
ssg285
(dp856
g103
S'-12.5'
p857
ssg382
(dp858
S'MIA'
p859
g104
ssg386
(dp860
S'CHA'
p861
g801
ssS'DEC 28, 2014'
p862
(dp863
S'DEN'
p864
S'-2.5'
p865
ssg140
(dp866
S'ATL'
p867
S'-4.5'
p868
ssg117
(dp869
S'WAS'
p870
S'-5'
p871
ssg136
(dp872
S'LAC'
p873
S'4.5'
p874
ssg432
(dp875
S'DEN'
p876
S'-10'
p877
ssg198
(dp878
S'ATL'
p879
S'-3.5'
p880
ssg172
(dp881
S'ATL'
p882
S'5.5'
p883
ssg480
(dp884
S'CHI'
p885
g18
ssg418
(dp886
S'PHI'
p887
S'-17.5'
p888
ssS'MAR 10, 2015'
p889
(dp890
g238
g100
ssg246
(dp891
S'MIN'
p892
S'-10'
p893
ssS'APR 14, 2015'
p894
(dp895
S'BOS'
p896
S'-0'
p897
ssg153
(dp898
S'ORL'
p899
S'-6'
p900
ssg156
(dp901
g103
S'-7.5'
p902
ssg160
(dp903
g21
S'-10.5'
p904
ssg557
(dp905
S'ATL'
p906
g104
ssg453
(dp907
S'DAL'
p908
S'4.5'
p909
ssg176
(dp910
S'DAL'
p911
S'-3.5'
p912
ssg226
(dp913
S'DET'
p914
S'-4'
p915
ssg428
(dp916
S'LAL'
p917
S'-7'
p918
ssg195
(dp919
S'MEM'
p920
S'-6'
p921
ssS'JAN 08, 2015'
p922
(dp923
S'CHA'
p924
S'-12.5'
p925
ssg651
(dp926
g238
g104
ssg209
(dp927
S'CHA'
p928
S'-10.5'
p929
ssg492
(dp930
S'POR'
p931
S'3.5'
p932
ssS'JAN 18, 2015'
p933
(dp934
g127
S'-11'
p935
ssg217
(dp936
S'WAS'
p937
g10
ssg220
(dp938
g127
S'-7.5'
p939
ssg23
(dp940
g21
S'-12'
p941
ssg460
(dp942
S'PHI'
p943
S'-9.5'
p944
ssg240
(dp945
S'MIN'
p946
S'-11'
p947
ssg236
(dp948
S'DET'
p949
S'-8'
p950
ssg630
(dp951
g21
S'-12.5'
p952
ssg243
(dp953
S'IND'
p954
S'-3'
p955
ssg31
(dp956
S'ORL'
p957
S'-10.5'
p958
ssg736
(dp959
S'SAC'
p960
S'-5.5'
p961
ssg253
(dp962
S'CLE'
p963
g235
ssg365
(dp964
S'LAL'
p965
S'-8'
p966
ssg741
(dp967
S'POR'
p968
S'-1.5'
p969
ssS'NOV 24, 2014'
p970
(dp971
g166
S'-4.5'
p972
ssg7
(dp973
S'WAS'
p974
S'-4'
p975
ssg276
(dp976
S'LAC'
p977
g801
ssg546
(dp978
S'MIA'
p979
S'-5'
p980
ssg279
(dp981
g59
S'-2'
p982
ssg282
(dp983
S'ORL'
p984
S'-6.5'
p985
ssg550
(dp986
g103
S'-7.5'
p987
ssg672
(dp988
S'IND'
p989
S'-9'
p990
ssg554
(dp991
S'MEM'
p992
g235
ssg772
(dp993
S'CHI'
p994
g38
ssg293
(dp995
S'MIL'
p996
S'-9'
p997
ssS'FEB 21, 2015'
p998
(dp999
g59
g104
ssg296
(dp1000
S'MIL'
p1001
S'-6'
p1002
sssS'ATL'
p1003
(dp1004
g202
(dp1005
S'MIL'
p1006
S'-5'
p1007
ssg3
(dp1008
g21
S'-6.5'
p1009
ssg573
(dp1010
S'UTA'
p1011
S'-7'
p1012
ssg11
(dp1013
S'ORL'
p1014
S'-11'
p1015
ssg316
(dp1016
S'CLE'
p1017
g100
ssg27
(dp1018
S'BOS'
p1019
S'-7'
p1020
ssg323
(dp1021
S'OKC'
p1022
S'-3.5'
p1023
ssg257
(dp1024
g103
S'4.5'
p1025
ssg39
(dp1026
S'CHA'
p1027
S'-10'
p1028
ssg42
(dp1029
g238
g26
ssg45
(dp1030
S'LAC'
p1031
S'-1.5'
p1032
ssg53
(dp1033
g103
S'-1'
p1034
ssg101
(dp1035
S'OKC'
p1036
g801
ssg61
(dp1037
S'DET'
p1038
S'-7.5'
p1039
ssg65
(dp1040
S'WAS'
p1041
g18
ssg69
(dp1042
S'UTA'
p1043
S'-4.5'
p1044
ssg73
(dp1045
S'MIL'
p1046
S'-9'
p1047
ssg140
(dp1048
S'TOR'
p1049
S'4.5'
p1050
ssg80
(dp1051
S'MIA'
p1052
S'4.5'
p1053
ssg285
(dp1054
S'CLE'
p1055
g100
ssg369
(dp1056
S'CHI'
p1057
S'-3.5'
p1058
ssg90
(dp1059
S'PHI'
p1060
S'-7.5'
p1061
ssg375
(dp1062
S'DET'
p1063
S'-2'
p1064
ssg378
(dp1065
S'SAC'
p1066
S'-4.5'
p1067
ssg386
(dp1068
S'CLE'
p1069
S'1.5'
p1070
ssg229
(dp1071
S'DEN'
p1072
S'-6'
p1073
ssg393
(dp1074
S'LAC'
p1075
S'5.5'
p1076
ssg109
(dp1077
S'MIA'
p1078
S'-5'
p1079
ssg117
(dp1080
S'BOS'
p1081
S'-6.5'
p1082
ssg136
(dp1083
S'MIL'
p1084
S'-4.5'
p1085
ssg125
(dp1086
S'SAC'
p1087
S'-11'
p1088
ssg129
(dp1089
S'CHA'
p1090
g235
ssg132
(dp1091
g59
g10
ssg480
(dp1092
S'DAL'
p1093
S'4.5'
p1094
ssg418
(dp1095
S'BOS'
p1096
S'-5.5'
p1097
ssg293
(dp1098
S'DET'
p1099
S'-6'
p1100
ssg143
(dp1101
S'DET'
p1102
S'-2.5'
p1103
ssg147
(dp1104
S'LAL'
p1105
S'-8.5'
p1106
ssg432
(dp1107
S'IND'
p1108
g801
ssg436
(dp1109
S'PHI'
p1110
S'-10.5'
p1111
ssg153
(dp1112
S'IND'
p1113
S'-10.5'
p1114
ssg156
(dp1115
S'WAS'
p1116
S'-6'
p1117
ssg160
(dp1118
S'MIA'
p1119
S'-2.5'
p1120
ssg168
(dp1121
g21
S'-14.5'
p1122
ssg172
(dp1123
S'TOR'
p1124
S'-5.5'
p1125
ssg176
(dp1126
g127
S'-2.5'
p1127
ssg179
(dp1128
S'DEN'
p1129
S'-7'
p1130
ssg183
(dp1131
S'MEM'
p1132
S'-4.5'
p1133
ssg240
(dp1134
g131
g100
ssS'NOV 10, 2014'
p1135
(dp1136
g21
S'-2'
p1137
ssg477
(dp1138
g166
S'-7'
p1139
ssg651
(dp1140
S'MEM'
p1141
g38
ssg209
(dp1142
S'CHI'
p1143
g10
ssg492
(dp1144
S'CLE'
p1145
S'-6.5'
p1146
ssg105
(dp1147
S'ORL'
p1148
S'-3'
p1149
ssS'JAN 11, 2015'
p1150
(dp1151
S'WAS'
p1152
S'-4.5'
p1153
ssg150
(dp1154
S'MIN'
p1155
S'-6.5'
p1156
ssg23
(dp1157
g238
S'-1.5'
p1158
ssg508
(dp1159
S'PHI'
p1160
S'-13'
p1161
ssg772
(dp1162
S'ORL'
p1163
S'-9'
p1164
ssg57
(dp1165
S'CHA'
p1166
S'-7'
p1167
ssg236
(dp1168
S'MIN'
p1169
S'-17.5'
p1170
ssg736
(dp1171
g103
S'-14'
p1172
ssg217
(dp1173
S'PHI'
p1174
S'-16.5'
p1175
ssg365
(dp1176
S'MIA'
p1177
S'-8'
p1178
ssg741
(dp1179
S'LAL'
p1180
S'-6.5'
p1181
ssg198
(dp1182
S'TOR'
p1183
S'3.5'
p1184
ssg265
(dp1185
S'WAS'
p1186
S'9.5'
p1187
ssg268
(dp1188
g103
S'-10.5'
p1189
ssg272
(dp1190
S'DAL'
p1191
S'-9'
p1192
ssg276
(dp1193
g131
g104
ssg546
(dp1194
g166
S'-6.5'
p1195
ssg279
(dp1196
S'MIL'
p1197
S'-9'
p1198
ssg758
(dp1199
S'POR'
p1200
g235
ssg282
(dp1201
S'CHI'
p1202
S'-2.5'
p1203
ssg550
(dp1204
S'POR'
p1205
S'-5'
p1206
ssg672
(dp1207
S'ORL'
p1208
S'-9'
p1209
ssg554
(dp1210
S'IND'
p1211
S'-10.5'
p1212
ssg289
(dp1213
g59
S'-8.5'
p1214
ssg557
(dp1215
S'TOR'
p1216
S'-2'
p1217
ssg7
(dp1218
S'CHA'
p1219
S'1.5'
p1220
ssg296
(dp1221
g127
S'-3'
p1222
sssS'BOS'
p1223
(dp1224
g566
(dp1225
S'UTA'
p1226
S'7.5'
p1227
ssg3
(dp1228
S'CHI'
p1229
S'9.5'
p1230
ssg305
(dp1231
S'POR'
p1232
g10
ssg11
(dp1233
S'CHA'
p1234
S'-1.5'
p1235
ssg23
(dp1236
S'DET'
p1237
S'-5.5'
p1238
ssg27
(dp1239
S'ATL'
p1240
g100
ssg323
(dp1241
S'DEN'
p1242
S'6.5'
p1243
ssg257
(dp1244
S'DET'
p1245
S'-1.5'
p1246
ssg39
(dp1247
S'CLE'
p1248
g235
ssg42
(dp1249
S'TOR'
p1250
S'-2'
p1251
ssg223
(dp1252
S'UTA'
p1253
S'-1'
p1254
ssg229
(dp1255
S'WAS'
p1256
S'3.5'
p1257
ssg53
(dp1258
S'LAL'
p1259
S'-3'
p1260
ssg573
(dp1261
S'OKC'
p1262
S'-7.5'
p1263
ssS'NOV 03, 2014'
p1264
(dp1265
S'DAL'
p1266
S'9.5'
p1267
ssg61
(dp1268
S'LAC'
p1269
S'12'
p1270
ssg69
(dp1271
S'DAL'
p1272
g235
ssg355
(dp1273
S'ORL'
p1274
S'-2.5'
p1275
ssg73
(dp1276
g103
S'-1.5'
p1277
ssg101
(dp1278
g238
S'8.5'
p1279
ssg80
(dp1280
S'DET'
p1281
S'-5'
p1282
ssg613
(dp1283
S'MIN'
p1284
S'-6'
p1285
ssg365
(dp1286
g21
S'-11'
p1287
ssg83
(dp1288
S'SAC'
p1289
g104
ssg232
(dp1290
S'TOR'
p1291
S'11.5'
p1292
ssg630
(dp1293
S'MIA'
p1294
S'-3.5'
p1295
ssg849
(dp1296
g127
S'5.5'
p1297
ssg378
(dp1298
S'PHI'
p1299
S'-8.5'
p1300
ssg94
(dp1301
S'MIL'
p1302
S'-5'
p1303
ssg386
(dp1304
g127
g100
ssg634
(dp1305
S'LAC'
p1306
g235
ssg393
(dp1307
S'CHA'
p1308
S'-5.5'
p1309
ssg109
(dp1310
S'CLE'
p1311
g235
ssg117
(dp1312
S'ATL'
p1313
S'6.5'
p1314
ssg136
(dp1315
S'WAS'
p1316
S'9.5'
p1317
ssg125
(dp1318
S'MIA'
p1319
S'2.5'
p1320
ssg140
(dp1321
g103
S'0'
p1322
ssg172
(dp1323
S'SAC'
p1324
g18
ssS'NOV 17, 2014'
p1325
(dp1326
g166
S'1.5'
p1327
ssg672
(dp1328
g21
S'-6.5'
p1329
ssg418
(dp1330
S'ATL'
p1331
S'5.5'
p1332
ssg143
(dp1333
S'IND'
p1334
g235
ssg432
(dp1335
S'WAS'
p1336
S'8.5'
p1337
ssg894
(dp1338
S'TOR'
p1339
g1322
ssg153
(dp1340
g59
S'7.5'
p1341
ssg156
(dp1342
S'DEN'
p1343
S'-3.5'
p1344
ssg446
(dp1345
g21
S'-1'
p1346
ssS'FEB 01, 2015'
p1347
(dp1348
S'MIA'
p1349
S'-3.5'
p1350
ssg557
(dp1351
S'CHI'
p1352
g10
ssg176
(dp1353
S'CHI'
p1354
S'3.5'
p1355
ssg179
(dp1356
S'MEM'
p1357
S'6.5'
p1358
ssg183
(dp1359
g103
g10
ssg428
(dp1360
g238
S'7.5'
p1361
ssg240
(dp1362
S'OKC'
p1363
S'6.5'
p1364
ssg195
(dp1365
S'PHI'
p1366
S'-6.5'
p1367
ssg202
(dp1368
S'LAL'
p1369
S'-3'
p1370
ssg205
(dp1371
S'MIL'
p1372
S'6.5'
p1373
ssg209
(dp1374
S'MIL'
p1375
g235
ssg246
(dp1376
S'IND'
p1377
S'-4'
p1378
ssg220
(dp1379
g166
g26
ssg45
(dp1380
S'ORL'
p1381
g104
ssg508
(dp1382
S'CHA'
p1383
g38
ssg772
(dp1384
S'MIA'
p1385
S'-8.5'
p1386
ssg113
(dp1387
S'POR'
p1388
g100
ssg236
(dp1389
g131
S'18'
p1390
ssg249
(dp1391
S'IND'
p1392
S'8.5'
p1393
ssg522
(dp1394
g103
g10
ssg736
(dp1395
S'MIN'
p1396
S'-4'
p1397
ssg533
(dp1398
g131
S'8.5'
p1399
ssg293
(dp1400
S'MEM'
p1401
S'6.5'
p1402
ssg265
(dp1403
S'CLE'
p1404
S'-10.5'
p1405
ssg268
(dp1406
S'TOR'
p1407
g104
ssg272
(dp1408
g21
S'-10.5'
p1409
ssg276
(dp1410
S'PHI'
p1411
S'-8.5'
p1412
ssg546
(dp1413
S'ORL'
p1414
S'-5'
p1415
ssg279
(dp1416
S'CHA'
p1417
g38
ssg758
(dp1418
S'CHI'
p1419
S'10'
p1420
ssg282
(dp1421
S'PHI'
p1422
S'-5'
p1423
ssg550
(dp1424
g59
g100
ssg285
(dp1425
S'ORL'
p1426
S'-3.5'
p1427
ssg289
(dp1428
S'CLE'
p1429
S'11'
p1430
ssg7
(dp1431
S'IND'
p1432
S'-5.5'
p1433
sssS'DET'
p1434
(dp1435
g528
(dp1436
S'UTA'
p1437
S'-3.5'
p1438
ssg11
(dp1439
g21
S'-13'
p1440
ssg630
(dp1441
g103
g104
ssg316
(dp1442
S'MEM'
p1443
S'9.5'
p1444
ssg19
(dp1445
S'SAC'
p1446
S'-3.5'
p1447
ssg27
(dp1448
S'LAL'
p1449
S'-2'
p1450
ssg257
(dp1451
S'BOS'
p1452
S'1.5'
p1453
ssg39
(dp1454
S'IND'
p1455
S'5.5'
p1456
ssg42
(dp1457
g21
S'-4'
p1458
ssg223
(dp1459
g127
g10
ssg172
(dp1460
S'CHI'
p1461
g235
ssg573
(dp1462
S'WAS'
p1463
g235
ssg229
(dp1464
S'OKC'
p1465
S'10'
p1466
ssg61
(dp1467
S'ATL'
p1468
S'7.5'
p1469
ssg65
(dp1470
S'MIL'
p1471
S'3.5'
p1472
ssS'FEB 10, 2015'
p1473
(dp1474
S'CHA'
p1475
g104
ssg69
(dp1476
g21
S'-4.5'
p1477
ssg355
(dp1478
S'CHA'
p1479
g801
ssg73
(dp1480
S'IND'
p1481
g38
ssg77
(dp1482
S'MIL'
p1483
S'-3'
p1484
ssg80
(dp1485
S'BOS'
p1486
g10
ssg613
(dp1487
S'TOR'
p1488
g100
ssg369
(dp1489
S'PHI'
p1490
S'-13'
p1491
ssg232
(dp1492
g103
S'-5.5'
p1493
ssg371
(dp1494
S'CHI'
p1495
g38
ssg849
(dp1496
S'TOR'
p1497
g235
ssg375
(dp1498
S'ATL'
p1499
g104
ssg94
(dp1500
S'CHI'
p1501
S'9.5'
p1502
ssg285
(dp1503
S'DAL'
p1504
g100
ssg386
(dp1505
g59
S'7.5'
p1506
ssg634
(dp1507
S'MIA'
p1508
S'2.5'
p1509
ssg293
(dp1510
S'ATL'
p1511
g235
ssg109
(dp1512
S'OKC'
p1513
g38
ssg117
(dp1514
g238
S'6.5'
p1515
ssg140
(dp1516
S'DEN'
p1517
S'6.5'
p1518
ssg411
(dp1519
S'PHI'
p1520
S'-9.5'
p1521
ssg1325
(dp1522
S'ORL'
p1523
S'-4.5'
p1524
ssg651
(dp1525
S'MIN'
p1526
S'-8'
p1527
ssg418
(dp1528
g127
S'-4'
p1529
ssg889
(dp1530
S'LAL'
p1531
S'-3.5'
p1532
ssg143
(dp1533
S'ATL'
p1534
S'2.5'
p1535
ssg153
(dp1536
g103
S'-3'
p1537
ssg156
(dp1538
S'IND'
p1539
S'4.5'
p1540
ssg446
(dp1541
S'MIA'
p1542
S'-4'
p1543
ssg164
(dp1544
g238
g26
ssg168
(dp1545
S'CLE'
p1546
g26
ssg453
(dp1547
S'CLE'
p1548
S'6.5'
p1549
ssg176
(dp1550
S'MIL'
p1551
S'-2'
p1552
ssg179
(dp1553
g131
S'14.5'
p1554
ssg183
(dp1555
S'DAL'
p1556
g76
ssg428
(dp1557
g131
S'8.5'
p1558
ssg190
(dp1559
S'MEM'
p1560
S'4.5'
p1561
ssg195
(dp1562
g166
S'2.5'
p1563
ssg1135
(dp1564
S'CHI'
p1565
S'10'
p1566
ssg202
(dp1567
S'WAS'
p1568
g104
ssg209
(dp1569
g21
S'-9'
p1570
ssg492
(dp1571
S'ORL'
p1572
S'-2'
p1573
ssg105
(dp1574
S'SAC'
p1575
g10
ssg217
(dp1576
g59
S'4.5'
p1577
ssg23
(dp1578
S'BOS'
p1579
S'5.5'
p1580
ssg226
(dp1581
S'TOR'
p1582
g18
ssg240
(dp1583
S'PHI'
p1584
S'-0'
p1585
ssg726
(dp1586
S'MIN'
p1587
S'5.5'
p1588
ssg236
(dp1589
S'TOR'
p1590
g26
ssg249
(dp1591
S'UTA'
p1592
g26
ssg243
(dp1593
S'CLE'
p1594
S'8.5'
p1595
ssg246
(dp1596
S'CHA'
p1597
S'5.5'
p1598
ssg736
(dp1599
S'PHI'
p1600
S'-8'
p1601
ssg253
(dp1602
S'POR'
p1603
g26
ssg365
(dp1604
S'ORL'
p1605
S'-2.5'
p1606
ssg198
(dp1607
S'LAC'
p1608
S'8.5'
p1609
ssg265
(dp1610
S'CHA'
p1611
S'-8.5'
p1612
ssg268
(dp1613
S'MIA'
p1614
S'4.5'
p1615
ssg276
(dp1616
S'DEN'
p1617
S'-6.5'
p1618
ssg546
(dp1619
S'POR'
p1620
g26
ssg282
(dp1621
S'LAC'
p1622
S'11.5'
p1623
ssg672
(dp1624
g166
S'9.5'
p1625
ssg554
(dp1626
S'ORL'
p1627
S'-8.5'
p1628
ssg160
(dp1629
S'WAS'
p1630
S'4.5'
p1631
ssg557
(dp1632
S'IND'
p1633
g801
ssg7
(dp1634
S'MIL'
p1635
S'-5'
p1636
ssg862
(dp1637
S'CLE'
p1638
S'7.5'
p1639
sssg21
(dp1640
g566
(dp1641
S'SAC'
p1642
g10
ssg3
(dp1643
g1003
S'6.5'
p1644
ssg573
(dp1645
S'ORL'
p1646
S'-6.5'
p1647
ssg11
(dp1648
S'DET'
p1649
S'13'
p1650
ssg15
(dp1651
S'WAS'
p1652
g104
ssg312
(dp1653
S'ORL'
p1654
S'11'
p1655
ssg19
(dp1656
S'MIL'
p1657
g100
ssg27
(dp1658
g103
g801
ssg323
(dp1659
S'ORL'
p1660
g38
ssg35
(dp1661
S'PHI'
p1662
S'-11'
p1663
ssg39
(dp1664
S'MIL'
p1665
S'11'
p1666
ssg42
(dp1667
S'DET'
p1668
g18
ssg223
(dp1669
S'IND'
p1670
S'13.5'
p1671
ssg49
(dp1672
S'IND'
p1673
g26
ssg53
(dp1674
S'CHA'
p1675
S'4.5'
p1676
ssg229
(dp1677
S'POR'
p1678
S'6.5'
p1679
ssg61
(dp1680
g127
S'7.5'
p1681
ssg69
(dp1682
S'DET'
p1683
S'4.5'
p1684
ssg469
(dp1685
S'DAL'
p1686
S'7.5'
p1687
ssg77
(dp1688
S'CHA'
p1689
g76
ssg362
(dp1690
S'WAS'
p1691
g10
ssg365
(dp1692
S'BOS'
p1693
S'11'
p1694
ssg83
(dp1695
S'LAC'
p1696
S'13'
p1697
ssg232
(dp1698
S'CHA'
p1699
S'7.5'
p1700
ssg90
(dp1701
S'IND'
p1702
g76
ssg94
(dp1703
S'WAS'
p1704
S'14.5'
p1705
ssg537
(dp1706
S'TOR'
p1707
g100
ssg382
(dp1708
S'CHA'
p1709
S'-3.5'
p1710
ssg97
(dp1711
S'LAL'
p1712
g100
ssg101
(dp1713
S'PHI'
p1714
S'5.5'
p1715
ssg862
(dp1716
S'POR'
p1717
S'11.5'
p1718
ssg393
(dp1719
S'MEM'
p1720
S'14.5'
p1721
ssg109
(dp1722
S'UTA'
p1723
S'-3.5'
p1724
ssg117
(dp1725
S'ORL'
p1726
g235
ssg136
(dp1727
S'SAC'
p1728
g235
ssg125
(dp1729
S'DEN'
p1730
S'10'
p1731
ssg129
(dp1732
S'CHI'
p1733
S'17.5'
p1734
ssg132
(dp1735
g166
g235
ssg415
(dp1736
S'CLE'
p1737
S'7.5'
p1738
ssg140
(dp1739
S'CHI'
p1740
S'4.5'
p1741
ssg889
(dp1742
S'UTA'
p1743
S'13.5'
p1744
ssg246
(dp1745
g103
S'9.5'
p1746
ssg147
(dp1747
S'MIL'
p1748
S'1.5'
p1749
ssg428
(dp1750
S'MIA'
p1751
g38
ssg446
(dp1752
S'BOS'
p1753
g801
ssg160
(dp1754
S'TOR'
p1755
S'10.5'
p1756
ssg1347
(dp1757
S'LAL'
p1758
S'-3'
p1759
ssg168
(dp1760
S'ATL'
p1761
S'14.5'
p1762
ssg684
(dp1763
S'MIN'
p1764
S'-2'
p1765
ssg172
(dp1766
S'MIA'
p1767
g100
ssg176
(dp1768
S'OKC'
p1769
g26
ssg183
(dp1770
S'WAS'
p1771
S'14.5'
p1772
ssg187
(dp1773
S'DEN'
p1774
S'-2'
p1775
ssg190
(dp1776
g238
S'14.5'
p1777
ssg192
(dp1778
S'MIL'
p1779
g26
ssg195
(dp1780
S'MIN'
p1781
g801
ssg1135
(dp1782
S'ATL'
p1783
g104
ssg202
(dp1784
S'CLE'
p1785
S'17'
p1786
ssg484
(dp1787
S'PHI'
p1788
g1322
ssg205
(dp1789
g131
S'15'
p1790
ssg209
(dp1791
S'DET'
p1792
g76
ssg213
(dp1793
S'CHI'
p1794
S'12.5'
p1795
ssg150
(dp1796
S'MIA'
p1797
S'4.5'
p1798
ssg23
(dp1799
S'TOR'
p1800
S'12'
p1801
ssg508
(dp1802
g238
S'10'
p1803
ssg772
(dp1804
S'LAC'
p1805
S'15'
p1806
ssg726
(dp1807
S'CLE'
p1808
S'13'
p1809
ssg249
(dp1810
g131
S'19.5'
p1811
ssg522
(dp1812
S'MEM'
p1813
S'14'
p1814
ssg736
(dp1815
S'OKC'
p1816
S'8.5'
p1817
ssg253
(dp1818
g127
S'6.5'
p1819
ssg257
(dp1820
S'IND'
p1821
S'11'
p1822
ssg741
(dp1823
g166
S'11.5'
p1824
ssg198
(dp1825
S'DAL'
p1826
S'14'
p1827
ssg970
(dp1828
g59
g235
ssg7
(dp1829
g103
g235
ssg272
(dp1830
S'BOS'
p1831
S'10.5'
p1832
ssg276
(dp1833
g103
S'6.5'
p1834
ssg672
(dp1835
S'BOS'
p1836
S'6.5'
p1837
ssg554
(dp1838
S'PHI'
p1839
S'-3'
p1840
ssg289
(dp1841
S'SAC'
p1842
S'4.5'
p1843
ssg630
(dp1844
S'TOR'
p1845
S'12.5'
p1846
ssg922
(dp1847
g59
S'12.5'
p1848
sssS'DEN'
p1849
(dp1850
g566
(dp1851
S'LAC'
p1852
S'14'
p1853
ssg758
(dp1854
S'MEM'
p1855
S'-1.5'
p1856
ssg528
(dp1857
S'POR'
p1858
g76
ssg11
(dp1859
S'UTA'
p1860
S'4.5'
p1861
ssg23
(dp1862
S'ORL'
p1863
S'-1'
p1864
ssg27
(dp1865
S'POR'
p1866
g38
ssg323
(dp1867
S'BOS'
p1868
S'-6.5'
p1869
ssg257
(dp1870
S'LAL'
p1871
S'-10'
p1872
ssg39
(dp1873
S'DAL'
p1874
S'-1.5'
p1875
ssg42
(dp1876
S'SAC'
p1877
S'3.5'
p1878
ssg223
(dp1879
S'MIN'
p1880
g100
ssg49
(dp1881
S'MEM'
p1882
S'9.5'
p1883
ssS'JAN 20, 2015'
p1884
(dp1885
g238
g76
ssg53
(dp1886
S'WAS'
p1887
S'4.5'
p1888
ssg1264
(dp1889
S'SAC'
p1890
S'-6.5'
p1891
ssg61
(dp1892
g131
S'13.5'
p1893
ssg65
(dp1894
S'CHI'
p1895
S'-4.5'
p1896
ssg1473
(dp1897
S'LAL'
p1898
S'1.5'
p1899
ssg862
(dp1900
S'TOR'
p1901
S'2.5'
p1902
ssg73
(dp1903
S'MIN'
p1904
S'-10'
p1905
ssg101
(dp1906
S'MIA'
p1907
S'7.5'
p1908
ssg140
(dp1909
S'DET'
p1910
S'-6.5'
p1911
ssg179
(dp1912
S'ATL'
p1913
g100
ssg613
(dp1914
S'LAC'
p1915
g38
ssg365
(dp1916
S'UTA'
p1917
S'-2'
p1918
ssg369
(dp1919
S'MIN'
p1920
S'-11.5'
p1921
ssg90
(dp1922
g59
g18
ssg378
(dp1923
S'MEM'
p1924
S'12.5'
p1925
ssg94
(dp1926
g238
S'13'
p1927
ssg537
(dp1928
g238
g10
ssg386
(dp1929
g238
S'11'
p1930
ssg229
(dp1931
S'ATL'
p1932
g235
ssg393
(dp1933
S'MIN'
p1934
S'-5'
p1935
ssg109
(dp1936
S'IND'
p1937
S'2.5'
p1938
ssg642
(dp1939
S'UTA'
p1940
S'-4'
p1941
ssg125
(dp1942
g21
S'-10'
p1943
ssg129
(dp1944
S'POR'
p1945
g76
ssg132
(dp1946
S'IND'
p1947
S'-3'
p1948
ssg202
(dp1949
S'OKC'
p1950
S'8.5'
p1951
ssg480
(dp1952
S'CHA'
p1953
S'2.5'
p1954
ssg418
(dp1955
S'DAL'
p1956
S'-5'
p1957
ssg143
(dp1958
S'SAC'
p1959
g10
ssg432
(dp1960
S'TOR'
p1961
S'10'
p1962
ssg150
(dp1963
S'OKC'
p1964
S'6.5'
p1965
ssg153
(dp1966
S'OKC'
p1967
S'-4.5'
p1968
ssg156
(dp1969
S'BOS'
p1970
S'3.5'
p1971
ssg446
(dp1972
S'PHI'
p1973
S'-7.5'
p1974
ssg168
(dp1975
S'LAC'
p1976
S'18'
p1977
ssg684
(dp1978
g59
g100
ssg172
(dp1979
S'MIL'
p1980
S'8.5'
p1981
ssg176
(dp1982
g166
S'-2'
p1983
ssg183
(dp1984
S'ORL'
p1985
S'-7'
p1986
ssg187
(dp1987
g21
g104
ssg285
(dp1988
g59
g38
ssg195
(dp1989
S'OKC'
p1990
S'-7'
p1991
ssg198
(dp1992
g166
S'7.5'
p1993
ssg305
(dp1994
S'LAL'
p1995
S'-1.5'
p1996
ssg209
(dp1997
g131
S'11.5'
p1998
ssg492
(dp1999
S'LAL'
p2000
S'-5.5'
p2001
ssg105
(dp2002
g59
g100
ssg573
(dp2003
S'POR'
p2004
S'-2.5'
p2005
ssg220
(dp2006
g103
S'2.5'
p2007
ssg45
(dp2008
g103
g18
ssg508
(dp2009
S'MIA'
p2010
S'-6'
p2011
ssg772
(dp2012
S'PHI'
p2013
S'-11.5'
p2014
ssg236
(dp2015
S'WAS'
p2016
S'3.5'
p2017
ssg246
(dp2018
S'UTA'
p2019
g10
ssg736
(dp2020
g127
g235
ssg217
(dp2021
S'CHA'
p2022
S'-4.5'
p2023
ssg533
(dp2024
g127
S'4.5'
p2025
ssg741
(dp2026
g127
S'7.5'
p2027
ssg293
(dp2028
g127
S'2.5'
p2029
ssg265
(dp2030
S'SAC'
p2031
S'-8.5'
p2032
ssg268
(dp2033
S'LAC'
p2034
S'10'
p2035
ssg272
(dp2036
g166
g235
ssg276
(dp2037
S'DET'
p2038
S'6.5'
p2039
ssg546
(dp2040
g131
S'-2.5'
p2041
ssg1325
(dp2042
S'CLE'
p2043
S'11.5'
p2044
ssg765
(dp2045
S'CHI'
p2046
S'10.5'
p2047
ssg289
(dp2048
S'MIL'
p2049
S'5.5'
p2050
ssg557
(dp2051
S'DAL'
p2052
g26
ssg7
(dp2053
S'CLE'
p2054
S'6.5'
p2055
sssS'DAL'
p2056
(dp2057
g202
(dp2058
S'CHA'
p2059
S'-9.5'
p2060
ssg35
(dp2061
g59
S'-4'
p2062
ssg528
(dp2063
S'MIA'
p2064
S'-8'
p2065
ssg862
(dp2066
S'OKC'
p2067
S'-2'
p2068
ssg316
(dp2069
S'MIN'
p2070
S'-11.5'
p2071
ssg19
(dp2072
S'CLE'
p2073
S'-7.5'
p2074
ssg27
(dp2075
S'CHI'
p2076
g801
ssg323
(dp2077
S'CHI'
p2078
S'-5.5'
p2079
ssg257
(dp2080
g166
S'-8.5'
p2081
ssg39
(dp2082
S'DEN'
p2083
S'1.5'
p2084
ssg45
(dp2085
g166
S'1.5'
p2086
ssg172
(dp2087
g59
S'-2.5'
p2088
ssg53
(dp2089
g166
S'-6'
p2090
ssg153
(dp2091
g127
S'-0'
p2092
ssg1264
(dp2093
S'BOS'
p2094
S'-9.5'
p2095
ssg61
(dp2096
S'MEM'
p2097
g38
ssS'NOV 06, 2014'
p2098
(dp2099
S'POR'
p2100
g104
ssg349
(dp2101
S'PHI'
p2102
S'-13.5'
p2103
ssg69
(dp2104
S'BOS'
p2105
S'-6'
p2106
ssg355
(dp2107
S'LAL'
p2108
S'-7.5'
p2109
ssg73
(dp2110
S'LAL'
p2111
S'-13'
p2112
ssg101
(dp2113
S'MEM'
p2114
S'-2.5'
p2115
ssg970
(dp2116
S'IND'
p2117
S'-14'
p2118
ssg80
(dp2119
S'MIL'
p2120
S'-4'
p2121
ssg217
(dp2122
S'ORL'
p2123
S'-7'
p2124
ssg232
(dp2125
S'LAC'
p2126
S'3.5'
p2127
ssg378
(dp2128
S'OKC'
p2129
S'-6'
p2130
ssg386
(dp2131
g131
S'11.5'
p2132
ssg634
(dp2133
S'IND'
p2134
g104
ssg393
(dp2135
g103
S'-7'
p2136
ssg268
(dp2137
g131
S'6.5'
p2138
ssg117
(dp2139
S'UTA'
p2140
S'-5'
p2141
ssg132
(dp2142
g238
S'-11'
p2143
ssg480
(dp2144
S'ATL'
p2145
S'-4.5'
p2146
ssg418
(dp2147
S'DEN'
p2148
g10
ssg889
(dp2149
S'CLE'
p2150
g18
ssg246
(dp2151
S'OKC'
p2152
S'2.5'
p2153
ssg226
(dp2154
g238
S'3.5'
p2155
ssS'FEB 05, 2015'
p2156
(dp2157
S'SAC'
p2158
S'-3'
p2159
ssg436
(dp2160
S'SAC'
p2161
S'-5'
p2162
ssg440
(dp2163
g59
S'-2.5'
p2164
ssg156
(dp2165
g131
g26
ssg1325
(dp2166
S'CHA'
p2167
S'-4'
p2168
ssS'FEB 19, 2015'
p2169
(dp2170
S'OKC'
p2171
g10
ssg168
(dp2172
S'UTA'
p2173
g235
ssg453
(dp2174
S'TOR'
p2175
S'-4.5'
p2176
ssg176
(dp2177
S'TOR'
p2178
S'3.5'
p2179
ssg460
(dp2180
g127
S'-8'
p2181
ssg183
(dp2182
S'DET'
p2183
S'-9'
p2184
ssg469
(dp2185
g21
S'-7.5'
p2186
ssg240
(dp2187
S'ORL'
p2188
S'-12.5'
p2189
ssg195
(dp2190
S'WAS'
p2191
S'-2.5'
p2192
ssg198
(dp2193
g21
S'-14'
p2194
ssS'OCT 28, 2014'
p2195
(dp2196
g238
S'3.5'
p2197
ssg205
(dp2198
S'POR'
p2199
S'-2.5'
p2200
ssg209
(dp2201
S'POR'
p2202
S'-6'
p2203
ssg492
(dp2204
S'WAS'
p2205
S'-5'
p2206
ssg105
(dp2207
g131
g1322
ssg150
(dp2208
S'LAC'
p2209
S'-8'
p2210
ssg23
(dp2211
g166
S'-4.5'
p2212
ssg508
(dp2213
g127
S'-7'
p2214
ssg229
(dp2215
S'MIL'
p2216
S'-9'
p2217
ssg57
(dp2218
S'PHI'
p2219
S'-12.5'
p2220
ssg726
(dp2221
S'UTA'
p2222
S'-10.5'
p2223
ssg236
(dp2224
g127
S'-3.5'
p2225
ssg243
(dp2226
S'MEM'
p2227
S'-6'
p2228
ssS'MAR 05, 2015'
p2229
(dp2230
S'POR'
p2231
S'2.5'
p2232
ssg31
(dp2233
S'SAC'
p2234
S'-8'
p2235
ssg736
(dp2236
g59
g18
ssg253
(dp2237
S'MEM'
p2238
S'2.5'
p2239
ssg365
(dp2240
g238
S'8.5'
p2241
ssg265
(dp2242
S'LAL'
p2243
S'-6'
p2244
ssg7
(dp2245
S'UTA'
p2246
S'-2.5'
p2247
ssg272
(dp2248
S'ATL'
p2249
g76
ssg546
(dp2250
S'LAC'
p2251
S'-2.5'
p2252
ssg550
(dp2253
S'MIA'
p2254
S'-7.5'
p2255
ssg285
(dp2256
S'DET'
p2257
S'-7'
p2258
ssg554
(dp2259
S'MIN'
p2260
S'-9.5'
p2261
ssg160
(dp2262
g103
S'-8'
p2263
ssg557
(dp2264
S'DEN'
p2265
S'-8'
p2266
ssg293
(dp2267
S'LAL'
p2268
S'-11'
p2269
ssg296
(dp2270
S'MIN'
p2271
S'-10'
p2272
sssg103
(dp2273
g566
(dp2274
S'POR'
p2275
g26
ssg35
(dp2276
g238
S'10.5'
p2277
ssg528
(dp2278
S'ORL'
p2279
S'-8.5'
p2280
ssg11
(dp2281
g59
g26
ssg316
(dp2282
S'POR'
p2283
S'2.5'
p2284
ssg19
(dp2285
S'MIA'
p2286
S'-2'
p2287
ssg27
(dp2288
g21
S'-1'
p2289
ssg257
(dp2290
S'ATL'
p2291
S'-4.5'
p2292
ssg39
(dp2293
S'WAS'
p2294
S'-5'
p2295
ssg42
(dp2296
S'MIN'
p2297
S'-5'
p2298
ssg223
(dp2299
S'CHA'
p2300
S'-5.5'
p2301
ssg53
(dp2302
S'ATL'
p2303
g801
ssg573
(dp2304
g166
S'4.5'
p2305
ssg1264
(dp2306
S'OKC'
p2307
S'-6.5'
p2308
ssS'APR 06, 2015'
p2309
(dp2310
S'POR'
p2311
S'-6'
p2312
ssg246
(dp2313
g21
S'-9.5'
p2314
ssg349
(dp2315
g131
S'10.5'
p2316
ssg69
(dp2317
S'ORL'
p2318
S'-2.5'
p2319
ssg355
(dp2320
S'UTA'
p2321
S'-2'
p2322
ssg73
(dp2323
S'BOS'
p2324
S'1.5'
p2325
ssg77
(dp2326
S'UTA'
p2327
g18
ssg80
(dp2328
g238
S'8.5'
p2329
ssg613
(dp2330
S'CLE'
p2331
S'10.5'
p2332
ssg369
(dp2333
S'WAS'
p2334
S'5.5'
p2335
ssg87
(dp2336
S'SAC'
p2337
S'-1'
p2338
ssg371
(dp2339
S'IND'
p2340
S'8.5'
p2341
ssg849
(dp2342
g59
g100
ssg378
(dp2343
S'MIN'
p2344
S'-5'
p2345
ssg94
(dp2346
S'TOR'
p2347
S'-2'
p2348
ssg386
(dp2349
g166
S'-2.5'
p2350
ssg634
(dp2351
S'LAL'
p2352
S'-8'
p2353
ssg393
(dp2354
S'DAL'
p2355
g100
ssg140
(dp2356
S'BOS'
p2357
S'-0'
p2358
ssg136
(dp2359
S'IND'
p2360
S'-3'
p2361
ssg432
(dp2362
S'CLE'
p2363
g26
ssg172
(dp2364
S'LAL'
p2365
S'-3'
p2366
ssg418
(dp2367
S'MEM'
p2368
g100
ssg889
(dp2369
g127
S'-2.5'
p2370
ssg143
(dp2371
S'PHI'
p2372
S'-10.5'
p2373
ssg150
(dp2374
S'MIL'
p2375
S'5.5'
p2376
ssg153
(dp2377
S'DET'
p2378
g38
ssg156
(dp2379
S'TOR'
p2380
S'7.5'
p2381
ssg1325
(dp2382
S'MIA'
p2383
S'-8'
p2384
ssg160
(dp2385
S'DAL'
p2386
g26
ssg168
(dp2387
S'CHI'
p2388
g104
ssg375
(dp2389
S'IND'
p2390
g801
ssg113
(dp2391
S'LAC'
p2392
S'13.5'
p2393
ssg557
(dp2394
S'WAS'
p2395
S'9.5'
p2396
ssg460
(dp2397
g131
S'5.5'
p2398
ssg183
(dp2399
S'BOS'
p2400
S'-5'
p2401
ssg428
(dp2402
S'CHI'
p2403
S'2.5'
p2404
ssg469
(dp2405
S'MIA'
p2406
S'-6'
p2407
ssg101
(dp2408
S'MIL'
p2409
S'-2'
p2410
ssg195
(dp2411
S'MIL'
p2412
S'-6.5'
p2413
ssg198
(dp2414
S'PHI'
p2415
S'-7'
p2416
ssg205
(dp2417
S'WAS'
p2418
S'6.5'
p2419
ssg209
(dp2420
S'ORL'
p2421
S'-9'
p2422
ssg492
(dp2423
S'CHI'
p2424
S'10'
p2425
ssg105
(dp2426
S'CHA'
p2427
g18
ssg179
(dp2428
S'MIA'
p2429
S'4.5'
p2430
ssg220
(dp2431
S'DEN'
p2432
S'-2.5'
p2433
ssg45
(dp2434
S'DEN'
p2435
S'-4'
p2436
ssg508
(dp2437
S'CHI'
p2438
S'11'
p2439
ssg240
(dp2440
S'CLE'
p2441
S'12'
p2442
ssg232
(dp2443
S'DET'
p2444
S'5.5'
p2445
ssg249
(dp2446
S'PHI'
p2447
S'-6.5'
p2448
ssg522
(dp2449
S'BOS'
p2450
S'-5'
p2451
ssg736
(dp2452
S'ATL'
p2453
S'14'
p2454
ssg365
(dp2455
S'CLE'
p2456
g76
ssg1473
(dp2457
S'MEM'
p2458
S'13'
p2459
ssg293
(dp2460
S'OKC'
p2461
S'1.5'
p2462
ssg265
(dp2463
S'MIL'
p2464
g801
ssg268
(dp2465
S'ATL'
p2466
S'10.5'
p2467
ssg272
(dp2468
g127
S'-2.5'
p2469
ssg276
(dp2470
g21
S'-6.5'
p2471
ssg672
(dp2472
S'PHI'
p2473
S'-6.5'
p2474
ssg550
(dp2475
S'TOR'
p2476
S'7.5'
p2477
ssg285
(dp2478
S'TOR'
p2479
S'12.5'
p2480
ssg554
(dp2481
S'SAC'
p2482
S'5.5'
p2483
ssg772
(dp2484
S'CHA'
p2485
S'3.5'
p2486
ssg630
(dp2487
S'DET'
p2488
S'-2'
p2489
ssg7
(dp2490
g21
S'-6'
p2491
ssg296
(dp2492
S'LAC'
p2493
S'8.5'
p2494
sssS'POR'
p2495
(dp2496
g566
(dp2497
g103
S'-8'
p2498
ssg3
(dp2499
S'LAC'
p2500
S'4.5'
p2501
ssg528
(dp2502
S'DEN'
p2503
S'-9'
p2504
ssg11
(dp2505
S'OKC'
p2506
S'-6'
p2507
ssg15
(dp2508
S'CLE'
p2509
S'2.5'
p2510
ssg312
(dp2511
S'UTA'
p2512
S'-10'
p2513
ssg316
(dp2514
g103
S'-2.5'
p2515
ssg2156
(dp2516
g166
S'-5'
p2517
ssg27
(dp2518
g1849
S'-3'
p2519
ssg31
(dp2520
S'CHA'
p2521
S'-6.5'
p2522
ssg257
(dp2523
S'MIN'
p2524
S'-16.5'
p2525
ssg198
(dp2526
S'CHA'
p2527
S'-6'
p2528
ssg365
(dp2529
g166
S'-1'
p2530
ssg223
(dp2531
S'LAC'
p2532
S'-1'
p2533
ssg573
(dp2534
S'DEN'
p2535
S'2.5'
p2536
ssg229
(dp2537
g21
S'-6.5'
p2538
ssg2309
(dp2539
g103
g235
ssg61
(dp2540
S'SAC'
p2541
S'-9.5'
p2542
ssg217
(dp2543
S'MIL'
p2544
S'-2'
p2545
ssg73
(dp2546
S'PHI'
p2547
S'-12.5'
p2548
ssg77
(dp2549
S'WAS'
p2550
S'3.5'
p2551
ssg179
(dp2552
g59
S'-2.5'
p2553
ssg613
(dp2554
g238
S'4.5'
p2555
ssg1325
(dp2556
g127
S'-3.5'
p2557
ssg369
(dp2558
S'MEM'
p2559
S'2.5'
p2560
ssg232
(dp2561
S'ORL'
p2562
S'-14.5'
p2563
ssg90
(dp2564
S'MIN'
p2565
S'-5'
p2566
ssg378
(dp2567
S'WAS'
p2568
g801
ssg94
(dp2569
S'LAL'
p2570
S'-10.5'
p2571
ssg285
(dp2572
S'MIL'
p2573
S'-10'
p2574
ssg382
(dp2575
g131
S'-3.5'
p2576
ssg101
(dp2577
S'ORL'
p2578
S'-8.5'
p2579
ssg862
(dp2580
g21
S'-11.5'
p2581
ssg393
(dp2582
S'LAL'
p2583
S'-12.5'
p2584
ssg140
(dp2585
S'OKC'
p2586
S'-9'
p2587
ssg117
(dp2588
S'LAL'
p2589
S'-13.5'
p2590
ssg129
(dp2591
S'DEN'
p2592
S'-9'
p2593
ssg132
(dp2594
g127
S'5.5'
p2595
ssg202
(dp2596
S'MEM'
p2597
S'-1.5'
p2598
ssg415
(dp2599
S'IND'
p2600
S'-8.5'
p2601
ssg418
(dp2602
S'LAC'
p2603
S'-3.5'
p2604
ssg305
(dp2605
S'BOS'
p2606
S'-5'
p2607
ssg246
(dp2608
S'LAC'
p2609
S'-3'
p2610
ssg371
(dp2611
S'MEM'
p2612
g38
ssg446
(dp2613
S'UTA'
p2614
S'-8.5'
p2615
ssg2098
(dp2616
S'DAL'
p2617
S'-2'
p2618
ssg168
(dp2619
S'OKC'
p2620
g26
ssg172
(dp2621
S'UTA'
p2622
S'-4.5'
p2623
ssg176
(dp2624
S'MEM'
p2625
S'-3.5'
p2626
ssg226
(dp2627
g131
g100
ssg428
(dp2628
S'MIN'
p2629
S'-14'
p2630
ssg473
(dp2631
g131
S'10.5'
p2632
ssg922
(dp2633
S'MIA'
p2634
S'-8.5'
p2635
ssg480
(dp2636
g59
g10
ssg205
(dp2637
S'DAL'
p2638
S'2.5'
p2639
ssg209
(dp2640
S'DAL'
p2641
g235
ssg492
(dp2642
S'TOR'
p2643
S'-3.5'
p2644
ssg105
(dp2645
S'IND'
p2646
S'-5'
p2647
ssg1150
(dp2648
S'LAL'
p2649
S'-6'
p2650
ssg45
(dp2651
S'OKC'
p2652
S'4.5'
p2653
ssg508
(dp2654
S'MIN'
p2655
S'-10'
p2656
ssg240
(dp2657
S'MIA'
p2658
S'-2.5'
p2659
ssg651
(dp2660
g59
S'4.5'
p2661
ssg2229
(dp2662
S'DAL'
p2663
S'-2.5'
p2664
ssg736
(dp2665
S'CLE'
p2666
S'2.5'
p2667
ssg253
(dp2668
S'DET'
p2669
S'-8'
p2670
ssg533
(dp2671
S'SAC'
p2672
S'-8'
p2673
ssg741
(dp2674
S'TOR'
p2675
S'1.5'
p2676
ssg261
(dp2677
S'SAC'
p2678
S'-4.5'
p2679
ssg970
(dp2680
S'PHI'
p2681
S'-13'
p2682
ssg268
(dp2683
g127
S'-5.5'
p2684
ssg272
(dp2685
g238
S'-2.5'
p2686
ssg546
(dp2687
S'DET'
p2688
S'-8'
p2689
ssg279
(dp2690
g166
S'-8.5'
p2691
ssg758
(dp2692
S'ATL'
p2693
S'-6'
p2694
ssg282
(dp2695
g238
S'-8.5'
p2696
ssg550
(dp2697
S'ATL'
p2698
g10
ssg672
(dp2699
S'CHI'
p2700
S'2.5'
p2701
ssg554
(dp2702
g166
S'7.5'
p2703
ssg772
(dp2704
S'UTA'
p2705
S'1.5'
p2706
ssg557
(dp2707
g238
S'4.5'
p2708
ssg293
(dp2709
S'CHI'
p2710
S'-8'
p2711
ssg113
(dp2712
S'BOS'
p2713
S'-7'
p2714
sssg792
(dp2715
g566
(dp2716
S'MIN'
p2717
S'-13.5'
p2718
ssg246
(dp2719
S'DAL'
p2720
S'-2.5'
p2721
ssg528
(dp2722
S'SAC'
p2723
g104
ssg11
(dp2724
S'POR'
p2725
g235
ssg15
(dp2726
g783
S'11.5'
p2727
ssg23
(dp2728
S'MIA'
p2729
S'-3.5'
p2730
ssg27
(dp2731
g127
S'-3.5'
p2732
ssg323
(dp2733
S'ATL'
p2734
S'3.5'
p2735
ssg39
(dp2736
S'SAC'
p2737
S'-13.5'
p2738
ssg862
(dp2739
S'DAL'
p2740
g104
ssg223
(dp2741
S'PHI'
p2742
S'-15'
p2743
ssg53
(dp2744
S'PHI'
p2745
S'-13.5'
p2746
ssg1884
(dp2747
S'MIA'
p2748
S'-7.5'
p2749
ssg1264
(dp2750
g103
S'6.5'
p2751
ssg153
(dp2752
S'DEN'
p2753
S'4.5'
p2754
ssg217
(dp2755
S'MEM'
p2756
g18
ssg69
(dp2757
S'WAS'
p2758
S'-7.5'
p2759
ssg355
(dp2760
S'TOR'
p2761
S'-6.5'
p2762
ssg73
(dp2763
S'CHA'
p2764
S'-6.5'
p2765
ssg362
(dp2766
g238
g235
ssg613
(dp2767
S'LAL'
p2768
S'-5.5'
p2769
ssg83
(dp2770
g166
S'-8'
p2771
ssg630
(dp2772
g127
S'-7'
p2773
ssg378
(dp2774
S'DAL'
p2775
g235
ssg94
(dp2776
S'MEM'
p2777
S'5.5'
p2778
ssg537
(dp2779
g166
S'-7.5'
p2780
ssg101
(dp2781
S'ATL'
p2782
S'-1'
p2783
ssg634
(dp2784
g166
g104
ssg393
(dp2785
g131
S'3.5'
p2786
ssg109
(dp2787
S'DET'
p2788
S'-3'
p2789
ssg117
(dp2790
S'MEM'
p2791
S'-4.5'
p2792
ssg129
(dp2793
S'UTA'
p2794
S'-6'
p2795
ssg202
(dp2796
S'DEN'
p2797
S'-8.5'
p2798
ssg651
(dp2799
S'LAC'
p2800
S'-7.5'
p2801
ssg140
(dp2802
S'POR'
p2803
g76
ssg143
(dp2804
S'UTA'
p2805
S'-11.5'
p2806
ssg425
(dp2807
g166
S'-5'
p2808
ssg453
(dp2809
S'IND'
p2810
S'-7.5'
p2811
ssg156
(dp2812
g127
g18
ssg2169
(dp2813
S'DAL'
p2814
S'-5'
p2815
ssg168
(dp2816
S'POR'
p2817
S'-8'
p2818
ssS'DEC 11, 2014'
p2819
(dp2820
S'CLE'
p2821
S'-7'
p2822
ssg176
(dp2823
g21
S'-8'
p2824
ssg179
(dp2825
S'LAC'
p2826
S'-6.5'
p2827
ssg183
(dp2828
S'SAC'
p2829
S'-7'
p2830
ssg187
(dp2831
g59
g10
ssg469
(dp2832
S'SAC'
p2833
S'-8'
p2834
ssg192
(dp2835
g59
S'-2.5'
p2836
ssg195
(dp2837
S'DEN'
p2838
g100
ssg198
(dp2839
S'UTA'
p2840
S'-4.5'
p2841
ssg477
(dp2842
g238
g235
ssg305
(dp2843
g131
g26
ssg484
(dp2844
g59
g801
ssg209
(dp2845
S'MIN'
p2846
S'-14'
p2847
ssg213
(dp2848
g131
S'2.5'
p2849
ssg933
(dp2850
S'ORL'
p2851
S'-9'
p2852
ssg573
(dp2853
S'BOS'
p2854
S'7.5'
p2855
ssg150
(dp2856
S'DEN'
p2857
S'-6.5'
p2858
ssg45
(dp2859
S'POR'
p2860
S'-4.5'
p2861
ssg226
(dp2862
S'LAL'
p2863
S'-9.5'
p2864
ssg229
(dp2865
S'DET'
p2866
S'-10'
p2867
ssg726
(dp2868
S'LAC'
p2869
S'13'
p2870
ssg236
(dp2871
S'CLE'
p2872
S'3.5'
p2873
ssg240
(dp2874
S'BOS'
p2875
S'-6.5'
p2876
ssg2229
(dp2877
S'CHI'
p2878
S'-1.5'
p2879
ssg31
(dp2880
S'MIL'
p2881
g104
ssg736
(dp2882
g21
S'-8.5'
p2883
ssg253
(dp2884
S'MIL'
p2885
S'-10'
p2886
ssg533
(dp2887
S'LAL'
p2888
S'-4'
p2889
ssg741
(dp2890
S'CHI'
p2891
S'-7'
p2892
ssg147
(dp2893
S'UTA'
p2894
g38
ssg265
(dp2895
S'IND'
p2896
S'2.5'
p2897
ssg7
(dp2898
S'MEM'
p2899
g100
ssg276
(dp2900
g127
S'-6.5'
p2901
ssg546
(dp2902
S'MIN'
p2903
S'-10'
p2904
ssg672
(dp2905
S'MIN'
p2906
S'-8.5'
p2907
ssg554
(dp2908
S'WAS'
p2909
S'-0'
p2910
ssg772
(dp2911
g238
S'7.5'
p2912
ssg557
(dp2913
g131
g801
ssg293
(dp2914
g103
S'-1.5'
p2915
ssg998
(dp2916
S'CHA'
p2917
S'-4'
p2918
ssg296
(dp2919
S'ORL'
p2920
S'-10.5'
p2921
sssg571
(dp2922
g3
(dp2923
g564
S'-7.5'
p2924
ssg305
(dp2925
S'CHA'
p2926
S'-1'
p2927
ssg11
(dp2928
g127
S'-2'
p2929
ssg15
(dp2930
g59
S'-2'
p2931
ssg312
(dp2932
S'TOR'
p2933
S'-3.5'
p2934
ssg19
(dp2935
g103
g104
ssg23
(dp2936
S'OKC'
p2937
S'3.5'
p2938
ssg323
(dp2939
S'IND'
p2940
S'-3.5'
p2941
ssg35
(dp2942
S'ORL'
p2943
S'-1.5'
p2944
ssg42
(dp2945
S'CHA'
p2946
S'1.5'
p2947
ssg45
(dp2948
S'PHI'
p2949
S'-7.5'
p2950
ssg53
(dp2951
S'MIL'
p2952
S'-1.5'
p2953
ssg1884
(dp2954
S'OKC'
p2955
S'7.5'
p2956
ssS'NOV 20, 2014'
p2957
(dp2958
S'LAC'
p2959
g18
ssg101
(dp2960
S'DEN'
p2961
S'-7.5'
p2962
ssg153
(dp2963
S'PHI'
p2964
S'-9'
p2965
ssg65
(dp2966
g131
S'7.5'
p2967
ssg460
(dp2968
g166
S'-1.5'
p2969
ssg226
(dp2970
S'MIL'
p2971
S'-2'
p2972
ssg80
(dp2973
S'ATL'
p2974
S'-4.5'
p2975
ssg613
(dp2976
S'WAS'
p2977
g235
ssg83
(dp2978
S'IND'
p2979
g18
ssg87
(dp2980
S'ORL'
p2981
S'-5.5'
p2982
ssg90
(dp2983
S'SAC'
p2984
g801
ssg378
(dp2985
S'CLE'
p2986
S'5.5'
p2987
ssg382
(dp2988
S'TOR'
p2989
S'-2'
p2990
ssg150
(dp2991
g21
S'-4.5'
p2992
ssg386
(dp2993
S'WAS'
p2994
g235
ssg634
(dp2995
S'DET'
p2996
S'-2.5'
p2997
ssg109
(dp2998
S'ATL'
p2999
g10
ssg117
(dp3000
S'CLE'
p3001
S'12.5'
p3002
ssg642
(dp3003
S'WAS'
p3004
S'4.5'
p3005
ssg125
(dp3006
S'BOS'
p3007
S'-2.5'
p3008
ssg140
(dp3009
S'WAS'
p3010
S'-5'
p3011
ssg172
(dp3012
g21
S'-7'
p3013
ssg1325
(dp3014
g103
g26
ssg672
(dp3015
S'UTA'
p3016
S'1.5'
p3017
ssg418
(dp3018
g131
S'15'
p3019
ssg136
(dp3020
S'MEM'
p3021
S'3.5'
p3022
ssg573
(dp3023
S'IND'
p3024
S'-8.5'
p3025
ssg428
(dp3026
g21
S'-3'
p3027
ssg436
(dp3028
S'LAL'
p3029
S'-2.5'
p3030
ssg179
(dp3031
g103
S'-4.5'
p3032
ssg440
(dp3033
S'CLE'
p3034
S'9.5'
p3035
ssg156
(dp3036
S'MIN'
p3037
g104
ssg446
(dp3038
S'DET'
p3039
g18
ssg1347
(dp3040
S'BOS'
p3041
S'3.5'
p3042
ssg168
(dp3043
S'ORL'
p3044
S'-6'
p3045
ssg557
(dp3046
S'SAC'
p3047
g38
ssg362
(dp3048
S'CLE'
p3049
g235
ssg187
(dp3050
S'MIL'
p3051
S'-5'
p3052
ssg469
(dp3053
g103
g235
ssg240
(dp3054
S'POR'
p3055
S'2.5'
p3056
ssg473
(dp3057
S'CHI'
p3058
S'-2'
p3059
ssg922
(dp3060
S'POR'
p3061
S'8.5'
p3062
ssg477
(dp3063
S'CHA'
p3064
S'-6.5'
p3065
ssg484
(dp3066
S'IND'
p3067
S'6.5'
p3068
ssg209
(dp3069
S'PHI'
p3070
g104
ssg375
(dp3071
g238
g26
ssg1150
(dp3072
S'LAC'
p3073
S'10'
p3074
ssg220
(dp3075
S'PHI'
p3076
S'-11.5'
p3077
ssg223
(dp3078
S'LAL'
p3079
S'-9.5'
p3080
ssg508
(dp3081
S'DEN'
p3082
g235
ssg229
(dp3083
S'MEM'
p3084
g26
ssg236
(dp3085
S'CHI'
p3086
S'7.5'
p3087
ssg630
(dp3088
S'BOS'
p3089
S'3.5'
p3090
ssg243
(dp3091
S'MIL'
p3092
S'-2'
p3093
ssg528
(dp3094
S'DAL'
p3095
g26
ssg253
(dp3096
g166
S'4.5'
p3097
ssg365
(dp3098
S'ATL'
p3099
g26
ssg537
(dp3100
S'CHI'
p3101
g100
ssg268
(dp3102
S'DET'
p3103
S'-4.5'
p3104
ssg272
(dp3105
S'ORL'
p3106
S'-3.5'
p3107
ssg276
(dp3108
g238
S'12.5'
p3109
ssg546
(dp3110
S'TOR'
p3111
g10
ssg758
(dp3112
g59
S'6.5'
p3113
ssg550
(dp3114
S'DAL'
p3115
S'7.5'
p3116
ssg285
(dp3117
S'UTA'
p3118
S'-3.5'
p3119
ssg554
(dp3120
S'CHA'
p3121
S'6.5'
p3122
ssg772
(dp3123
S'BOS'
p3124
S'8.5'
p3125
ssg998
(dp3126
g127
S'-2'
p3127
ssg160
(dp3128
S'ATL'
p3129
S'2.5'
p3130
sssg2509
(dp3131
g202
(dp3132
g21
S'-17'
p3133
ssg35
(dp3134
S'TOR'
p3135
S'-3'
p3136
ssg11
(dp3137
S'IND'
p3138
S'2.5'
p3139
ssg15
(dp3140
S'POR'
p3141
S'-2.5'
p3142
ssg316
(dp3143
S'ATL'
p3144
S'-7'
p3145
ssg19
(dp3146
S'DAL'
p3147
S'7.5'
p3148
ssg23
(dp3149
S'MIL'
p3150
S'-8'
p3151
ssg27
(dp3152
S'MIL'
p3153
S'-10.5'
p3154
ssg323
(dp3155
S'CHA'
p3156
S'-10'
p3157
ssg257
(dp3158
S'MIL'
p3159
S'-6.5'
p3160
ssg39
(dp3161
S'BOS'
p3162
S'-6'
p3163
ssg42
(dp3164
S'UTA'
p3165
S'-5.5'
p3166
ssg223
(dp3167
S'TOR'
p3168
S'-5'
p3169
ssg53
(dp3170
S'TOR'
p3171
S'4.5'
p3172
ssg101
(dp3173
S'IND'
p3174
S'-10.5'
p3175
ssg61
(dp3176
S'CHI'
p3177
S'-4.5'
p3178
ssg217
(dp3179
S'MIN'
p3180
S'-10.5'
p3181
ssg69
(dp3182
S'CHA'
p3183
S'-1.5'
p3184
ssg73
(dp3185
S'ORL'
p3186
S'-3.5'
p3187
ssg970
(dp3188
S'ORL'
p3189
S'-10.5'
p3190
ssg362
(dp3191
S'MIA'
p3192
S'-6'
p3193
ssg613
(dp3194
g103
S'-10.5'
p3195
ssg83
(dp3196
S'MIL'
p3197
g801
ssg90
(dp3198
g166
S'-11'
p3199
ssg378
(dp3200
S'MIA'
p3201
S'-5.5'
p3202
ssg285
(dp3203
S'ATL'
p3204
S'-7'
p3205
ssS'FEB 12, 2015'
p3206
(dp3207
S'CHI'
p3208
S'-2'
p3209
ssg97
(dp3210
g238
S'-1.5'
p3211
ssg386
(dp3212
S'ATL'
p3213
S'-1.5'
p3214
ssg634
(dp3215
S'PHI'
p3216
S'-17'
p3217
ssg393
(dp3218
S'PHI'
p3219
S'-4.5'
p3220
ssg109
(dp3221
S'BOS'
p3222
S'-6'
p3223
ssg117
(dp3224
S'MIA'
p3225
S'-12.5'
p3226
ssg432
(dp3227
g103
S'-8'
p3228
ssg198
(dp3229
S'WAS'
p3230
S'-7.5'
p3231
ssg172
(dp3232
S'WAS'
p3233
S'-3'
p3234
ssg415
(dp3235
g21
S'-7.5'
p3236
ssg889
(dp3237
S'DAL'
p3238
S'-4'
p3239
ssg143
(dp3240
g131
S'13'
p3241
ssg425
(dp3242
g131
S'-3'
p3243
ssg436
(dp3244
g166
S'4.5'
p3245
ssg440
(dp3246
S'MIA'
p3247
S'-9.5'
p3248
ssg1325
(dp3249
S'DEN'
p3250
S'-11.5'
p3251
ssg168
(dp3252
S'DET'
p3253
S'-8'
p3254
ssg2819
(dp3255
S'OKC'
p3256
g100
ssg557
(dp3257
S'LAC'
p3258
S'8.5'
p3259
ssg183
(dp3260
g59
g235
ssg862
(dp3261
S'DET'
p3262
S'-7.5'
p3263
ssg192
(dp3264
S'LAL'
p3265
S'-6.5'
p3266
ssg195
(dp3267
g238
S'-1.5'
p3268
ssg1135
(dp3269
g127
S'-5.5'
p3270
ssg651
(dp3271
S'LAL'
p3272
S'-14.5'
p3273
ssg484
(dp3274
S'CHI'
p3275
S'-8'
p3276
ssg2156
(dp3277
S'LAC'
p3278
S'-4'
p3279
ssg209
(dp3280
S'WAS'
p3281
S'-8'
p3282
ssg492
(dp3283
S'ATL'
p3284
S'6.5'
p3285
ssg1150
(dp3286
S'SAC'
p3287
S'3.5'
p3288
ssg45
(dp3289
S'MIN'
p3290
S'-14'
p3291
ssg365
(dp3292
g103
S'-9'
p3293
ssg772
(dp3294
S'MEM'
p3295
S'-1'
p3296
ssg57
(dp3297
S'IND'
p3298
S'-10'
p3299
ssg726
(dp3300
g21
S'-13'
p3301
ssg236
(dp3302
S'OKC'
p3303
S'-3.5'
p3304
ssg240
(dp3305
g103
S'-12'
p3306
ssg243
(dp3307
S'DET'
p3308
S'-8.5'
p3309
ssg736
(dp3310
S'POR'
p3311
S'-2.5'
p3312
ssg253
(dp3313
S'TOR'
p3314
S'-6'
p3315
ssg533
(dp3316
g59
S'-0'
p3317
ssg741
(dp3318
S'ORL'
p3319
S'-10.5'
p3320
ssg261
(dp3321
S'CHI'
p3322
g18
ssg265
(dp3323
S'BOS'
p3324
S'10.5'
p3325
ssg7
(dp3326
S'DEN'
p3327
S'-6.5'
p3328
ssg276
(dp3329
S'IND'
p3330
S'-6'
p3331
ssg453
(dp3332
S'DET'
p3333
S'-6.5'
p3334
ssg282
(dp3335
S'CHA'
p3336
S'-10.5'
p3337
ssg550
(dp3338
S'SAC'
p3339
S'-10.5'
p3340
ssg672
(dp3341
g127
S'1.5'
p3342
ssg554
(dp3343
S'UTA'
p3344
S'-9.5'
p3345
ssg289
(dp3346
S'BOS'
p3347
S'-11'
p3348
ssg630
(dp3349
S'MEM'
p3350
S'-4.5'
p3351
ssg293
(dp3352
S'WAS'
p3353
S'-1.5'
p3354
ssg296
(dp3355
S'PHI'
p3356
S'-17'
p3357
sssg238
(dp3358
g3
(dp3359
g127
S'-7.5'
p3360
ssg11
(dp3361
S'SAC'
p3362
S'-9.5'
p3363
ssg316
(dp3364
S'SAC'
p3365
S'-1.5'
p3366
ssg2169
(dp3367
S'LAC'
p3368
S'-2.5'
p3369
ssg323
(dp3370
S'LAL'
p3371
S'-14'
p3372
ssg35
(dp3373
g103
S'-10.5'
p3374
ssg39
(dp3375
g59
S'-3.5'
p3376
ssg42
(dp3377
S'ATL'
p3378
S'-8'
p3379
ssg223
(dp3380
S'SAC'
p3381
S'-10.5'
p3382
ssg150
(dp3383
S'IND'
p3384
S'-4.5'
p3385
ssg172
(dp3386
g131
S'7.5'
p3387
ssg1884
(dp3388
S'DEN'
p3389
S'-9'
p3390
ssg53
(dp3391
S'MEM'
p3392
g801
ssg101
(dp3393
S'BOS'
p3394
S'-8.5'
p3395
ssg862
(dp3396
g59
S'-1'
p3397
ssg355
(dp3398
S'CHI'
p3399
S'-9.5'
p3400
ssg73
(dp3401
g127
g38
ssg226
(dp3402
S'DAL'
p3403
S'-3.5'
p3404
ssg80
(dp3405
g103
S'-8.5'
p3406
ssg613
(dp3407
S'POR'
p3408
S'-4.5'
p3409
ssg83
(dp3410
g127
S'-5'
p3411
ssg232
(dp3412
S'MIN'
p3413
S'-10'
p3414
ssg375
(dp3415
S'MIA'
p3416
S'-8'
p3417
ssg94
(dp3418
S'DEN'
p3419
S'-13'
p3420
ssg537
(dp3421
S'DEN'
p3422
S'-5'
p3423
ssg97
(dp3424
S'CLE'
p3425
S'1.5'
p3426
ssg386
(dp3427
S'DEN'
p3428
S'-11'
p3429
ssg634
(dp3430
S'MEM'
p3431
S'-8'
p3432
ssg109
(dp3433
S'LAL'
p3434
S'-8.5'
p3435
ssg117
(dp3436
S'DET'
p3437
S'-6.5'
p3438
ssg642
(dp3439
S'PHI'
p3440
S'-11'
p3441
ssg198
(dp3442
S'IND'
p3443
S'-13'
p3444
ssg411
(dp3445
S'MIN'
p3446
S'-14'
p3447
ssg480
(dp3448
S'LAC'
p3449
S'-1'
p3450
ssg418
(dp3451
S'CHA'
p3452
S'-4.5'
p3453
ssg889
(dp3454
S'TOR'
p3455
S'-7'
p3456
ssg143
(dp3457
g166
S'-5'
p3458
ssg428
(dp3459
S'BOS'
p3460
S'-7.5'
p3461
ssg436
(dp3462
S'WAS'
p3463
S'-0'
p3464
ssg156
(dp3465
S'ORL'
p3466
S'-13.5'
p3467
ssg1325
(dp3468
S'PHI'
p3469
S'-16.5'
p3470
ssg164
(dp3471
S'DET'
p3472
S'-8'
p3473
ssg2098
(dp3474
g59
S'6.5'
p3475
ssg557
(dp3476
S'POR'
p3477
S'-4.5'
p3478
ssg132
(dp3479
S'DAL'
p3480
S'11'
p3481
ssg176
(dp3482
S'SAC'
p3483
S'-11'
p3484
ssg362
(dp3485
S'OKC'
p3486
S'-6'
p3487
ssg257
(dp3488
g59
S'-6.5'
p3489
ssg190
(dp3490
g21
S'-14.5'
p3491
ssg195
(dp3492
S'CLE'
p3493
S'1.5'
p3494
ssg1135
(dp3495
S'LAC'
p3496
g104
ssg477
(dp3497
S'OKC'
p3498
S'-6'
p3499
ssg2195
(dp3500
S'DAL'
p3501
S'-3.5'
p3502
ssg484
(dp3503
g131
S'-4.5'
p3504
ssg209
(dp3505
g127
S'-5.5'
p3506
ssg492
(dp3507
S'MEM'
p3508
S'-0'
p3509
ssg933
(dp3510
S'UTA'
p3511
S'-12'
p3512
ssg217
(dp3513
S'LAC'
p3514
S'-5'
p3515
ssg220
(dp3516
S'UTA'
p3517
S'-5.5'
p3518
ssg23
(dp3519
S'ATL'
p3520
S'1.5'
p3521
ssg508
(dp3522
g21
S'-10'
p3523
ssg240
(dp3524
S'MIL'
p3525
S'-5.5'
p3526
ssg651
(dp3527
S'TOR'
p3528
S'-2'
p3529
ssg236
(dp3530
S'MIL'
p3531
S'-11.5'
p3532
ssg160
(dp3533
g166
g104
ssg246
(dp3534
S'ORL'
p3535
S'-10'
p3536
ssg31
(dp3537
g131
S'7.5'
p3538
ssg736
(dp3539
S'CHA'
p3540
S'-12.5'
p3541
ssg253
(dp3542
S'UTA'
p3543
S'-9'
p3544
ssg365
(dp3545
S'DAL'
p3546
S'-8.5'
p3547
ssg741
(dp3548
S'MIN'
p3549
S'-14'
p3550
ssg261
(dp3551
g166
S'-1'
p3552
ssg265
(dp3553
g166
S'-17'
p3554
ssg272
(dp3555
S'POR'
p3556
S'2.5'
p3557
ssg276
(dp3558
S'MIA'
p3559
S'-12.5'
p3560
ssg672
(dp3561
S'LAL'
p3562
S'-12'
p3563
ssg758
(dp3564
S'WAS'
p3565
S'-5.5'
p3566
ssg282
(dp3567
S'POR'
p3568
S'8.5'
p3569
ssg285
(dp3570
S'MEM'
p3571
S'-3.5'
p3572
ssg772
(dp3573
S'OKC'
p3574
S'-7.5'
p3575
ssg293
(dp3576
S'MIN'
p3577
S'-11'
p3578
ssg113
(dp3579
S'CHI'
p3580
S'-5.5'
p3581
sssS'CHA'
p3582
(dp3583
g758
(dp3584
S'ORL'
p3585
g18
ssg528
(dp3586
S'LAL'
p3587
S'-2.5'
p3588
ssg11
(dp3589
S'BOS'
p3590
S'1.5'
p3591
ssg15
(dp3592
g127
g18
ssg316
(dp3593
g131
S'11'
p3594
ssg23
(dp3595
S'MIN'
p3596
S'-5'
p3597
ssg202
(dp3598
S'DAL'
p3599
S'9.5'
p3600
ssg323
(dp3601
S'CLE'
p3602
S'10'
p3603
ssg257
(dp3604
S'TOR'
p3605
S'3.5'
p3606
ssg39
(dp3607
S'ATL'
p3608
S'10'
p3609
ssg42
(dp3610
S'MIA'
p3611
S'-1.5'
p3612
ssg223
(dp3613
g103
S'5.5'
p3614
ssg970
(dp3615
S'LAC'
p3616
g18
ssg53
(dp3617
g21
S'-4.5'
p3618
ssg101
(dp3619
S'SAC'
p3620
S'-5'
p3621
ssg61
(dp3622
S'MIN'
p3623
S'-6'
p3624
ssg217
(dp3625
S'DEN'
p3626
S'4.5'
p3627
ssg1473
(dp3628
S'DET'
p3629
S'-2'
p3630
ssg69
(dp3631
S'CLE'
p3632
S'1.5'
p3633
ssg355
(dp3634
S'DET'
p3635
S'-1'
p3636
ssg73
(dp3637
S'OKC'
p3638
S'6.5'
p3639
ssg77
(dp3640
g21
S'-9'
p3641
ssg140
(dp3642
S'MIL'
p3643
S'-8'
p3644
ssg80
(dp3645
S'CHI'
p3646
S'3.5'
p3647
ssg613
(dp3648
S'PHI'
p3649
S'-4.5'
p3650
ssg365
(dp3651
S'WAS'
p3652
S'4.5'
p3653
ssg83
(dp3654
g59
S'11.5'
p3655
ssg87
(dp3656
S'MIL'
p3657
S'-3'
p3658
ssg268
(dp3659
S'PHI'
p3660
S'-6.5'
p3661
ssg378
(dp3662
S'UTA'
p3663
S'4.5'
p3664
ssg94
(dp3665
S'IND'
p3666
S'4.5'
p3667
ssg285
(dp3668
g166
S'2.5'
p3669
ssg382
(dp3670
g21
S'3.5'
p3671
ssg386
(dp3672
S'TOR'
p3673
S'-1'
p3674
ssg393
(dp3675
S'BOS'
p3676
S'5.5'
p3677
ssg109
(dp3678
g166
S'6.5'
p3679
ssg136
(dp3680
S'ORL'
p3681
S'-6'
p3682
ssg125
(dp3683
S'WAS'
p3684
S'-2.5'
p3685
ssg129
(dp3686
S'ATL'
p3687
S'-6'
p3688
ssg132
(dp3689
S'UTA'
p3690
S'-3.5'
p3691
ssg480
(dp3692
S'DEN'
p3693
S'-2.5'
p3694
ssg418
(dp3695
g238
S'4.5'
p3696
ssg305
(dp3697
S'MIA'
p3698
g801
ssg246
(dp3699
S'DET'
p3700
S'-5.5'
p3701
ssg153
(dp3702
S'MEM'
p3703
S'-3'
p3704
ssg1325
(dp3705
S'DAL'
p3706
g18
ssg168
(dp3707
g59
S'12'
p3708
ssg176
(dp3709
g131
S'8.5'
p3710
ssg179
(dp3711
S'SAC'
p3712
S'-8'
p3713
ssg183
(dp3714
g127
g10
ssg190
(dp3715
S'LAC'
p3716
S'10'
p3717
ssg195
(dp3718
S'IND'
p3719
g104
ssg922
(dp3720
S'TOR'
p3721
S'12.5'
p3722
ssg477
(dp3723
S'MIA'
p3724
S'6.5'
p3725
ssg651
(dp3726
S'IND'
p3727
g104
ssg205
(dp3728
S'PHI'
p3729
S'-8'
p3730
ssg209
(dp3731
S'TOR'
p3732
S'10.5'
p3733
ssg105
(dp3734
g103
S'-4'
p3735
ssg369
(dp3736
S'IND'
p3737
S'2.5'
p3738
ssg45
(dp3739
S'MIL'
p3740
S'5.5'
p3741
ssg508
(dp3742
S'BOS'
p3743
S'-3'
p3744
ssg772
(dp3745
g103
S'-3.5'
p3746
ssg57
(dp3747
S'ATL'
p3748
g100
ssg232
(dp3749
g21
S'-7.5'
p3750
ssg522
(dp3751
S'CHI'
p3752
g100
ssg31
(dp3753
S'POR'
p3754
S'6.5'
p3755
ssg736
(dp3756
g238
S'12.5'
p3757
ssg2156
(dp3758
S'WAS'
p3759
g104
ssg533
(dp3760
S'ORL'
p3761
S'-1.5'
p3762
ssg198
(dp3763
S'POR'
p3764
g235
ssg265
(dp3765
S'DET'
p3766
S'8.5'
p3767
ssg7
(dp3768
S'ATL'
p3769
S'-1.5'
p3770
ssg272
(dp3771
S'CHI'
p3772
g100
ssg546
(dp3773
S'CHI'
p3774
S'-1'
p3775
ssg279
(dp3776
S'BOS'
p3777
S'-3'
p3778
ssg282
(dp3779
S'CLE'
p3780
S'10.5'
p3781
ssg672
(dp3782
S'MEM'
p3783
S'10'
p3784
ssg554
(dp3785
S'MIA'
p3786
S'-6.5'
p3787
ssg289
(dp3788
S'LAL'
p3789
S'-9'
p3790
ssg293
(dp3791
S'ORL'
p3792
S'-4'
p3793
ssg998
(dp3794
S'OKC'
p3795
g18
ssg296
(dp3796
S'WAS'
p3797
g26
sssg836
(dp3798
g566
(dp3799
S'BOS'
p3800
S'-7.5'
p3801
ssg35
(dp3802
g127
S'2.5'
p3803
ssg528
(dp3804
S'DET'
p3805
S'3.5'
p3806
ssg11
(dp3807
S'DEN'
p3808
S'-4.5'
p3809
ssg312
(dp3810
S'POR'
p3811
S'10'
p3812
ssg316
(dp3813
S'TOR'
p3814
S'11.5'
p3815
ssg257
(dp3816
S'SAC'
p3817
S'-12'
p3818
ssg39
(dp3819
S'MEM'
p3820
S'2.5'
p3821
ssg42
(dp3822
S'CLE'
p3823
S'5.5'
p3824
ssg223
(dp3825
S'BOS'
p3826
g801
ssg53
(dp3827
S'ORL'
p3828
S'-5'
p3829
ssg573
(dp3830
S'ATL'
p3831
g100
ssg1264
(dp3832
S'LAC'
p3833
S'10'
p3834
ssg69
(dp3835
S'ATL'
p3836
S'4.5'
p3837
ssg355
(dp3838
g103
g104
ssg77
(dp3839
g103
S'-4'
p3840
ssg80
(dp3841
S'TOR'
p3842
S'3.5'
p3843
ssg613
(dp3844
S'ORL'
p3845
g18
ssg87
(dp3846
S'LAC'
p3847
S'12'
p3848
ssg371
(dp3849
g131
g76
ssg378
(dp3850
S'CHA'
p3851
S'-4.5'
p3852
ssg97
(dp3853
g59
g104
ssg386
(dp3854
S'PHI'
p3855
S'-7.5'
p3856
ssg393
(dp3857
S'IND'
p3858
S'-1.5'
p3859
ssg109
(dp3860
g21
S'3.5'
p3861
ssg113
(dp3862
S'MIL'
p3863
S'8.5'
p3864
ssg117
(dp3865
S'DAL'
p3866
g10
ssg642
(dp3867
S'DEN'
p3868
g18
ssg432
(dp3869
S'SAC'
p3870
g10
ssg129
(dp3871
S'OKC'
p3872
g235
ssg132
(dp3873
S'CHA'
p3874
S'3.5'
p3875
ssg480
(dp3876
S'MEM'
p3877
g26
ssg889
(dp3878
g21
S'-13.5'
p3879
ssg143
(dp3880
S'OKC'
p3881
S'11.5'
p3882
ssg147
(dp3883
S'OKC'
p3884
S'-3'
p3885
ssg136
(dp3886
S'PHI'
p3887
S'-10'
p3888
ssg436
(dp3889
g131
S'8.5'
p3890
ssg153
(dp3891
g166
g104
ssg156
(dp3892
S'MEM'
p3893
S'6.5'
p3894
ssg446
(dp3895
S'POR'
p3896
S'8.5'
p3897
ssg160
(dp3898
S'MIL'
p3899
S'-3.5'
p3900
ssg168
(dp3901
S'DAL'
p3902
S'-6'
p3903
ssg684
(dp3904
S'LAL'
p3905
S'-4.5'
p3906
ssg172
(dp3907
S'POR'
p3908
S'4.5'
p3909
ssg557
(dp3910
S'LAL'
p3911
S'-8'
p3912
ssg150
(dp3913
g127
S'2.5'
p3914
ssg183
(dp3915
S'CHI'
p3916
S'11'
p3917
ssg469
(dp3918
g127
S'10'
p3919
ssg240
(dp3920
S'WAS'
p3921
S'-3'
p3922
ssg1135
(dp3923
S'IND'
p3924
g38
ssg484
(dp3925
S'SAC'
p3926
g801
ssg293
(dp3927
g131
S'12.5'
p3928
ssg205
(dp3929
S'SAC'
p3930
S'-5.5'
p3931
ssg209
(dp3932
g59
S'11.5'
p3933
ssg492
(dp3934
S'MIN'
p3935
S'-7'
p3936
ssg933
(dp3937
g238
S'12'
p3938
ssg246
(dp3939
S'DEN'
p3940
S'-5'
p3941
ssg220
(dp3942
g238
S'5.5'
p3943
ssg140
(dp3944
g59
g38
ssg772
(dp3945
S'POR'
p3946
S'-1.5'
p3947
ssg232
(dp3948
g59
S'11'
p3949
ssg726
(dp3950
S'DAL'
p3951
S'10.5'
p3952
ssg249
(dp3953
S'DET'
p3954
S'-8'
p3955
ssg522
(dp3956
S'MIN'
p3957
S'-10'
p3958
ssg736
(dp3959
S'LAC'
p3960
S'6.5'
p3961
ssg253
(dp3962
g238
g76
ssg365
(dp3963
S'DEN'
p3964
g104
ssg537
(dp3965
S'WAS'
p3966
S'11.5'
p3967
ssg198
(dp3968
S'OKC'
p3969
S'4.5'
p3970
ssg970
(dp3971
S'CHI'
p3972
S'3.5'
p3973
ssg268
(dp3974
g166
S'1.5'
p3975
ssg272
(dp3976
S'LAL'
p3977
S'-9.5'
p3978
ssg276
(dp3979
g166
g10
ssg672
(dp3980
S'MIA'
p3981
S'-1.5'
p3982
ssg279
(dp3983
S'MIN'
p3984
S'-8'
p3985
ssg758
(dp3986
S'MIN'
p3987
S'1.5'
p3988
ssg550
(dp3989
g131
S'10'
p3990
ssg285
(dp3991
S'MIA'
p3992
S'3.5'
p3993
ssg554
(dp3994
S'CLE'
p3995
S'9.5'
p3996
ssg289
(dp3997
S'MEM'
p3998
g100
ssg7
(dp3999
S'DAL'
p4000
S'2.5'
p4001
ssg57
(dp4002
S'LAC'
p4003
g10
sssg1229
(dp4004
g3
(dp4005
g1223
S'-9.5'
p4006
ssg11
(dp4007
S'MIN'
p4008
S'-5.5'
p4009
ssg15
(dp4010
S'ORL'
p4011
S'-10'
p4012
ssg312
(dp4013
S'PHI'
p4014
S'-15.5'
p4015
ssg316
(dp4016
S'IND'
p4017
S'-9'
p4018
ssg27
(dp4019
g2056
S'-1'
p4020
ssg323
(dp4021
S'DAL'
p4022
S'5.5'
p4023
ssg257
(dp4024
S'ORL'
p4025
S'-7.5'
p4026
ssg42
(dp4027
S'MIL'
p4028
S'-5'
p4029
ssg45
(dp4030
S'WAS'
p4031
S'2.5'
p4032
ssg49
(dp4033
S'LAL'
p4034
S'-9.5'
p4035
ssg2957
(dp4036
S'SAC'
p4037
g38
ssg101
(dp4038
S'TOR'
p4039
S'-1.5'
p4040
ssg61
(dp4041
S'CLE'
p4042
S'4.5'
p4043
ssg246
(dp4044
S'MIL'
p4045
S'-5'
p4046
ssg65
(dp4047
S'DEN'
p4048
S'4.5'
p4049
ssg349
(dp4050
S'TOR'
p4051
S'2.5'
p4052
ssg355
(dp4053
g238
S'9.5'
p4054
ssg1473
(dp4055
S'SAC'
p4056
S'-11'
p4057
ssg80
(dp4058
S'CHA'
p4059
S'-3.5'
p4060
ssg613
(dp4061
S'MEM'
p4062
S'6.5'
p4063
ssg369
(dp4064
S'ATL'
p4065
S'3.5'
p4066
ssg87
(dp4067
S'IND'
p4068
S'-4.5'
p4069
ssg371
(dp4070
S'DET'
p4071
S'-3'
p4072
ssg849
(dp4073
S'ORL'
p4074
S'-11.5'
p4075
ssg94
(dp4076
S'DET'
p4077
S'-9.5'
p4078
ssg522
(dp4079
S'CHA'
p4080
S'-7'
p4081
ssg3206
(dp4082
S'CLE'
p4083
g104
ssg386
(dp4084
S'IND'
p4085
g235
ssg393
(dp4086
g59
S'-3'
p4087
ssg136
(dp4088
g127
S'-10'
p4089
ssg125
(dp4090
S'MEM'
p4091
S'5.5'
p4092
ssg129
(dp4093
g21
S'-17.5'
p4094
ssg411
(dp4095
g131
g104
ssg480
(dp4096
S'TOR'
p4097
S'-4'
p4098
ssg418
(dp4099
S'WAS'
p4100
S'-5.5'
p4101
ssg143
(dp4102
S'WAS'
p4103
g801
ssg179
(dp4104
S'PHI'
p4105
S'-6.5'
p4106
ssg153
(dp4107
S'MIN'
p4108
S'-2'
p4109
ssg672
(dp4110
S'POR'
p4111
S'-2.5'
p4112
ssg156
(dp4113
g59
g38
ssg1325
(dp4114
S'LAC'
p4115
g100
ssg168
(dp4116
g103
S'-2'
p4117
ssg172
(dp4118
S'DET'
p4119
S'-6'
p4120
ssg176
(dp4121
S'BOS'
p4122
S'-3.5'
p4123
ssg362
(dp4124
S'LAL'
p4125
S'-11.5'
p4126
ssg183
(dp4127
S'UTA'
p4128
S'-11'
p4129
ssg428
(dp4130
g103
S'-2.5'
p4131
ssg240
(dp4132
S'IND'
p4133
S'-1'
p4134
ssg473
(dp4135
S'MIA'
p4136
g104
ssg1135
(dp4137
S'DET'
p4138
S'-10'
p4139
ssg651
(dp4140
S'ORL'
p4141
S'-6.5'
p4142
ssg484
(dp4143
S'CLE'
p4144
g26
ssg205
(dp4145
g127
S'-2'
p4146
ssg209
(dp4147
S'ATL'
p4148
S'-5'
p4149
ssg492
(dp4150
g103
S'-10'
p4151
ssg213
(dp4152
g21
S'-12.5'
p4153
ssg537
(dp4154
S'MIA'
p4155
S'-7'
p4156
ssg220
(dp4157
S'MIL'
p4158
S'-7'
p4159
ssg140
(dp4160
g21
S'-4.5'
p4161
ssg508
(dp4162
g103
S'-11'
p4163
ssg772
(dp4164
S'TOR'
p4165
S'-3'
p4166
ssg232
(dp4167
S'MIL'
p4168
S'-6'
p4169
ssg236
(dp4170
S'MIA'
p4171
S'-7.5'
p4172
ssg243
(dp4173
g131
S'11.5'
p4174
ssg2229
(dp4175
S'OKC'
p4176
S'1.5'
p4177
ssg533
(dp4178
S'LAC'
p4179
g104
ssg741
(dp4180
S'OKC'
p4181
g100
ssg261
(dp4182
S'CLE'
p4183
S'-4'
p4184
ssg970
(dp4185
S'UTA'
p4186
S'-3.5'
p4187
ssg7
(dp4188
S'PHI'
p4189
S'-10'
p4190
ssg272
(dp4191
S'CHA'
p4192
S'-7'
p4193
ssg546
(dp4194
S'CHA'
p4195
g801
ssg758
(dp4196
S'BOS'
p4197
S'-10'
p4198
ssg282
(dp4199
S'ATL'
p4200
S'2.5'
p4201
ssg550
(dp4202
g166
g100
ssg765
(dp4203
S'DEN'
p4204
S'-10.5'
p4205
ssg289
(dp4206
S'WAS'
p4207
S'1.5'
p4208
ssg557
(dp4209
S'BOS'
p4210
S'-5'
p4211
ssg293
(dp4212
S'POR'
p4213
g26
ssg998
(dp4214
g166
S'-8'
p4215
ssg113
(dp4216
g238
S'5.5'
p4217
sssg59
(dp4218
g3
(dp4219
g131
S'3.5'
p4220
ssg573
(dp4221
S'MIN'
p4222
S'-6.5'
p4223
ssg11
(dp4224
g103
S'-8'
p4225
ssg15
(dp4226
S'MIA'
p4227
g104
ssg323
(dp4228
g166
S'2.5'
p4229
ssg35
(dp4230
S'DAL'
p4231
g18
ssg39
(dp4232
g238
S'3.5'
p4233
ssg365
(dp4234
S'MIN'
p4235
S'-14'
p4236
ssg223
(dp4237
S'MEM'
p4238
S'-3'
p4239
ssg172
(dp4240
S'DAL'
p4241
S'2.5'
p4242
ssg53
(dp4243
S'MIN'
p4244
S'-7'
p4245
ssg153
(dp4246
S'BOS'
p4247
S'-7.5'
p4248
ssg1264
(dp4249
S'PHI'
p4250
S'-11.5'
p4251
ssg61
(dp4252
S'IND'
p4253
S'-10'
p4254
ssg217
(dp4255
S'DET'
p4256
S'-4.5'
p4257
ssg1473
(dp4258
g166
S'2.5'
p4259
ssg69
(dp4260
g127
S'-2'
p4261
ssg73
(dp4262
S'MEM'
p4263
g104
ssg156
(dp4264
S'CHI'
p4265
S'-3'
p4266
ssg970
(dp4267
g21
S'-6'
p4268
ssg80
(dp4269
S'MEM'
p4270
g10
ssg83
(dp4271
S'CHA'
p4272
S'-11.5'
p4273
ssg87
(dp4274
S'WAS'
p4275
S'-3.5'
p4276
ssg90
(dp4277
S'DEN'
p4278
S'-4'
p4279
ssg849
(dp4280
g103
S'-7'
p4281
ssg97
(dp4282
S'UTA'
p4283
S'-2'
p4284
ssg386
(dp4285
S'DET'
p4286
S'-7.5'
p4287
ssg634
(dp4288
S'WAS'
p4289
S'-2'
p4290
ssg393
(dp4291
S'CHI'
p4292
g38
ssg109
(dp4293
S'PHI'
p4294
S'-16.5'
p4295
ssg117
(dp4296
S'LAC'
p4297
g38
ssg198
(dp4298
S'SAC'
p4299
S'-4.5'
p4300
ssg411
(dp4301
g166
g104
ssg480
(dp4302
S'POR'
p4303
S'-5'
p4304
ssg418
(dp4305
S'ORL'
p4306
S'-9'
p4307
ssg246
(dp4308
S'SAC'
p4309
S'-10.5'
p4310
ssg257
(dp4311
g238
S'6.5'
p4312
ssg132
(dp4313
S'ATL'
p4314
S'-5'
p4315
ssg440
(dp4316
S'DAL'
p4317
S'2.5'
p4318
ssg371
(dp4319
g166
S'-7.5'
p4320
ssg1325
(dp4321
S'MEM'
p4322
S'4.5'
p4323
ssg2098
(dp4324
g238
S'-6.5'
p4325
ssg168
(dp4326
S'CHA'
p4327
S'-12'
p4328
ssg684
(dp4329
S'DEN'
p4330
S'-7'
p4331
ssg2819
(dp4332
S'SAC'
p4333
S'-1'
p4334
ssg176
(dp4335
S'LAC'
p4336
S'4.5'
p4337
ssg179
(dp4338
S'POR'
p4339
S'2.5'
p4340
ssg183
(dp4341
S'CLE'
p4342
S'-6'
p4343
ssg187
(dp4344
S'OKC'
p4345
S'-5'
p4346
ssg190
(dp4347
S'ORL'
p4348
S'-11'
p4349
ssg192
(dp4350
S'OKC'
p4351
S'2.5'
p4352
ssg195
(dp4353
S'LAL'
p4354
S'-11.5'
p4355
ssg922
(dp4356
g21
S'-12.5'
p4357
ssg2195
(dp4358
S'LAL'
p4359
S'-7'
p4360
ssg484
(dp4361
S'OKC'
p4362
S'-1'
p4363
ssg105
(dp4364
S'DEN'
p4365
S'-7'
p4366
ssg209
(dp4367
S'UTA'
p4368
S'-11.5'
p4369
ssg213
(dp4370
g127
S'-4.5'
p4371
ssg369
(dp4372
g131
S'-2'
p4373
ssg220
(dp4374
S'MIN'
p4375
S'-8'
p4376
ssg140
(dp4377
S'UTA'
p4378
S'-3'
p4379
ssg508
(dp4380
g131
g76
ssg772
(dp4381
g127
S'-0'
p4382
ssg651
(dp4383
S'POR'
p4384
S'-4.5'
p4385
ssg236
(dp4386
S'LAL'
p4387
S'-8.5'
p4388
ssg862
(dp4389
g238
g801
ssg522
(dp4390
S'IND'
p4391
S'-1.5'
p4392
ssg736
(dp4393
S'DAL'
p4394
S'-4'
p4395
ssg533
(dp4396
S'CLE'
p4397
g1322
ssg741
(dp4398
S'LAC'
p4399
g10
ssg265
(dp4400
g127
S'-5'
p4401
ssg272
(dp4402
S'LAC'
p4403
S'-3.5'
p4404
ssg276
(dp4405
S'MIL'
p4406
S'-5.5'
p4407
ssg279
(dp4408
S'TOR'
p4409
g104
ssg758
(dp4410
S'MIA'
p4411
S'-6.5'
p4412
ssg550
(dp4413
S'BOS'
p4414
S'-7'
p4415
ssg285
(dp4416
S'DEN'
p4417
S'-3'
p4418
ssg554
(dp4419
g131
g26
ssg289
(dp4420
S'ATL'
p4421
S'8.5'
p4422
ssg232
(dp4423
S'UTA'
p4424
S'-11'
p4425
ssg998
(dp4426
S'TOR'
p4427
S'-2'
p4428
ssg57
(dp4429
S'MIL'
p4430
S'3.5'
p4431
sssS'WAS'
p4432
(dp4433
g3
(dp4434
S'IND'
p4435
S'-3.5'
p4436
ssg573
(dp4437
S'DET'
p4438
S'-6'
p4439
ssg11
(dp4440
S'PHI'
p4441
S'-7.5'
p4442
ssg15
(dp4443
g21
S'-2'
p4444
ssg630
(dp4445
g166
S'-6'
p4446
ssg316
(dp4447
S'ORL'
p4448
S'-9'
p4449
ssg35
(dp4450
S'MIL'
p4451
S'-3'
p4452
ssg39
(dp4453
g103
g10
ssg42
(dp4454
S'IND'
p4455
S'-9.5'
p4456
ssg45
(dp4457
S'CHI'
p4458
S'-2.5'
p4459
ssg229
(dp4460
S'BOS'
p4461
S'-3.5'
p4462
ssg53
(dp4463
S'DEN'
p4464
S'-4.5'
p4465
ssg101
(dp4466
S'LAC'
p4467
g100
ssg61
(dp4468
S'PHI'
p4469
S'-14'
p4470
ssg246
(dp4471
S'PHI'
p4472
S'-10'
p4473
ssg65
(dp4474
S'ATL'
p4475
S'-4'
p4476
ssg69
(dp4477
S'OKC'
p4478
S'7.5'
p4479
ssg77
(dp4480
S'POR'
p4481
S'-3.5'
p4482
ssg80
(dp4483
S'LAL'
p4484
S'-8.5'
p4485
ssg613
(dp4486
S'MIA'
p4487
S'-6'
p4488
ssg369
(dp4489
g103
S'-5.5'
p4490
ssg87
(dp4491
g59
S'3.5'
p4492
ssg90
(dp4493
S'MIL'
p4494
S'4.5'
p4495
ssg378
(dp4496
S'POR'
p4497
S'-1'
p4498
ssg94
(dp4499
g21
S'-14.5'
p4500
ssg97
(dp4501
S'MEM'
p4502
S'-8'
p4503
ssg386
(dp4504
S'MIA'
p4505
S'-6'
p4506
ssg634
(dp4507
g59
g104
ssg393
(dp4508
g127
g38
ssg140
(dp4509
S'MIA'
p4510
g10
ssg117
(dp4511
S'TOR'
p4512
g10
ssg642
(dp4513
S'MIA'
p4514
S'-4.5'
p4515
ssg125
(dp4516
S'CHA'
p4517
S'2.5'
p4518
ssg172
(dp4519
S'CLE'
p4520
g38
ssg136
(dp4521
S'BOS'
p4522
S'-9.5'
p4523
ssg418
(dp4524
S'CHI'
p4525
S'5.5'
p4526
ssg143
(dp4527
S'CHI'
p4528
S'-1'
p4529
ssg432
(dp4530
S'BOS'
p4531
S'-8.5'
p4532
ssg436
(dp4533
g238
g1322
ssg894
(dp4534
S'IND'
p4535
S'7.5'
p4536
ssg153
(dp4537
S'MIL'
p4538
S'-9'
p4539
ssg156
(dp4540
S'ATL'
p4541
g235
ssg160
(dp4542
S'DET'
p4543
S'-4.5'
p4544
ssg453
(dp4545
g131
S'6.5'
p4546
ssg557
(dp4547
g103
S'-9.5'
p4548
ssg362
(dp4549
g21
S'-5'
p4550
ssg183
(dp4551
g21
S'-14.5'
p4552
ssg257
(dp4553
S'PHI'
p4554
S'-5'
p4555
ssg469
(dp4556
S'MIN'
p4557
S'-12'
p4558
ssg240
(dp4559
S'UTA'
p4560
g38
ssg195
(dp4561
S'DAL'
p4562
S'2.5'
p4563
ssg198
(dp4564
S'CLE'
p4565
S'7.5'
p4566
ssg202
(dp4567
S'DET'
p4568
S'-2'
p4569
ssg205
(dp4570
g103
S'-6.5'
p4571
ssg209
(dp4572
S'CLE'
p4573
g26
ssg492
(dp4574
S'DAL'
p4575
g10
ssg1150
(dp4576
S'ATL'
p4577
S'4.5'
p4578
ssg150
(dp4579
S'ORL'
p4580
S'-10.5'
p4581
ssg23
(dp4582
S'SAC'
p4583
S'-4'
p4584
ssg508
(dp4585
S'ORL'
p4586
S'-5'
p4587
ssg772
(dp4588
S'IND'
p4589
S'-3'
p4590
ssg57
(dp4591
g127
S'-4'
p4592
ssg726
(dp4593
S'ORL'
p4594
S'-4.5'
p4595
ssg236
(dp4596
S'DEN'
p4597
S'-3.5'
p4598
ssg249
(dp4599
S'SAC'
p4600
S'-10'
p4601
ssg243
(dp4602
S'LAL'
p4603
S'-9'
p4604
ssg522
(dp4605
g131
S'11'
p4606
ssg736
(dp4607
g166
g235
ssg2156
(dp4608
S'CHA'
p4609
S'-2'
p4610
ssg365
(dp4611
S'CHA'
p4612
S'-4.5'
p4613
ssg537
(dp4614
S'UTA'
p4615
S'-11.5'
p4616
ssg293
(dp4617
S'CLE'
p4618
S'1.5'
p4619
ssg265
(dp4620
S'ATL'
p4621
S'-9.5'
p4622
ssg268
(dp4623
S'MEM'
p4624
g26
ssg272
(dp4625
S'MIN'
p4626
S'2.5'
p4627
ssg672
(dp4628
S'LAC'
p4629
S'2.5'
p4630
ssg758
(dp4631
g238
S'5.5'
p4632
ssg554
(dp4633
S'OKC'
p4634
g1322
ssg289
(dp4635
S'CHI'
p4636
S'-1.5'
p4637
ssg217
(dp4638
S'TOR'
p4639
S'-5'
p4640
ssg7
(dp4641
S'TOR'
p4642
g18
ssg296
(dp4643
S'CHA'
p4644
S'-8'
p4645
sssS'LAL'
p4646
(dp4647
g202
(dp4648
S'BOS'
p4649
g38
ssg305
(dp4650
S'DEN'
p4651
S'1.5'
p4652
ssg11
(dp4653
S'MIL'
p4654
S'6.5'
p4655
ssg15
(dp4656
g166
g235
ssg19
(dp4657
S'IND'
p4658
g1322
ssg23
(dp4659
S'PHI'
p4660
S'-4.5'
p4661
ssg27
(dp4662
g1434
g104
ssg323
(dp4663
g238
S'14'
p4664
ssg257
(dp4665
S'DEN'
p4666
S'10'
p4667
ssg39
(dp4668
S'MIN'
p4669
S'-5'
p4670
ssg365
(dp4671
S'TOR'
p4672
g26
ssg223
(dp4673
S'MIA'
p4674
S'9.5'
p4675
ssg49
(dp4676
S'CHI'
p4677
S'9.5'
p4678
ssg573
(dp4679
g127
S'10.5'
p4680
ssg53
(dp4681
S'BOS'
p4682
g38
ssg229
(dp4683
g127
S'2.5'
p4684
ssg61
(dp4685
g166
S'10.5'
p4686
ssg1473
(dp4687
S'DEN'
p4688
S'-1.5'
p4689
ssg69
(dp4690
S'MEM'
p4691
g18
ssg355
(dp4692
S'DAL'
p4693
S'7.5'
p4694
ssg73
(dp4695
S'DAL'
p4696
S'13'
p4697
ssg80
(dp4698
S'WAS'
p4699
S'8.5'
p4700
ssg613
(dp4701
S'OKC'
p4702
S'5.5'
p4703
ssg537
(dp4704
S'MIN'
p4705
S'-4'
p4706
ssg378
(dp4707
g131
S'18'
p4708
ssg94
(dp4709
S'POR'
p4710
S'10.5'
p4711
ssg97
(dp4712
g21
S'-7'
p4713
ssg386
(dp4714
S'MEM'
p4715
S'11.5'
p4716
ssg634
(dp4717
g103
g26
ssg393
(dp4718
S'POR'
p4719
S'12.5'
p4720
ssg109
(dp4721
g238
S'8.5'
p4722
ssg117
(dp4723
S'POR'
p4724
S'13.5'
p4725
ssg172
(dp4726
g103
g38
ssg2195
(dp4727
g59
g100
ssg140
(dp4728
g166
S'12'
p4729
ssg889
(dp4730
S'DET'
p4731
S'3.5'
p4732
ssg143
(dp4733
S'ORL'
p4734
S'-1.5'
p4735
ssg147
(dp4736
S'ATL'
p4737
S'8.5'
p4738
ssg428
(dp4739
S'TOR'
p4740
g100
ssg436
(dp4741
S'MIA'
p4742
S'2.5'
p4743
ssg153
(dp4744
g131
S'14'
p4745
ssg156
(dp4746
S'MIL'
p4747
S'9.5'
p4748
ssg1347
(dp4749
g21
g38
ssg168
(dp4750
S'SAC'
p4751
S'3.5'
p4752
ssg684
(dp4753
S'UTA'
p4754
S'4.5'
p4755
ssg176
(dp4756
S'MIN'
p4757
S'-5.5'
p4758
ssg362
(dp4759
S'CHI'
p4760
S'11.5'
p4761
ssg183
(dp4762
S'LAC'
p4763
S'10.5'
p4764
ssg187
(dp4765
g131
g26
ssg862
(dp4766
g166
g10
ssg192
(dp4767
S'CLE'
p4768
S'6.5'
p4769
ssg195
(dp4770
g59
S'11.5'
p4771
ssg198
(dp4772
S'MEM'
p4773
g100
ssg477
(dp4774
S'LAC'
p4775
S'17'
p4776
ssg651
(dp4777
S'CLE'
p4778
S'14.5'
p4779
ssg484
(dp4780
S'LAC'
p4781
S'14'
p4782
ssg209
(dp4783
S'SAC'
p4784
S'-3'
p4785
ssg492
(dp4786
S'DEN'
p4787
S'5.5'
p4788
ssg1150
(dp4789
S'POR'
p4790
g235
ssg45
(dp4791
g131
S'10'
p4792
ssg226
(dp4793
S'OKC'
p4794
S'9.5'
p4795
ssg772
(dp4796
S'MIN'
p4797
g801
ssg236
(dp4798
g59
S'8.5'
p4799
ssg630
(dp4800
S'SAC'
p4801
S'7.5'
p4802
ssg243
(dp4803
S'WAS'
p4804
g76
ssg246
(dp4805
g127
S'9.5'
p4806
ssg31
(dp4807
S'MEM'
p4808
S'10'
p4809
ssg528
(dp4810
S'CHA'
p4811
S'2.5'
p4812
ssg253
(dp4813
S'SAC'
p4814
S'-3.5'
p4815
ssg533
(dp4816
S'OKC'
p4817
g18
ssg741
(dp4818
S'ATL'
p4819
S'6.5'
p4820
ssg261
(dp4821
S'LAC'
p4822
S'11.5'
p4823
ssg265
(dp4824
S'DAL'
p4825
g235
ssg272
(dp4826
S'UTA'
p4827
S'9.5'
p4828
ssg276
(dp4829
S'ORL'
p4830
S'4.5'
p4831
ssg672
(dp4832
g238
S'12'
p4833
ssg279
(dp4834
S'PHI'
p4835
g10
ssg282
(dp4836
S'IND'
p4837
g10
ssg554
(dp4838
g127
g100
ssg289
(dp4839
S'CHA'
p4840
g76
ssg557
(dp4841
S'UTA'
p4842
g26
ssg293
(dp4843
S'DAL'
p4844
S'11'
p4845
sssg2949
(dp4846
g566
(dp4847
g127
S'15'
p4848
ssg35
(dp4849
g21
S'11'
p4850
ssg528
(dp4851
S'TOR'
p4852
S'13.5'
p4853
ssg11
(dp4854
S'WAS'
p4855
S'7.5'
p4856
ssg312
(dp4857
S'CHI'
p4858
S'15.5'
p4859
ssg23
(dp4860
S'LAL'
p4861
S'4.5'
p4862
ssg323
(dp4863
S'TOR'
p4864
S'13'
p4865
ssg257
(dp4866
S'WAS'
p4867
g10
ssg198
(dp4868
g103
g100
ssg42
(dp4869
S'ORL'
p4870
S'2.5'
p4871
ssg223
(dp4872
S'OKC'
p4873
S'15'
p4874
ssg53
(dp4875
S'OKC'
p4876
S'13.5'
p4877
ssg1264
(dp4878
g59
S'11.5'
p4879
ssg61
(dp4880
S'WAS'
p4881
S'14'
p4882
ssg217
(dp4883
S'ATL'
p4884
S'16.5'
p4885
ssg349
(dp4886
S'DAL'
p4887
S'13.5'
p4888
ssg69
(dp4889
g166
S'14'
p4890
ssg73
(dp4891
S'POR'
p4892
S'12.5'
p4893
ssg77
(dp4894
S'MEM'
p4895
S'18'
p4896
ssg226
(dp4897
S'SAC'
p4898
S'8.5'
p4899
ssg80
(dp4900
S'MIN'
p4901
g100
ssg613
(dp4902
S'CHA'
p4903
S'4.5'
p4904
ssg365
(dp4905
S'LAC'
p4906
S'12.5'
p4907
ssg369
(dp4908
S'DET'
p4909
S'13'
p4910
ssg232
(dp4911
S'IND'
p4912
g100
ssg90
(dp4913
S'ATL'
p4914
S'7.5'
p4915
ssg378
(dp4916
S'BOS'
p4917
S'8.5'
p4918
ssg150
(dp4919
g131
S'15.5'
p4920
ssg386
(dp4921
S'UTA'
p4922
S'7.5'
p4923
ssg634
(dp4924
S'CLE'
p4925
S'17'
p4926
ssg393
(dp4927
S'CLE'
p4928
S'4.5'
p4929
ssg109
(dp4930
g59
S'16.5'
p4931
ssg642
(dp4932
g238
S'11'
p4933
ssg140
(dp4934
S'IND'
p4935
S'7.5'
p4936
ssg411
(dp4937
S'DET'
p4938
S'9.5'
p4939
ssg1325
(dp4940
g238
S'16.5'
p4941
ssg672
(dp4942
g103
S'6.5'
p4943
ssg418
(dp4944
S'TOR'
p4945
S'17.5'
p4946
ssg136
(dp4947
S'UTA'
p4948
S'10'
p4949
ssg143
(dp4950
g103
S'10.5'
p4951
ssg436
(dp4952
S'ATL'
p4953
S'10.5'
p4954
ssg153
(dp4955
S'MIA'
p4956
g76
ssg446
(dp4957
S'DEN'
p4958
S'7.5'
p4959
ssg168
(dp4960
S'MIL'
p4961
S'3.5'
p4962
ssg172
(dp4963
S'IND'
p4964
S'8.5'
p4965
ssg557
(dp4966
g127
g100
ssg460
(dp4967
S'TOR'
p4968
S'9.5'
p4969
ssg183
(dp4970
S'MIL'
p4971
S'6.5'
p4972
ssg101
(dp4973
g21
S'-5.5'
p4974
ssg195
(dp4975
S'BOS'
p4976
S'6.5'
p4977
ssg202
(dp4978
S'ORL'
p4979
g76
ssg484
(dp4980
g21
S'-0'
p4981
ssg293
(dp4982
g166
g76
ssg205
(dp4983
S'CHA'
p4984
g26
ssg209
(dp4985
S'MIA'
p4986
S'-2'
p4987
ssg492
(dp4988
g131
S'17.5'
p4989
ssg105
(dp4990
S'MEM'
p4991
S'10'
p4992
ssg179
(dp4993
S'CHI'
p4994
S'6.5'
p4995
ssg220
(dp4996
S'MIA'
p4997
S'11.5'
p4998
ssg45
(dp4999
S'MIA'
p5000
S'7.5'
p5001
ssg508
(dp5002
S'ATL'
p5003
S'13'
p5004
ssg240
(dp5005
S'DET'
p5006
g1322
ssg57
(dp5007
S'DAL'
p5008
S'12.5'
p5009
ssg249
(dp5010
g103
S'6.5'
p5011
ssg246
(dp5012
S'WAS'
p5013
S'10'
p5014
ssg736
(dp5015
S'DET'
p5016
g26
ssg533
(dp5017
S'IND'
p5018
S'11'
p5019
ssg261
(dp5020
S'MIL'
p5021
S'8.5'
p5022
ssg970
(dp5023
S'POR'
p5024
S'13'
p5025
ssg268
(dp5026
S'CHA'
p5027
S'6.5'
p5028
ssg272
(dp5029
S'MIL'
p5030
S'10.5'
p5031
ssg276
(dp5032
S'BOS'
p5033
S'8.5'
p5034
ssg546
(dp5035
S'SAC'
p5036
S'4.5'
p5037
ssg279
(dp5038
S'LAL'
p5039
S'-5'
p5040
ssg758
(dp5041
S'LAC'
p5042
S'19.5'
p5043
ssg282
(dp5044
S'BOS'
p5045
g10
ssg550
(dp5046
S'MIN'
p5047
g18
ssg554
(dp5048
g21
g38
ssg772
(dp5049
S'DEN'
p5050
S'11.5'
p5051
ssg630
(dp5052
S'ORL'
p5053
g76
ssg7
(dp5054
S'CHI'
p5055
S'10'
p5056
ssg296
(dp5057
S'CLE'
p5058
S'17'
p5059
sssg5
(dp5060
g566
(dp5061
S'ORL'
p5062
S'-12'
p5063
ssg3
(dp5064
g1
S'-4.5'
p5065
ssg11
(dp5066
S'LAC'
p5067
S'-4.5'
p5068
ssg312
(dp5069
S'LAC'
p5070
S'9.5'
p5071
ssg316
(dp5072
S'DET'
p5073
S'-9.5'
p5074
ssg202
(dp5075
S'POR'
p5076
S'1.5'
p5077
ssg31
(dp5078
S'LAL'
p5079
S'-10'
p5080
ssg257
(dp5081
g127
S'-5'
p5082
ssg39
(dp5083
S'UTA'
p5084
S'-2.5'
p5085
ssg42
(dp5086
g166
S'1.5'
p5087
ssg223
(dp5088
g59
g38
ssg229
(dp5089
S'MIA'
p5090
S'-8'
p5091
ssg49
(dp5092
S'DEN'
p5093
S'-9.5'
p5094
ssg53
(dp5095
g238
S'-1'
p5096
ssg1264
(dp5097
g127
S'-4'
p5098
ssg61
(dp5099
S'DAL'
p5100
S'-3'
p5101
ssg217
(dp5102
S'OKC'
p5103
S'-4'
p5104
ssg349
(dp5105
S'SAC'
p5106
S'-5.5'
p5107
ssg69
(dp5108
S'LAL'
p5109
S'-4'
p5110
ssg73
(dp5111
g59
S'-2'
p5112
ssg77
(dp5113
S'PHI'
p5114
S'-18'
p5115
ssg80
(dp5116
g59
S'-5'
p5117
ssg613
(dp5118
S'CHI'
p5119
S'-6.5'
p5120
ssg369
(dp5121
S'POR'
p5122
S'-2.5'
p5123
ssg90
(dp5124
g127
S'1.5'
p5125
ssg378
(dp5126
S'DEN'
p5127
S'-12.5'
p5128
ssg94
(dp5129
S'OKC'
p5130
S'-5.5'
p5131
ssg469
(dp5132
g131
S'-3.5'
p5133
ssg97
(dp5134
S'WAS'
p5135
g26
ssg386
(dp5136
S'LAL'
p5137
S'-11.5'
p5138
ssg634
(dp5139
g238
g26
ssg393
(dp5140
g21
S'-14.5'
p5141
ssg268
(dp5142
S'WAS'
p5143
S'-8'
p5144
ssg117
(dp5145
S'OKC'
p5146
S'4.5'
p5147
ssg136
(dp5148
S'MIA'
p5149
S'-3.5'
p5150
ssg125
(dp5151
S'CHI'
p5152
S'-5.5'
p5153
ssg480
(dp5154
S'UTA'
p5155
S'-8'
p5156
ssg418
(dp5157
g103
S'-7'
p5158
ssg143
(dp5159
g127
g801
ssg153
(dp5160
S'CHA'
p5161
g38
ssg371
(dp5162
S'POR'
p5163
S'-3'
p5164
ssg1325
(dp5165
g59
S'-4.5'
p5166
ssg160
(dp5167
S'MIN'
p5168
S'-5.5'
p5169
ssg168
(dp5170
g131
g26
ssg176
(dp5171
S'POR'
p5172
S'3.5'
p5173
ssg179
(dp5174
S'BOS'
p5175
S'-6.5'
p5176
ssg183
(dp5177
S'ATL'
p5178
S'4.5'
p5179
ssg428
(dp5180
S'SAC'
p5181
S'-5'
p5182
ssg190
(dp5183
S'DET'
p5184
S'-4.5'
p5185
ssg101
(dp5186
S'DAL'
p5187
S'2.5'
p5188
ssg195
(dp5189
S'TOR'
p5190
g235
ssg198
(dp5191
S'LAL'
p5192
S'-7'
p5193
ssg554
(dp5194
S'TOR'
p5195
S'-6'
p5196
ssg651
(dp5197
S'ATL'
p5198
S'-3'
p5199
ssg209
(dp5200
S'IND'
p5201
S'2.5'
p5202
ssg492
(dp5203
g238
g1322
ssg105
(dp5204
S'PHI'
p5205
S'-10'
p5206
ssg1150
(dp5207
g166
S'-3.5'
p5208
ssg220
(dp5209
S'LAC'
p5210
S'3.5'
p5211
ssg140
(dp5212
S'MIN'
p5213
S'-7.5'
p5214
ssg772
(dp5215
S'CLE'
p5216
g801
ssg249
(dp5217
S'MIL'
p5218
S'-6.5'
p5219
ssg243
(dp5220
S'DAL'
p5221
g235
ssg522
(dp5222
g21
S'-14'
p5223
ssg305
(dp5224
S'LAC'
p5225
S'-2.5'
p5226
ssg253
(dp5227
S'DAL'
p5228
S'-2.5'
p5229
ssg365
(dp5230
g131
S'3.5'
p5231
ssg1473
(dp5232
g103
S'-13'
p5233
ssg261
(dp5234
S'IND'
p5235
S'-6.5'
p5236
ssg7
(dp5237
S'OKC'
p5238
S'-7'
p5239
ssg272
(dp5240
S'SAC'
p5241
S'-7'
p5242
ssg276
(dp5243
S'MIN'
p5244
S'-8.5'
p5245
ssg672
(dp5246
S'CHA'
p5247
S'-10'
p5248
ssg279
(dp5249
S'SAC'
p5250
S'-10.5'
p5251
ssg758
(dp5252
S'DEN'
p5253
S'1.5'
p5254
ssg285
(dp5255
g238
S'3.5'
p5256
ssg156
(dp5257
S'UTA'
p5258
S'-6.5'
p5259
ssg289
(dp5260
S'UTA'
p5261
S'-7'
p5262
ssg557
(dp5263
S'ORL'
p5264
S'-5'
p5265
ssg293
(dp5266
S'BOS'
p5267
S'-6.5'
p5268
ssg630
(dp5269
S'CLE'
p5270
S'4.5'
p5271
ssg296
(dp5272
g166
S'-2.5'
p5273
sssg2500
(dp5274
g566
(dp5275
S'DEN'
p5276
S'-14'
p5277
ssg3
(dp5278
g2495
S'-4.5'
p5279
ssg305
(dp5280
S'MEM'
p5281
S'2.5'
p5282
ssg11
(dp5283
S'MEM'
p5284
S'4.5'
p5285
ssg179
(dp5286
S'OKC'
p5287
S'6.5'
p5288
ssg312
(dp5289
S'MEM'
p5290
S'-9.5'
p5291
ssg316
(dp5292
g166
S'-7'
p5293
ssg23
(dp5294
g127
S'-10'
p5295
ssg2169
(dp5296
g238
S'2.5'
p5297
ssg758
(dp5298
S'PHI'
p5299
S'-19.5'
p5300
ssg198
(dp5301
S'DET'
p5302
S'-8.5'
p5303
ssg42
(dp5304
g131
g10
ssg223
(dp5305
S'POR'
p5306
g801
ssg2957
(dp5307
S'MIA'
p5308
S'-4'
p5309
ssg1264
(dp5310
S'UTA'
p5311
S'-10'
p5312
ssg61
(dp5313
S'BOS'
p5314
S'-12'
p5315
ssg217
(dp5316
g238
g10
ssg355
(dp5317
g131
S'8.5'
p5318
ssg460
(dp5319
S'MIN'
p5320
S'-6.5'
p5321
ssg80
(dp5322
S'ORL'
p5323
S'-15'
p5324
ssg613
(dp5325
S'DEN'
p5326
S'-3'
p5327
ssg365
(dp5328
S'PHI'
p5329
S'-12.5'
p5330
ssg83
(dp5331
g21
S'-13'
p5332
ssg87
(dp5333
S'UTA'
p5334
S'-12'
p5335
ssg285
(dp5336
S'IND'
p5337
S'-11'
p5338
ssg382
(dp5339
S'SAC'
p5340
S'-9'
p5341
ssg101
(dp5342
S'WAS'
p5343
S'-7'
p5344
ssg634
(dp5345
S'BOS'
p5346
S'-6'
p5347
ssg393
(dp5348
S'ATL'
p5349
S'-5.5'
p5350
ssg268
(dp5351
S'DEN'
p5352
S'-10'
p5353
ssg117
(dp5354
g59
S'-3'
p5355
ssg642
(dp5356
S'MIN'
p5357
S'-15'
p5358
ssg125
(dp5359
S'MIN'
p5360
S'-7.5'
p5361
ssg411
(dp5362
g127
S'-9'
p5363
ssg480
(dp5364
g238
g801
ssg418
(dp5365
S'POR'
p5366
S'3.5'
p5367
ssg1150
(dp5368
S'MIA'
p5369
S'-10'
p5370
ssg246
(dp5371
S'POR'
p5372
g38
ssg432
(dp5373
g166
S'-7.5'
p5374
ssg136
(dp5375
S'TOR'
p5376
S'-4.5'
p5377
ssg150
(dp5378
S'DAL'
p5379
g26
ssg894
(dp5380
g166
S'-10.5'
p5381
ssg1325
(dp5382
S'CHI'
p5383
S'-7'
p5384
ssg168
(dp5385
S'DEN'
p5386
S'-18'
p5387
ssg132
(dp5388
S'MIL'
p5389
S'-10'
p5390
ssg176
(dp5391
g59
S'-4.5'
p5392
ssg362
(dp5393
g131
S'-2'
p5394
ssg183
(dp5395
S'LAL'
p5396
S'-10.5'
p5397
ssg190
(dp5398
S'CHA'
p5399
S'-10'
p5400
ssg195
(dp5401
S'ORL'
p5402
S'-5'
p5403
ssg1135
(dp5404
g238
S'-2'
p5405
ssg477
(dp5406
S'LAL'
p5407
S'-17'
p5408
ssg651
(dp5409
S'OKC'
p5410
S'7.5'
p5411
ssg484
(dp5412
S'LAL'
p5413
S'-14'
p5414
ssg113
(dp5415
g103
S'-13.5'
p5416
ssg375
(dp5417
g131
S'-3'
p5418
ssg105
(dp5419
S'MIL'
p5420
S'-5.5'
p5421
ssg369
(dp5422
S'SAC'
p5423
S'-10'
p5424
ssg220
(dp5425
S'MEM'
p5426
S'-3.5'
p5427
ssg45
(dp5428
S'ATL'
p5429
S'1.5'
p5430
ssg508
(dp5431
S'IND'
p5432
S'-6.5'
p5433
ssg240
(dp5434
S'SAC'
p5435
S'-9'
p5436
ssg57
(dp5437
S'UTA'
p5438
S'-5'
p5439
ssg726
(dp5440
S'OKC'
p5441
S'-13'
p5442
ssg236
(dp5443
g166
S'-2.5'
p5444
ssg232
(dp5445
S'DAL'
p5446
S'-3.5'
p5447
ssg736
(dp5448
S'UTA'
p5449
S'-6.5'
p5450
ssg2156
(dp5451
S'CLE'
p5452
g18
ssg533
(dp5453
S'CHI'
p5454
S'-2'
p5455
ssg741
(dp5456
g59
S'-5'
p5457
ssg261
(dp5458
S'LAL'
p5459
S'-11.5'
p5460
ssg970
(dp5461
S'CHA'
p5462
S'-4'
p5463
ssg272
(dp5464
g59
S'3.5'
p5465
ssg276
(dp5466
S'TOR'
p5467
S'-1'
p5468
ssg546
(dp5469
S'DAL'
p5470
S'2.5'
p5471
ssg282
(dp5472
S'DET'
p5473
S'-11.5'
p5474
ssg550
(dp5475
g127
S'-8'
p5476
ssg672
(dp5477
S'WAS'
p5478
S'-2.5'
p5479
ssg772
(dp5480
g21
S'-15'
p5481
ssg557
(dp5482
S'CLE'
p5483
S'-8.5'
p5484
ssg998
(dp5485
S'SAC'
p5486
S'-10'
p5487
ssg296
(dp5488
g103
S'-8.5'
p5489
sssg803
(dp5490
g566
(dp5491
g21
S'-5'
p5492
ssg35
(dp5493
S'MIN'
p5494
S'-9'
p5495
ssg528
(dp5496
S'OKC'
p5497
S'-2'
p5498
ssg11
(dp5499
g238
S'9.5'
p5500
ssg630
(dp5501
S'LAL'
p5502
S'-7.5'
p5503
ssg316
(dp5504
g238
S'1.5'
p5505
ssg19
(dp5506
S'DET'
p5507
S'3.5'
p5508
ssg27
(dp5509
S'TOR'
p5510
S'2.5'
p5511
ssg323
(dp5512
g131
S'15.5'
p5513
ssg257
(dp5514
S'UTA'
p5515
S'12'
p5516
ssg39
(dp5517
S'OKC'
p5518
S'13.5'
p5519
ssg42
(dp5520
S'DEN'
p5521
S'-3.5'
p5522
ssg223
(dp5523
g238
S'10.5'
p5524
ssg172
(dp5525
S'BOS'
p5526
S'-4'
p5527
ssg53
(dp5528
S'IND'
p5529
S'-3'
p5530
ssg2957
(dp5531
S'CHI'
p5532
S'-3'
p5533
ssg1264
(dp5534
S'DEN'
p5535
S'6.5'
p5536
ssg61
(dp5537
S'POR'
p5538
S'9.5'
p5539
ssg65
(dp5540
g127
S'6.5'
p5541
ssg349
(dp5542
S'MEM'
p5543
S'5.5'
p5544
ssg73
(dp5545
g166
g10
ssg101
(dp5546
S'CHA'
p5547
g10
ssg2156
(dp5548
S'DAL'
p5549
g38
ssg179
(dp5550
S'CHA'
p5551
g26
ssg365
(dp5552
g127
S'6.5'
p5553
ssg83
(dp5554
S'BOS'
p5555
S'-2'
p5556
ssg87
(dp5557
g103
g801
ssg90
(dp5558
S'MIA'
p5559
S'-1'
p5560
ssg378
(dp5561
S'ATL'
p5562
S'4.5'
p5563
ssg94
(dp5564
g127
S'6.5'
p5565
ssg382
(dp5566
S'LAC'
p5567
g76
ssg386
(dp5568
S'ORL'
p5569
S'-3'
p5570
ssg105
(dp5571
S'DET'
p5572
S'-5'
p5573
ssg117
(dp5574
S'MIL'
p5575
S'10'
p5576
ssg136
(dp5577
g21
S'-6'
p5578
ssg125
(dp5579
S'ATL'
p5580
S'11'
p5581
ssg411
(dp5582
S'ORL'
p5583
S'-6'
p5584
ssg480
(dp5585
g131
S'11'
p5586
ssg140
(dp5587
g131
S'4.5'
p5588
ssg1150
(dp5589
S'CLE'
p5590
S'-3.5'
p5591
ssg143
(dp5592
S'DEN'
p5593
S'-5'
p5594
ssg147
(dp5595
g127
S'-3'
p5596
ssg432
(dp5597
S'UTA'
p5598
S'-5'
p5599
ssg436
(dp5600
S'DAL'
p5601
g10
ssg446
(dp5602
g131
S'10'
p5603
ssg168
(dp5604
S'LAL'
p5605
S'-3.5'
p5606
ssg2819
(dp5607
g59
g801
ssg176
(dp5608
g238
S'11'
p5609
ssg183
(dp5610
S'OKC'
p5611
g100
ssg428
(dp5612
S'MEM'
p5613
g10
ssg469
(dp5614
S'OKC'
p5615
g26
ssg240
(dp5616
S'LAC'
p5617
g76
ssg765
(dp5618
S'MIN'
p5619
S'-4.5'
p5620
ssg198
(dp5621
g59
S'4.5'
p5622
ssg477
(dp5623
S'MIN'
p5624
S'-8.5'
p5625
ssg651
(dp5626
g166
S'7.5'
p5627
ssg484
(dp5628
S'UTA'
p5629
S'-1'
p5630
ssg205
(dp5631
S'UTA'
p5632
S'5.5'
p5633
ssg209
(dp5634
S'LAL'
p5635
g38
ssg217
(dp5636
S'IND'
p5637
S'5.5'
p5638
ssg213
(dp5639
S'MIL'
p5640
S'-7.5'
p5641
ssg369
(dp5642
S'LAC'
p5643
S'10'
p5644
ssg23
(dp5645
S'WAS'
p5646
g18
ssg226
(dp5647
S'PHI'
p5648
S'-8.5'
p5649
ssg772
(dp5650
g166
S'8.5'
p5651
ssg249
(dp5652
S'WAS'
p5653
S'10'
p5654
ssg246
(dp5655
g59
S'10.5'
p5656
ssg31
(dp5657
S'DAL'
p5658
g26
ssg736
(dp5659
S'TOR'
p5660
S'5.5'
p5661
ssg253
(dp5662
S'LAL'
p5663
S'3.5'
p5664
ssg533
(dp5665
S'POR'
p5666
g26
ssg1473
(dp5667
S'CHI'
p5668
S'11'
p5669
ssg261
(dp5670
S'POR'
p5671
S'4.5'
p5672
ssg265
(dp5673
S'DEN'
p5674
S'8.5'
p5675
ssg7
(dp5676
g166
g10
ssg272
(dp5677
S'MEM'
p5678
g100
ssg546
(dp5679
S'PHI'
p5680
S'-4.5'
p5681
ssg279
(dp5682
S'MEM'
p5683
S'10.5'
p5684
ssg550
(dp5685
S'CLE'
p5686
S'10.5'
p5687
ssg554
(dp5688
g103
S'-5.5'
p5689
ssg289
(dp5690
g21
S'-4.5'
p5691
ssg557
(dp5692
S'MIA'
p5693
S'-3'
p5694
ssg998
(dp5695
S'LAC'
p5696
S'10'
p5697
sssg4011
(dp5698
g566
(dp5699
S'MEM'
p5700
S'12'
p5701
ssg35
(dp5702
S'MIA'
p5703
S'1.5'
p5704
ssg573
(dp5705
g21
S'6.5'
p5706
ssg11
(dp5707
S'ATL'
p5708
S'11'
p5709
ssg15
(dp5710
S'CHI'
p5711
S'10'
p5712
ssg312
(dp5713
g21
S'-11'
p5714
ssg316
(dp5715
S'WAS'
p5716
g76
ssg23
(dp5717
S'DEN'
p5718
g801
ssg27
(dp5719
g131
S'14.5'
p5720
ssg323
(dp5721
g21
S'-3'
p5722
ssg257
(dp5723
S'CHI'
p5724
S'7.5'
p5725
ssg39
(dp5726
S'TOR'
p5727
g10
ssg42
(dp5728
S'PHI'
p5729
S'-2.5'
p5730
ssg223
(dp5731
g166
S'4.5'
p5732
ssg49
(dp5733
S'MIL'
p5734
g18
ssg53
(dp5735
S'UTA'
p5736
g10
ssg101
(dp5737
S'POR'
p5738
S'8.5'
p5739
ssg69
(dp5740
g103
S'2.5'
p5741
ssg355
(dp5742
S'BOS'
p5743
S'2.5'
p5744
ssg73
(dp5745
S'CLE'
p5746
S'3.5'
p5747
ssg80
(dp5748
S'LAC'
p5749
S'15'
p5750
ssg613
(dp5751
S'UTA'
p5752
S'-4'
p5753
ssg365
(dp5754
S'DET'
p5755
S'2.5'
p5756
ssg217
(dp5757
S'DAL'
p5758
g100
ssg87
(dp5759
S'MIA'
p5760
S'5.5'
p5761
ssg268
(dp5762
S'MIL'
p5763
g76
ssg849
(dp5764
S'CHI'
p5765
S'11.5'
p5766
ssg94
(dp5767
S'MIN'
p5768
S'-4.5'
p5769
ssg285
(dp5770
S'BOS'
p5771
S'3.5'
p5772
ssg386
(dp5773
S'SAC'
p5774
g38
ssg109
(dp5775
S'MIL'
p5776
S'-2.5'
p5777
ssg117
(dp5778
g21
S'-6'
p5779
ssg136
(dp5780
S'CHA'
p5781
g235
ssg411
(dp5782
S'SAC'
p5783
g235
ssg202
(dp5784
S'PHI'
p5785
S'-9'
p5786
ssg2195
(dp5787
g127
g76
ssg418
(dp5788
g59
g76
ssg889
(dp5789
S'IND'
p5790
S'8.5'
p5791
ssg143
(dp5792
S'LAL'
p5793
S'1.5'
p5794
ssg153
(dp5795
S'TOR'
p5796
g235
ssg156
(dp5797
g238
S'13.5'
p5798
ssg1325
(dp5799
S'DET'
p5800
S'4.5'
p5801
ssg168
(dp5802
S'MIA'
p5803
g235
ssg172
(dp5804
g127
S'5.5'
p5805
ssg176
(dp5806
S'IND'
p5807
g10
ssg179
(dp5808
S'MIL'
p5809
g26
ssg183
(dp5810
S'DEN'
p5811
g100
ssg428
(dp5812
g166
g76
ssg190
(dp5813
g59
S'11'
p5814
ssg195
(dp5815
S'LAC'
p5816
g10
ssg198
(dp5817
g131
g26
ssg651
(dp5818
S'CHI'
p5819
S'6.5'
p5820
ssg209
(dp5821
g103
g76
ssg492
(dp5822
S'DET'
p5823
g104
ssg105
(dp5824
S'ATL'
p5825
g38
ssg933
(dp5826
S'OKC'
p5827
g76
ssg246
(dp5828
g238
S'10'
p5829
ssg150
(dp5830
S'WAS'
p5831
S'10.5'
p5832
ssg45
(dp5833
S'BOS'
p5834
S'-2'
p5835
ssg508
(dp5836
S'WAS'
p5837
g10
ssg240
(dp5838
S'DAL'
p5839
S'12.5'
p5840
ssg726
(dp5841
S'WAS'
p5842
S'4.5'
p5843
ssg236
(dp5844
S'IND'
p5845
S'1.5'
p5846
ssg630
(dp5847
S'PHI'
p5848
S'-9'
p5849
ssg232
(dp5850
S'POR'
p5851
S'14.5'
p5852
ssg31
(dp5853
S'TOR'
p5854
S'10.5'
p5855
ssg528
(dp5856
g103
S'8.5'
p5857
ssg533
(dp5858
S'CHA'
p5859
S'1.5'
p5860
ssg741
(dp5861
S'CLE'
p5862
S'10.5'
p5863
ssg970
(dp5864
S'CLE'
p5865
S'10.5'
p5866
ssg7
(dp5867
S'MIN'
p5868
g18
ssg272
(dp5869
S'MIA'
p5870
S'3.5'
p5871
ssg276
(dp5872
S'LAL'
p5873
S'-4.5'
p5874
ssg546
(dp5875
S'BOS'
p5876
g10
ssg758
(dp5877
S'CHA'
p5878
S'-4'
p5879
ssg282
(dp5880
S'TOR'
p5881
S'6.5'
p5882
ssg672
(dp5883
S'ATL'
p5884
g76
ssg554
(dp5885
S'DET'
p5886
S'8.5'
p5887
ssg772
(dp5888
S'ATL'
p5889
g76
ssg557
(dp5890
S'MEM'
p5891
g10
ssg293
(dp5892
S'CHA'
p5893
g18
ssg296
(dp5894
S'OKC'
p5895
S'10.5'
p5896
sssg166
(dp5897
g35
(dp5898
S'IND'
p5899
S'-2'
p5900
ssg528
(dp5901
g131
S'-2.5'
p5902
ssg862
(dp5903
S'LAL'
p5904
S'-5'
p5905
ssg15
(dp5906
g4646
S'-6'
p5907
ssg316
(dp5908
S'LAC'
p5909
g100
ssg19
(dp5910
S'TOR'
p5911
S'-1'
p5912
ssg23
(dp5913
S'DAL'
p5914
S'4.5'
p5915
ssg27
(dp5916
S'IND'
p5917
S'-5'
p5918
ssg323
(dp5919
g59
S'-2.5'
p5920
ssg257
(dp5921
S'DAL'
p5922
S'8.5'
p5923
ssg39
(dp5924
g127
g76
ssg42
(dp5925
S'MEM'
p5926
S'-1.5'
p5927
ssg223
(dp5928
S'ORL'
p5929
S'-4.5'
p5930
ssg172
(dp5931
S'MIN'
p5932
S'1.5'
p5933
ssg53
(dp5934
S'DAL'
p5935
g235
ssg573
(dp5936
g103
S'-4.5'
p5937
ssg537
(dp5938
S'OKC'
p5939
S'7.5'
p5940
ssg61
(dp5941
S'LAL'
p5942
S'-10.5'
p5943
ssg217
(dp5944
g131
S'10.5'
p5945
ssg1473
(dp5946
g59
S'-2.5'
p5947
ssg69
(dp5948
S'PHI'
p5949
S'-14'
p5950
ssg73
(dp5951
S'SAC'
p5952
S'-5'
p5953
ssg970
(dp5954
S'TOR'
p5955
S'4.5'
p5956
ssg179
(dp5957
S'MIN'
p5958
S'-4.5'
p5959
ssg83
(dp5960
S'OKC'
p5961
g26
ssg90
(dp5962
S'CLE'
p5963
S'11'
p5964
ssg386
(dp5965
g103
S'2.5'
p5966
ssg634
(dp5967
S'OKC'
p5968
S'-2'
p5969
ssg109
(dp5970
S'CHA'
p5971
S'-6.5'
p5972
ssg125
(dp5973
g131
S'5.5'
p5974
ssg411
(dp5975
g59
S'-2'
p5976
ssg651
(dp5977
S'SAC'
p5978
S'-7.5'
p5979
ssg140
(dp5980
S'LAL'
p5981
S'-12'
p5982
ssg293
(dp5983
S'PHI'
p5984
S'-9'
p5985
ssg143
(dp5986
g238
g10
ssg425
(dp5987
S'OKC'
p5988
g10
ssg160
(dp5989
g238
S'-2'
p5990
ssg432
(dp5991
S'LAC'
p5992
S'7.5'
p5993
ssg436
(dp5994
S'CLE'
p5995
S'-4.5'
p5996
ssg894
(dp5997
S'LAC'
p5998
S'10.5'
p5999
ssg440
(dp6000
g131
S'12.5'
p6001
ssg371
(dp6002
g59
S'7.5'
p6003
ssg1325
(dp6004
S'BOS'
p6005
S'-1.5'
p6006
ssg164
(dp6007
S'MIL'
p6008
S'-4.5'
p6009
ssg557
(dp6010
S'MIN'
p6011
S'-13.5'
p6012
ssg684
(dp6013
g127
S'-2.5'
p6014
ssg132
(dp6015
g21
S'-6'
p6016
ssg176
(dp6017
S'DEN'
p6018
g104
ssg183
(dp6019
S'MIN'
p6020
S'-8'
p6021
ssg428
(dp6022
S'ORL'
p6023
S'-9'
p6024
ssg195
(dp6025
S'DET'
p6026
S'-2.5'
p6027
ssg198
(dp6028
S'DEN'
p6029
S'-7.5'
p6030
ssg477
(dp6031
S'ATL'
p6032
g100
ssg285
(dp6033
S'CHA'
p6034
S'-2.5'
p6035
ssg2156
(dp6036
S'POR'
p6037
g10
ssg153
(dp6038
S'UTA'
p6039
S'-2'
p6040
ssg492
(dp6041
g127
g104
ssg1150
(dp6042
S'MEM'
p6043
S'3.5'
p6044
ssg220
(dp6045
S'BOS'
p6046
S'-8'
p6047
ssg45
(dp6048
S'DAL'
p6049
S'-1.5'
p6050
ssg460
(dp6051
S'MIA'
p6052
S'1.5'
p6053
ssg236
(dp6054
S'LAC'
p6055
S'2.5'
p6056
ssg630
(dp6057
S'WAS'
p6058
g235
ssg736
(dp6059
S'WAS'
p6060
S'-6'
p6061
ssg253
(dp6062
S'MIA'
p6063
S'-4.5'
p6064
ssg365
(dp6065
S'POR'
p6066
g801
ssg741
(dp6067
g21
S'-11.5'
p6068
ssg261
(dp6069
g238
g801
ssg265
(dp6070
g238
S'17'
p6071
ssg268
(dp6072
S'UTA'
p6073
S'-1.5'
p6074
ssg272
(dp6075
S'DEN'
p6076
S'-6'
p6077
ssg276
(dp6078
S'UTA'
p6079
S'-5'
p6080
ssg546
(dp6081
S'ATL'
p6082
S'6.5'
p6083
ssg279
(dp6084
S'POR'
p6085
S'8.5'
p6086
ssg282
(dp6087
S'MIL'
p6088
S'-5.5'
p6089
ssg550
(dp6090
S'CHI'
p6091
S'-7'
p6092
ssg672
(dp6093
S'DET'
p6094
S'-9.5'
p6095
ssg554
(dp6096
S'POR'
p6097
S'-7.5'
p6098
ssg772
(dp6099
S'SAC'
p6100
S'-8.5'
p6101
ssg7
(dp6102
S'SAC'
p6103
S'-5'
p6104
ssg998
(dp6105
S'CHI'
p6106
g26
ssg296
(dp6107
S'MEM'
p6108
S'2.5'
p6109
sssg4435
(dp6110
g202
(dp6111
g131
g18
ssg3
(dp6112
g4432
S'3.5'
p6113
ssg573
(dp6114
S'MIA'
p6115
S'8.5'
p6116
ssg11
(dp6117
S'CLE'
p6118
S'-2.5'
p6119
ssg15
(dp6120
S'MIL'
p6121
S'-4'
p6122
ssg316
(dp6123
S'CHI'
p6124
g76
ssg19
(dp6125
S'LAL'
p6126
S'-0'
p6127
ssg27
(dp6128
g166
g10
ssg323
(dp6129
S'MIA'
p6130
S'3.5'
p6131
ssg35
(dp6132
g166
g104
ssg39
(dp6133
S'DET'
p6134
S'-5.5'
p6135
ssg42
(dp6136
S'WAS'
p6137
S'9.5'
p6138
ssg223
(dp6139
g21
S'-13.5'
p6140
ssg172
(dp6141
S'PHI'
p6142
S'-8.5'
p6143
ssg49
(dp6144
g21
S'-8'
p6145
ssg53
(dp6146
S'SAC'
p6147
g38
ssg101
(dp6148
S'CLE'
p6149
S'10.5'
p6150
ssg61
(dp6151
g59
S'10'
p6152
ssg246
(dp6153
S'BOS'
p6154
g18
ssg217
(dp6155
S'SAC'
p6156
S'-5.5'
p6157
ssg69
(dp6158
S'MIL'
p6159
S'1.5'
p6160
ssg73
(dp6161
S'DET'
p6162
S'-3'
p6163
ssg970
(dp6164
S'DAL'
p6165
S'14'
p6166
ssg83
(dp6167
S'MIA'
p6168
S'-4'
p6169
ssg87
(dp6170
S'CHI'
p6171
S'4.5'
p6172
ssg90
(dp6173
g21
S'-9'
p6174
ssg378
(dp6175
S'TOR'
p6176
S'-5'
p6177
ssg94
(dp6178
S'CHA'
p6179
S'-4.5'
p6180
ssg97
(dp6181
S'MIL'
p6182
S'-7'
p6183
ssg386
(dp6184
S'CHI'
p6185
S'-6'
p6186
ssg634
(dp6187
S'DAL'
p6188
S'-2'
p6189
ssg393
(dp6190
S'UTA'
p6191
S'1.5'
p6192
ssg109
(dp6193
S'DEN'
p6194
S'-2.5'
p6195
ssg117
(dp6196
g127
S'-1'
p6197
ssg121
(dp6198
S'MIL'
p6199
g18
ssg432
(dp6200
S'ATL'
p6201
S'-1'
p6202
ssg198
(dp6203
g238
S'13'
p6204
ssg132
(dp6205
S'DEN'
p6206
g38
ssg415
(dp6207
S'POR'
p6208
S'8.5'
p6209
ssg140
(dp6210
S'PHI'
p6211
S'-7.5'
p6212
ssg889
(dp6213
S'ORL'
p6214
S'-8.5'
p6215
ssg143
(dp6216
S'BOS'
p6217
S'-6'
p6218
ssg136
(dp6219
g103
g38
ssg436
(dp6220
S'MIN'
p6221
S'-11'
p6222
ssg894
(dp6223
S'WAS'
p6224
S'-7.5'
p6225
ssg153
(dp6226
S'ATL'
p6227
S'10.5'
p6228
ssg156
(dp6229
S'DET'
p6230
S'-4.5'
p6231
ssg557
(dp6232
S'DET'
p6233
S'-1'
p6234
ssg453
(dp6235
S'OKC'
p6236
S'7.5'
p6237
ssg176
(dp6238
S'ORL'
p6239
S'-5'
p6240
ssg183
(dp6241
g131
S'11.5'
p6242
ssg257
(dp6243
g21
S'-11'
p6244
ssg195
(dp6245
S'CHA'
p6246
S'-2'
p6247
ssg1135
(dp6248
S'UTA'
p6249
S'-3'
p6250
ssg651
(dp6251
S'CHA'
p6252
S'-2'
p6253
ssg484
(dp6254
S'MIA'
p6255
S'-6.5'
p6256
ssg209
(dp6257
S'MEM'
p6258
S'-2.5'
p6259
ssg375
(dp6260
g103
S'-1'
p6261
ssg105
(dp6262
S'POR'
p6263
g10
ssg369
(dp6264
S'CHA'
p6265
S'-2.5'
p6266
ssg150
(dp6267
g238
S'4.5'
p6268
ssg45
(dp6269
g127
S'1.5'
p6270
ssg508
(dp6271
S'LAC'
p6272
S'6.5'
p6273
ssg240
(dp6274
S'CHI'
p6275
g801
ssg232
(dp6276
S'PHI'
p6277
S'-7'
p6278
ssg236
(dp6279
S'ORL'
p6280
S'-1.5'
p6281
ssg249
(dp6282
S'BOS'
p6283
S'-8.5'
p6284
ssg243
(dp6285
S'TOR'
p6286
g38
ssg522
(dp6287
g59
S'1.5'
p6288
ssg371
(dp6289
g103
S'-8.5'
p6290
ssg533
(dp6291
S'PHI'
p6292
S'-11'
p6293
ssg261
(dp6294
S'MEM'
p6295
S'6.5'
p6296
ssg265
(dp6297
S'OKC'
p6298
S'-2.5'
p6299
ssg7
(dp6300
S'BOS'
p6301
S'5.5'
p6302
ssg276
(dp6303
S'CLE'
p6304
g235
ssg672
(dp6305
S'TOR'
p6306
g76
ssg282
(dp6307
S'LAL'
p6308
S'-5'
p6309
ssg285
(dp6310
S'LAC'
p6311
S'11'
p6312
ssg554
(dp6313
S'ATL'
p6314
S'10.5'
p6315
ssg772
(dp6316
S'WAS'
p6317
g38
ssg630
(dp6318
S'MIN'
p6319
S'-3.5'
p6320
ssg57
(dp6321
S'CLE'
p6322
S'10'
p6323
sssg127
(dp6324
g566
(dp6325
S'PHI'
p6326
S'-15'
p6327
ssg3
(dp6328
g238
S'7.5'
p6329
ssg573
(dp6330
S'LAL'
p6331
S'-10.5'
p6332
ssg11
(dp6333
S'MIA'
p6334
g104
ssg15
(dp6335
g3582
S'-4'
p6336
ssg23
(dp6337
S'LAC'
p6338
S'10'
p6339
ssg27
(dp6340
S'OKC'
p6341
S'3.5'
p6342
ssg323
(dp6343
S'MIN'
p6344
S'-6.5'
p6345
ssg35
(dp6346
S'UTA'
p6347
S'-2.5'
p6348
ssg39
(dp6349
g166
S'-9'
p6350
ssg365
(dp6351
S'SAC'
p6352
S'-6.5'
p6353
ssg45
(dp6354
S'IND'
p6355
S'-1.5'
p6356
ssg172
(dp6357
S'ORL'
p6358
S'-5.5'
p6359
ssg1264
(dp6360
S'MEM'
p6361
g18
ssg61
(dp6362
g21
S'-7.5'
p6363
ssg65
(dp6364
S'SAC'
p6365
S'-6.5'
p6366
ssg69
(dp6367
g59
g104
ssg73
(dp6368
g238
S'-3'
p6369
ssg101
(dp6370
g131
S'13.5'
p6371
ssg83
(dp6372
g238
g10
ssg90
(dp6373
S'MEM'
p6374
S'-1.5'
p6375
ssg849
(dp6376
S'BOS'
p6377
S'-5.5'
p6378
ssg94
(dp6379
S'SAC'
p6380
S'-6.5'
p6381
ssg537
(dp6382
g131
S'6.5'
p6383
ssg386
(dp6384
S'BOS'
p6385
S'-7'
p6386
ssg634
(dp6387
S'MIN'
p6388
S'-13'
p6389
ssg393
(dp6390
S'WAS'
p6391
S'-3'
p6392
ssg109
(dp6393
S'MIN'
p6394
S'-8'
p6395
ssg117
(dp6396
S'IND'
p6397
g801
ssg136
(dp6398
S'CHI'
p6399
S'10'
p6400
ssg125
(dp6401
S'MIL'
p6402
S'-1.5'
p6403
ssg411
(dp6404
S'LAC'
p6405
g76
ssg415
(dp6406
g131
S'9.5'
p6407
ssg418
(dp6408
S'DET'
p6409
g18
ssg889
(dp6410
g103
S'2.5'
p6411
ssg143
(dp6412
S'MEM'
p6413
S'-1'
p6414
ssg147
(dp6415
S'SAC'
p6416
g38
ssg150
(dp6417
S'UTA'
p6418
S'-2.5'
p6419
ssg153
(dp6420
S'DAL'
p6421
g1322
ssg156
(dp6422
S'OKC'
p6423
S'-4'
p6424
ssg1325
(dp6425
S'POR'
p6426
S'3.5'
p6427
ssg168
(dp6428
S'MIN'
p6429
S'-14.5'
p6430
ssg684
(dp6431
g166
S'2.5'
p6432
ssg132
(dp6433
S'POR'
p6434
S'-5.5'
p6435
ssg176
(dp6436
S'ATL'
p6437
S'2.5'
p6438
ssg460
(dp6439
S'DAL'
p6440
g26
ssg183
(dp6441
S'CHA'
p6442
S'-5'
p6443
ssg257
(dp6444
S'MEM'
p6445
g10
ssg190
(dp6446
S'MIL'
p6447
S'-7'
p6448
ssg469
(dp6449
S'UTA'
p6450
S'-10'
p6451
ssg1135
(dp6452
S'CLE'
p6453
S'5.5'
p6454
ssg477
(dp6455
g131
S'4.5'
p6456
ssg2195
(dp6457
S'ORL'
p6458
S'-9'
p6459
ssg205
(dp6460
S'CHI'
p6461
g104
ssg209
(dp6462
g238
S'5.5'
p6463
ssg492
(dp6464
g166
S'-2'
p6465
ssg213
(dp6466
g59
S'4.5'
p6467
ssg933
(dp6468
S'TOR'
p6469
S'11'
p6470
ssg220
(dp6471
S'TOR'
p6472
S'7.5'
p6473
ssg223
(dp6474
S'DET'
p6475
S'-5'
p6476
ssg508
(dp6477
S'DAL'
p6478
g100
ssg229
(dp6479
S'LAL'
p6480
S'-2.5'
p6481
ssg57
(dp6482
S'WAS'
p6483
g18
ssg236
(dp6484
S'DAL'
p6485
S'3.5'
p6486
ssg630
(dp6487
S'OKC'
p6488
g100
ssg246
(dp6489
S'LAL'
p6490
S'-9.5'
p6491
ssg736
(dp6492
S'DEN'
p6493
S'-6'
p6494
ssg253
(dp6495
g21
S'-6.5'
p6496
ssg533
(dp6497
S'DEN'
p6498
S'-4.5'
p6499
ssg741
(dp6500
S'DEN'
p6501
S'-7.5'
p6502
ssg265
(dp6503
g59
g10
ssg268
(dp6504
S'POR'
p6505
S'5.5'
p6506
ssg272
(dp6507
g103
S'2.5'
p6508
ssg276
(dp6509
S'OKC'
p6510
S'6.5'
p6511
ssg672
(dp6512
S'CLE'
p6513
S'-1.5'
p6514
ssg550
(dp6515
S'LAC'
p6516
g26
ssg554
(dp6517
S'LAL'
p6518
S'-7'
p6519
ssg772
(dp6520
g59
g1322
ssg557
(dp6521
S'PHI'
p6522
S'-7'
p6523
ssg293
(dp6524
S'DEN'
p6525
S'-2.5'
p6526
ssg998
(dp6527
S'MIA'
p6528
g104
ssg296
(dp6529
S'ATL'
p6530
g38
sss.