(dp0
S'MIL'
p1
(dp2
S'FEB 28, 2015'
p3
(dp4
S'TOR'
p5
S'3'
p6
sssS'MIN'
p7
(dp8
g3
(dp9
S'PHO'
p10
S'-1'
p11
sssS'MIA'
p12
(dp13
g3
(dp14
S'MEM'
p15
S'6'
p16
sssS'ATL'
p17
(dp18
g3
(dp19
S'UTA'
p20
S'2.5'
p21
sssS'BOS'
p22
(dp23
g3
(dp24
S'SA'
p25
S'2.5'
p26
sssS'DET'
p27
(dp28
g3
(dp29
S'LAC'
p30
S'6.5'
p31
sssS'BK'
p32
(dp33
g3
(dp34
S'IND'
p35
S'8.5'
p36
sssS'DEN'
p37
(dp38
g3
(dp39
S'OKC'
p40
S'N/A'
p41
sssS'NO'
p42
(dp43
g3
(dp44
S'POR'
p45
S'4'
p46
sssS'DAL'
p47
(dp48
g3
(dp49
S'CLE'
p50
S'14.5'
p51
sssS'POR'
p52
(dp53
g3
(dp54
S'NO'
p55
S'-4'
p56
sssS'ORL'
p57
(dp58
g3
(dp59
S'WAS'
p60
S'1'
p61
sssS'NY'
p62
(dp63
g3
(dp64
S'CHA'
p65
g61
sssS'CLE'
p66
(dp67
g3
(dp68
S'DAL'
p69
S'-14.5'
p70
sssS'CHA'
p71
(dp72
g3
(dp73
S'NY'
p74
S'-1'
p75
sssS'TOR'
p76
(dp77
g3
(dp78
S'MIL'
p79
S'-3'
p80
sssS'UTA'
p81
(dp82
g3
(dp83
S'ATL'
p84
S'-2.5'
p85
sssS'GS'
p86
(dp87
g3
(dp88
S'LAL'
p89
S'-13'
p90
sssS'CHI'
p91
(dp92
g3
(dp93
S'PHI'
p94
S'-7.5'
p95
sssS'HOU'
p96
(dp97
g3
(dp98
S'SAC'
p99
S'-3'
p100
sssS'WAS'
p101
(dp102
g3
(dp103
S'ORL'
p104
S'-1'
p105
sssS'LAL'
p106
(dp107
g3
(dp108
S'GS'
p109
S'13'
p110
sssS'PHI'
p111
(dp112
g3
(dp113
S'CHI'
p114
S'7.5'
p115
sssS'PHO'
p116
(dp117
g3
(dp118
S'MIN'
p119
g61
sssS'MEM'
p120
(dp121
g3
(dp122
S'MIA'
p123
S'-6'
p124
sssS'LAC'
p125
(dp126
g3
(dp127
S'DET'
p128
S'-6.5'
p129
sssS'SAC'
p130
(dp131
g3
(dp132
S'HOU'
p133
g6
sssS'OKC'
p134
(dp135
g3
(dp136
S'DEN'
p137
S'-N/A'
p138
sssS'IND'
p139
(dp140
g3
(dp141
S'BK'
p142
S'-8.5'
p143
sssS'SA'
p144
(dp145
g3
(dp146
S'BOS'
p147
S'-2.5'
p148
sss.